EXPORTS 
	??_R0?AU_Crt_new_delete@std@@@8 	 DATA
	??_R0?AV?$_Func_base@PEAUggml_cgraph@@$$V@std@@@8 	 DATA
	??_R0?AV?$_Iosb@H@std@@@8 	 DATA
	??_R0?AV?$_Node_class@DV?$regex_traits@D@std@@@std@@@8 	 DATA
	??_R0?AV?$_Node_str@D@std@@@8 	 DATA
	??_R0?AV?$basic_filebuf@DU?$char_traits@D@std@@@std@@@8 	 DATA
	??_R0?AV?$basic_ifstream@DU?$char_traits@D@std@@@std@@@8 	 DATA
	??_R0?AV?$basic_ios@DU?$char_traits@D@std@@@std@@@8 	 DATA
	??_R0?AV?$basic_istream@DU?$char_traits@D@std@@@std@@@8 	 DATA
	??_R0?AV?$basic_ofstream@DU?$char_traits@D@std@@@std@@@8 	 DATA
	??_R0?AV?$basic_ostream@DU?$char_traits@D@std@@@std@@@8 	 DATA
	??_R0?AV?$basic_streambuf@DU?$char_traits@D@std@@@std@@@8 	 DATA
	??_R0?AV?$codecvt@_WDU_Mbstatet@@@std@@@8 	 DATA
	??_R0?AV?$codecvt_utf8@_W$0BAPPPP@$0A@@std@@@8 	 DATA
	??_R0?AV?$collate@D@std@@@8 	 DATA
	??_R0?AV?$collate_byname@D@std@@@8 	 DATA
	??_R0?AV?$wstring_convert@V?$codecvt_utf8@_W$0BAPPPP@$0A@@std@@_WV?$allocator@_W@2@V?$allocator@D@2@@std@@@8 	 DATA
	??_R0?AV_Facet_base@std@@@8 	 DATA
	??_R0?AV_Node_assert@std@@@8 	 DATA
	??_R0?AV_Node_back@std@@@8 	 DATA
	??_R0?AV_Node_base@std@@@8 	 DATA
	??_R0?AV_Node_capture@std@@@8 	 DATA
	??_R0?AV_Node_end_group@std@@@8 	 DATA
	??_R0?AV_Node_end_rep@std@@@8 	 DATA
	??_R0?AV_Node_endif@std@@@8 	 DATA
	??_R0?AV_Node_if@std@@@8 	 DATA
	??_R0?AV_Node_rep@std@@@8 	 DATA
	??_R0?AV_Root_node@std@@@8 	 DATA
	??_R0?AVbad_alloc@std@@@8 	 DATA
	??_R0?AVbad_array_new_length@std@@@8 	 DATA
	??_R0?AVbad_cast@std@@@8 	 DATA
	??_R0?AVcodecvt_base@std@@@8 	 DATA
	??_R0?AVexception@std@@@8 	 DATA
	??_R0?AVfacet@locale@std@@@8 	 DATA
	??_R0?AVios_base@std@@@8 	 DATA
	??_R0?AVrange_error@std@@@8 	 DATA
	??_R0?AVruntime_error@std@@@8 	 DATA
	?_OptionsStorage@?1??__local_stdio_printf_options@@9@4_KA 	 DATA
	?_Psave@?$_Facetptr@V?$codecvt@DDU_Mbstatet@@@std@@@std@@2PEBVfacet@locale@2@EB 	 DATA
	?_Psave@?$_Facetptr@V?$collate@D@std@@@std@@2PEBVfacet@locale@2@EB 	 DATA
	?_Psave@?$_Facetptr@V?$ctype@D@std@@@std@@2PEBVfacet@locale@2@EB 	 DATA
	?_Stinit@?1??_Init@?$basic_filebuf@DU?$char_traits@D@std@@@std@@IEAAXPEAU_iobuf@@W4_Initfl@23@@Z@4U_Mbstatet@@A 	 DATA
	_Avx2WmemEnabledWeakValue 	 DATA
	??$?0$$CBV?$basic_string@DU?$char_traits@D@std@@V?$allocator@D@2@@std@@H$0A@@?$pair@V?$basic_string@DU?$char_traits@D@std@@V?$allocator@D@2@@std@@H@std@@QEAA@AEBU?$pair@$$CBV?$basic_string@DU?$char_traits@D@std@@V?$allocator@D@2@@std@@H@1@@Z
	??$?0$$CBV?$basic_string@DU?$char_traits@D@std@@V?$allocator@D@2@@std@@U?$pair@HV?$basic_string@DU?$char_traits@D@std@@V?$allocator@D@2@@std@@@1@$0A@@?$pair@$$CBV?$basic_string@DU?$char_traits@D@std@@V?$allocator@D@2@@std@@U?$pair@HV?$basic_string@DU?$char_traits@D@std@@V?$allocator@D@2@@std@@@2@@std@@QEAA@AEBV?$basic_string@DU?$char_traits@D@std@@V?$allocator@D@2@@1@AEBU?$pair@HV?$basic_string@DU?$char_traits@D@std@@V?$allocator@D@2@@std@@@1@@Z
	??$?0$$CBW4asr_system@@V?$map@W4asr_tensor@@PEBDU?$less@W4asr_tensor@@@std@@V?$allocator@U?$pair@$$CBW4asr_tensor@@PEBD@std@@@3@@std@@$0A@@?$pair@$$CBW4asr_system@@V?$map@W4asr_tensor@@PEBDU?$less@W4asr_tensor@@@std@@V?$allocator@U?$pair@$$CBW4asr_tensor@@PEBD@std@@@3@@std@@@std@@QEAA@AEBW4asr_system@@AEBV?$map@W4asr_tensor@@PEBDU?$less@W4asr_tensor@@@std@@V?$allocator@U?$pair@$$CBW4asr_tensor@@PEBD@std@@@3@@1@@Z
	??$?0$$CBW4whisper_alignment_heads_preset@@Uwhisper_aheads@@$0A@@?$pair@$$CBW4whisper_alignment_heads_preset@@Uwhisper_aheads@@@std@@QEAA@AEBW4whisper_alignment_heads_preset@@AEBUwhisper_aheads@@@Z
	??$?0$$QEAV?$basic_string@DU?$char_traits@D@std@@V?$allocator@D@2@@std@@$$Z$$V@?$pair@$$CBV?$basic_string@DU?$char_traits@D@std@@V?$allocator@D@2@@std@@PEAUggml_tensor@@@std@@QEAA@Upiecewise_construct_t@1@V?$tuple@$$QEAV?$basic_string@DU?$char_traits@D@std@@V?$allocator@D@2@@std@@@1@V?$tuple@$$V@1@@Z
	??$?0$$V@?$_Compressed_pair@V?$allocator@D@std@@V?$_String_val@U?$_Simple_types@D@std@@@2@$00@std@@QEAA@U_Zero_then_variadic_args_t@1@@Z
	??$?0$$V@?$_Compressed_pair@V?$allocator@D@std@@V?$_Vector_val@U?$_Simple_types@D@std@@@2@$00@std@@QEAA@U_Zero_then_variadic_args_t@1@@Z
	??$?0$$V@?$_Compressed_pair@V?$allocator@E@std@@V?$_Vector_val@U?$_Simple_types@E@std@@@2@$00@std@@QEAA@U_Zero_then_variadic_args_t@1@@Z
	??$?0$$V@?$_Compressed_pair@V?$allocator@H@std@@V?$_Vector_val@U?$_Simple_types@H@std@@@2@$00@std@@QEAA@U_Zero_then_variadic_args_t@1@@Z
	??$?0$$V@?$_Compressed_pair@V?$allocator@I@std@@V?$_Vector_val@U?$_Simple_types@I@std@@@2@$00@std@@QEAA@U_Zero_then_variadic_args_t@1@@Z
	??$?0$$V@?$_Compressed_pair@V?$allocator@M@std@@V?$_Vector_val@U?$_Simple_types@M@std@@@2@$00@std@@QEAA@U_Zero_then_variadic_args_t@1@@Z
	??$?0$$V@?$_Compressed_pair@V?$allocator@N@std@@V?$_Vector_val@U?$_Simple_types@N@std@@@2@$00@std@@QEAA@U_Zero_then_variadic_args_t@1@@Z
	??$?0$$V@?$_Compressed_pair@V?$allocator@PEAUggml_backend@@@std@@V?$_Vector_val@U?$_Simple_types@PEAUggml_backend@@@std@@@2@$00@std@@QEAA@U_Zero_then_variadic_args_t@1@@Z
	??$?0$$V@?$_Compressed_pair@V?$allocator@PEAUggml_backend_buffer@@@std@@V?$_Vector_val@U?$_Simple_types@PEAUggml_backend_buffer@@@std@@@2@$00@std@@QEAA@U_Zero_then_variadic_args_t@1@@Z
	??$?0$$V@?$_Compressed_pair@V?$allocator@PEAUggml_context@@@std@@V?$_Vector_val@U?$_Simple_types@PEAUggml_context@@@std@@@2@$00@std@@QEAA@U_Zero_then_variadic_args_t@1@@Z
	??$?0$$V@?$_Compressed_pair@V?$allocator@PEAUggml_tensor@@@std@@V?$_Vector_val@U?$_Simple_types@PEAUggml_tensor@@@std@@@2@$00@std@@QEAA@U_Zero_then_variadic_args_t@1@@Z
	??$?0$$V@?$_Compressed_pair@V?$allocator@PEAUwhisper_state@@@std@@V?$_Vector_val@U?$_Simple_types@PEAUwhisper_state@@@std@@@2@$00@std@@QEAA@U_Zero_then_variadic_args_t@1@@Z
	??$?0$$V@?$_Compressed_pair@V?$allocator@PEBUwhisper_grammar_element@@@std@@V?$_Vector_val@U?$_Simple_types@PEBUwhisper_grammar_element@@@std@@@2@$00@std@@QEAA@U_Zero_then_variadic_args_t@1@@Z
	??$?0$$V@?$_Compressed_pair@V?$allocator@U?$_Tree_node@HPEAX@std@@@std@@V?$_Tree_val@U?$_Tree_simple_types@H@std@@@2@$00@std@@QEAA@U_Zero_then_variadic_args_t@1@@Z
	??$?0$$V@?$_Compressed_pair@V?$allocator@U?$_Tree_node@U?$pair@$$CBHH@std@@PEAX@std@@@std@@V?$_Tree_val@U?$_Tree_simple_types@U?$pair@$$CBHH@std@@@std@@@2@$00@std@@QEAA@U_Zero_then_variadic_args_t@1@@Z
	??$?0$$V@?$_Compressed_pair@V?$allocator@U?$_Tree_node@U?$pair@$$CBHV?$basic_string@DU?$char_traits@D@std@@V?$allocator@D@2@@std@@@std@@PEAX@std@@@std@@V?$_Tree_val@U?$_Tree_simple_types@U?$pair@$$CBHV?$basic_string@DU?$char_traits@D@std@@V?$allocator@D@2@@std@@@std@@@std@@@2@$00@std@@QEAA@U_Zero_then_variadic_args_t@1@@Z
	??$?0$$V@?$_Compressed_pair@V?$allocator@U?$_Tree_node@U?$pair@$$CBV?$basic_string@DU?$char_traits@D@std@@V?$allocator@D@2@@std@@H@std@@PEAX@std@@@std@@V?$_Tree_val@U?$_Tree_simple_types@U?$pair@$$CBV?$basic_string@DU?$char_traits@D@std@@V?$allocator@D@2@@std@@H@std@@@std@@@2@$00@std@@QEAA@U_Zero_then_variadic_args_t@1@@Z
	??$?0$$V@?$_Compressed_pair@V?$allocator@U?$_Tree_node@U?$pair@$$CBV?$basic_string@DU?$char_traits@D@std@@V?$allocator@D@2@@std@@PEAUggml_tensor@@@std@@PEAX@std@@@std@@V?$_Tree_val@U?$_Tree_simple_types@U?$pair@$$CBV?$basic_string@DU?$char_traits@D@std@@V?$allocator@D@2@@std@@PEAUggml_tensor@@@std@@@std@@@2@$00@std@@QEAA@U_Zero_then_variadic_args_t@1@@Z
	??$?0$$V@?$_Compressed_pair@V?$allocator@U?$_Tree_node@U?$pair@$$CBV?$basic_string@DU?$char_traits@D@std@@V?$allocator@D@2@@std@@U?$pair@HV?$basic_string@DU?$char_traits@D@std@@V?$allocator@D@2@@std@@@2@@std@@PEAX@std@@@std@@V?$_Tree_val@U?$_Tree_simple_types@U?$pair@$$CBV?$basic_string@DU?$char_traits@D@std@@V?$allocator@D@2@@std@@U?$pair@HV?$basic_string@DU?$char_traits@D@std@@V?$allocator@D@2@@std@@@2@@std@@@std@@@2@$00@std@@QEAA@U_Zero_then_variadic_args_t@1@@Z
	??$?0$$V@?$_Compressed_pair@V?$allocator@U?$_Tree_node@U?$pair@$$CBW4asr_system@@V?$map@W4asr_tensor@@PEBDU?$less@W4asr_tensor@@@std@@V?$allocator@U?$pair@$$CBW4asr_tensor@@PEBD@std@@@3@@std@@@std@@PEAX@std@@@std@@V?$_Tree_val@U?$_Tree_simple_types@U?$pair@$$CBW4asr_system@@V?$map@W4asr_tensor@@PEBDU?$less@W4asr_tensor@@@std@@V?$allocator@U?$pair@$$CBW4asr_tensor@@PEBD@std@@@3@@std@@@std@@@std@@@2@$00@std@@QEAA@U_Zero_then_variadic_args_t@1@@Z
	??$?0$$V@?$_Compressed_pair@V?$allocator@U?$_Tree_node@U?$pair@$$CBW4asr_tensor@@PEBD@std@@PEAX@std@@@std@@V?$_Tree_val@U?$_Tree_simple_types@U?$pair@$$CBW4asr_tensor@@PEBD@std@@@std@@@2@$00@std@@QEAA@U_Zero_then_variadic_args_t@1@@Z
	??$?0$$V@?$_Compressed_pair@V?$allocator@U?$_Tree_node@U?$pair@$$CBW4asr_tensor@@W4ggml_op@@@std@@PEAX@std@@@std@@V?$_Tree_val@U?$_Tree_simple_types@U?$pair@$$CBW4asr_tensor@@W4ggml_op@@@std@@@std@@@2@$00@std@@QEAA@U_Zero_then_variadic_args_t@1@@Z
	??$?0$$V@?$_Compressed_pair@V?$allocator@U?$_Tree_node@U?$pair@$$CBW4e_model@@V?$basic_string@DU?$char_traits@D@std@@V?$allocator@D@2@@std@@@std@@PEAX@std@@@std@@V?$_Tree_val@U?$_Tree_simple_types@U?$pair@$$CBW4e_model@@V?$basic_string@DU?$char_traits@D@std@@V?$allocator@D@2@@std@@@std@@@std@@@2@$00@std@@QEAA@U_Zero_then_variadic_args_t@1@@Z
	??$?0$$V@?$_Compressed_pair@V?$allocator@U?$_Tree_node@U?$pair@$$CBW4vad_tensor@@PEBD@std@@PEAX@std@@@std@@V?$_Tree_val@U?$_Tree_simple_types@U?$pair@$$CBW4vad_tensor@@PEBD@std@@@std@@@2@$00@std@@QEAA@U_Zero_then_variadic_args_t@1@@Z
	??$?0$$V@?$_Compressed_pair@V?$allocator@U?$_Tree_node@U?$pair@$$CBW4vad_tensor@@W4ggml_op@@@std@@PEAX@std@@@std@@V?$_Tree_val@U?$_Tree_simple_types@U?$pair@$$CBW4vad_tensor@@W4ggml_op@@@std@@@std@@@2@$00@std@@QEAA@U_Zero_then_variadic_args_t@1@@Z
	??$?0$$V@?$_Compressed_pair@V?$allocator@U?$_Tree_node@U?$pair@$$CBW4whisper_alignment_heads_preset@@Uwhisper_aheads@@@std@@PEAX@std@@@std@@V?$_Tree_val@U?$_Tree_simple_types@U?$pair@$$CBW4whisper_alignment_heads_preset@@Uwhisper_aheads@@@std@@@std@@@2@$00@std@@QEAA@U_Zero_then_variadic_args_t@1@@Z
	??$?0$$V@?$_Compressed_pair@V?$allocator@U?$_Tree_node@U?$pair@QEAUggml_backend_buffer_type@@PEAUggml_context@@@std@@PEAX@std@@@std@@V?$_Tree_val@U?$_Tree_simple_types@U?$pair@QEAUggml_backend_buffer_type@@PEAUggml_context@@@std@@@std@@@2@$00@std@@QEAA@U_Zero_then_variadic_args_t@1@@Z
	??$?0$$V@?$_Compressed_pair@V?$allocator@U?$pair@PEAUggml_backend_device@@PEAUggml_backend_buffer_type@@@std@@@std@@V?$_Vector_val@U?$_Simple_types@U?$pair@PEAUggml_backend_device@@PEAUggml_backend_buffer_type@@@std@@@std@@@2@$00@std@@QEAA@U_Zero_then_variadic_args_t@1@@Z
	??$?0$$V@?$_Compressed_pair@V?$allocator@U?$pair@V?$vector@IV?$allocator@I@std@@@std@@Uwhisper_partial_utf8@@@std@@@std@@V?$_Vector_val@U?$_Simple_types@U?$pair@V?$vector@IV?$allocator@I@std@@@std@@Uwhisper_partial_utf8@@@std@@@std@@@2@$00@std@@QEAA@U_Zero_then_variadic_args_t@1@@Z
	??$?0$$V@?$_Compressed_pair@V?$allocator@U?$whisper_pair@NH@@@std@@V?$_Vector_val@U?$_Simple_types@U?$whisper_pair@NH@@@std@@@2@$00@std@@QEAA@U_Zero_then_variadic_args_t@1@@Z
	??$?0$$V@?$_Compressed_pair@V?$allocator@U_Grp_t@?$_Tgt_state_t@PEBD@std@@@std@@V?$_Vector_val@U?$_Simple_types@U_Grp_t@?$_Tgt_state_t@PEBD@std@@@std@@@2@$00@std@@QEAA@U_Zero_then_variadic_args_t@1@@Z
	??$?0$$V@?$_Compressed_pair@V?$allocator@U_Grp_t@?$_Tgt_state_t@V?$_String_const_iterator@V?$_String_val@U?$_Simple_types@D@std@@@std@@@std@@@std@@@std@@V?$_Vector_val@U?$_Simple_types@U_Grp_t@?$_Tgt_state_t@V?$_String_const_iterator@V?$_String_val@U?$_Simple_types@D@std@@@std@@@std@@@std@@@std@@@2@$00@std@@QEAA@U_Zero_then_variadic_args_t@1@@Z
	??$?0$$V@?$_Compressed_pair@V?$allocator@U_Loop_vals_v2_t@std@@@std@@V?$_Vector_val@U?$_Simple_types@U_Loop_vals_v2_t@std@@@std@@@2@$00@std@@QEAA@U_Zero_then_variadic_args_t@1@@Z
	??$?0$$V@?$_Compressed_pair@V?$allocator@Uvad_segment_info@whisper_state@@@std@@V?$_Vector_val@U?$_Simple_types@Uvad_segment_info@whisper_state@@@std@@@2@$00@std@@QEAA@U_Zero_then_variadic_args_t@1@@Z
	??$?0$$V@?$_Compressed_pair@V?$allocator@Uvad_time_mapping@@@std@@V?$_Vector_val@U?$_Simple_types@Uvad_time_mapping@@@std@@@2@$00@std@@QEAA@U_Zero_then_variadic_args_t@1@@Z
	??$?0$$V@?$_Compressed_pair@V?$allocator@Uwhisper_grammar_candidate@@@std@@V?$_Vector_val@U?$_Simple_types@Uwhisper_grammar_candidate@@@std@@@2@$00@std@@QEAA@U_Zero_then_variadic_args_t@1@@Z
	??$?0$$V@?$_Compressed_pair@V?$allocator@Uwhisper_grammar_element@@@std@@V?$_Vector_val@U?$_Simple_types@Uwhisper_grammar_element@@@std@@@2@$00@std@@QEAA@U_Zero_then_variadic_args_t@1@@Z
	??$?0$$V@?$_Compressed_pair@V?$allocator@Uwhisper_kv_cell@@@std@@V?$_Vector_val@U?$_Simple_types@Uwhisper_kv_cell@@@std@@@2@$00@std@@QEAA@U_Zero_then_variadic_args_t@1@@Z
	??$?0$$V@?$_Compressed_pair@V?$allocator@Uwhisper_layer_decoder@@@std@@V?$_Vector_val@U?$_Simple_types@Uwhisper_layer_decoder@@@std@@@2@$00@std@@QEAA@U_Zero_then_variadic_args_t@1@@Z
	??$?0$$V@?$_Compressed_pair@V?$allocator@Uwhisper_layer_encoder@@@std@@V?$_Vector_val@U?$_Simple_types@Uwhisper_layer_encoder@@@std@@@2@$00@std@@QEAA@U_Zero_then_variadic_args_t@1@@Z
	??$?0$$V@?$_Compressed_pair@V?$allocator@Uwhisper_segment@@@std@@V?$_Vector_val@U?$_Simple_types@Uwhisper_segment@@@std@@@2@$00@std@@QEAA@U_Zero_then_variadic_args_t@1@@Z
	??$?0$$V@?$_Compressed_pair@V?$allocator@Uwhisper_token_data@@@std@@V?$_Vector_val@U?$_Simple_types@Uwhisper_token_data@@@std@@@2@$00@std@@QEAA@U_Zero_then_variadic_args_t@1@@Z
	??$?0$$V@?$_Compressed_pair@V?$allocator@Uwhisper_vad_segment@@@std@@V?$_Vector_val@U?$_Simple_types@Uwhisper_vad_segment@@@std@@@2@$00@std@@QEAA@U_Zero_then_variadic_args_t@1@@Z
	??$?0$$V@?$_Compressed_pair@V?$allocator@V?$_Tgt_state_t@PEBD@std@@@std@@V?$_Vector_val@U?$_Simple_types@V?$_Tgt_state_t@PEBD@std@@@std@@@2@$00@std@@QEAA@U_Zero_then_variadic_args_t@1@@Z
	??$?0$$V@?$_Compressed_pair@V?$allocator@V?$_Tgt_state_t@V?$_String_const_iterator@V?$_String_val@U?$_Simple_types@D@std@@@std@@@std@@@std@@@std@@V?$_Vector_val@U?$_Simple_types@V?$_Tgt_state_t@V?$_String_const_iterator@V?$_String_val@U?$_Simple_types@D@std@@@std@@@std@@@std@@@std@@@2@$00@std@@QEAA@U_Zero_then_variadic_args_t@1@@Z
	??$?0$$V@?$_Compressed_pair@V?$allocator@V?$basic_string@DU?$char_traits@D@std@@V?$allocator@D@2@@std@@@std@@V?$_Vector_val@U?$_Simple_types@V?$basic_string@DU?$char_traits@D@std@@V?$allocator@D@2@@std@@@std@@@2@$00@std@@QEAA@U_Zero_then_variadic_args_t@1@@Z
	??$?0$$V@?$_Compressed_pair@V?$allocator@V?$sub_match@V?$_String_const_iterator@V?$_String_val@U?$_Simple_types@D@std@@@std@@@std@@@std@@@std@@V?$_Vector_val@U?$_Simple_types@V?$sub_match@V?$_String_const_iterator@V?$_String_val@U?$_Simple_types@D@std@@@std@@@std@@@std@@@std@@@2@$00@std@@QEAA@U_Zero_then_variadic_args_t@1@@Z
	??$?0$$V@?$_Compressed_pair@V?$allocator@V?$vector@PEBUwhisper_grammar_element@@V?$allocator@PEBUwhisper_grammar_element@@@std@@@std@@@std@@V?$_Vector_val@U?$_Simple_types@V?$vector@PEBUwhisper_grammar_element@@V?$allocator@PEBUwhisper_grammar_element@@@std@@@std@@@std@@@2@$00@std@@QEAA@U_Zero_then_variadic_args_t@1@@Z
	??$?0$$V@?$_Compressed_pair@V?$allocator@V?$vector@Uwhisper_grammar_element@@V?$allocator@Uwhisper_grammar_element@@@std@@@std@@@std@@V?$_Vector_val@U?$_Simple_types@V?$vector@Uwhisper_grammar_element@@V?$allocator@Uwhisper_grammar_element@@@std@@@std@@@std@@@2@$00@std@@QEAA@U_Zero_then_variadic_args_t@1@@Z
	??$?0$$V@?$_Compressed_pair@V?$allocator@_W@std@@V?$_String_val@U?$_Simple_types@_W@std@@@2@$00@std@@QEAA@U_Zero_then_variadic_args_t@1@@Z
	??$?0A6AHPEAUwhisper_context@@PEAUwhisper_state@@Uwhisper_full_params@@PEBMH@Z@?$_Tuple_val@P6AHPEAUwhisper_context@@PEAUwhisper_state@@Uwhisper_full_params@@PEBMH@Z@std@@QEAA@A6AHPEAUwhisper_context@@PEAUwhisper_state@@Uwhisper_full_params@@PEBMH@Z@Z
	??$?0A6AHPEAUwhisper_context@@PEAUwhisper_state@@Uwhisper_full_params@@PEBMH@ZAEAPEAU0@AEAPEAU1@U2@PEBMAEBH$0A@@?$tuple@P6AHPEAUwhisper_context@@PEAUwhisper_state@@Uwhisper_full_params@@PEBMH@ZPEAU1@PEAU2@U3@PEBMH@std@@QEAA@A6AHPEAUwhisper_context@@PEAUwhisper_state@@Uwhisper_full_params@@PEBMH@ZAEAPEAU2@AEAPEAU3@$$QEAU4@$$QEAPEBMAEBH@Z
	??$?0A6AHPEAUwhisper_context@@PEAUwhisper_state@@Uwhisper_full_params@@PEBMH@ZAEAPEAU0@AEAPEAU1@U2@PEBMAEBH$0A@@thread@std@@QEAA@A6AHPEAUwhisper_context@@PEAUwhisper_state@@Uwhisper_full_params@@PEBMH@ZAEAPEAU2@AEAPEAU3@$$QEAU4@$$QEAPEBMAEBH@Z
	??$?0A6AXHPEBMAEBV?$vector@MV?$allocator@M@std@@@std@@HHHHAEBUwhisper_filters@@AEAUwhisper_mel@@@Z@?$_Tuple_val@P6AXHPEBMAEBV?$vector@MV?$allocator@M@std@@@std@@HHHHAEBUwhisper_filters@@AEAUwhisper_mel@@@Z@std@@QEAA@A6AXHPEBMAEBV?$vector@MV?$allocator@M@std@@@1@HHHHAEBUwhisper_filters@@AEAUwhisper_mel@@@Z@Z
	??$?0A6AXHPEBMAEBV?$vector@MV?$allocator@M@std@@@std@@HHHHAEBUwhisper_filters@@AEAUwhisper_mel@@@ZHAEAPEBMV?$reference_wrapper@$$CBV?$vector@MV?$allocator@M@std@@@std@@@1@_JAEBHAEBHAEBHV?$reference_wrapper@$$CBUwhisper_filters@@@1@V?$reference_wrapper@Uwhisper_mel@@@1@$0A@@?$tuple@P6AXHPEBMAEBV?$vector@MV?$allocator@M@std@@@std@@HHHHAEBUwhisper_filters@@AEAUwhisper_mel@@@ZHPEBMV?$reference_wrapper@$$CBV?$vector@MV?$allocator@M@std@@@std@@@2@_JHHHV?$reference_wrapper@$$CBUwhisper_filters@@@2@V?$reference_wrapper@Uwhisper_mel@@@2@@std@@QEAA@A6AXHPEBMAEBV?$vector@MV?$allocator@M@std@@@1@HHHHAEBUwhisper_filters@@AEAUwhisper_mel@@@Z$$QEAHAEAPEBM$$QEAV?$reference_wrapper@$$CBV?$vector@MV?$allocator@M@std@@@std@@@1@$$QEA_JAEBH99$$QEAV?$reference_wrapper@$$CBUwhisper_filters@@@1@$$QEAV?$reference_wrapper@Uwhisper_mel@@@1@@Z
	??$?0A6AXHPEBMAEBV?$vector@MV?$allocator@M@std@@@std@@HHHHAEBUwhisper_filters@@AEAUwhisper_mel@@@ZHAEAPEBMV?$reference_wrapper@$$CBV?$vector@MV?$allocator@M@std@@@std@@@1@_JAEBHAEBHAEBHV?$reference_wrapper@$$CBUwhisper_filters@@@1@V?$reference_wrapper@Uwhisper_mel@@@1@$0A@@thread@std@@QEAA@A6AXHPEBMAEBV?$vector@MV?$allocator@M@std@@@1@HHHHAEBUwhisper_filters@@AEAUwhisper_mel@@@Z$$QEAHAEAPEBM$$QEAV?$reference_wrapper@$$CBV?$vector@MV?$allocator@M@std@@@std@@@1@$$QEA_JAEBH99$$QEAV?$reference_wrapper@$$CBUwhisper_filters@@@1@$$QEAV?$reference_wrapper@Uwhisper_mel@@@1@@Z
	??$?0AEAH@?$_Tuple_val@H@std@@QEAA@AEAH@Z
	??$?0AEAPEAMAEAPEAM$0A@@?$pair@PEAMPEAM@std@@QEAA@AEAPEAM0@Z
	??$?0AEAPEAU?$_Tree_node@HPEAX@std@@AEAPEAU01@$0A@@?$pair@PEAU?$_Tree_node@HPEAX@std@@PEAU12@@std@@QEAA@AEAPEAU?$_Tree_node@HPEAX@1@0@Z
	??$?0AEAPEAU?$_Tree_node@HPEAX@std@@_N$0A@@?$pair@PEAU?$_Tree_node@HPEAX@std@@_N@std@@QEAA@AEAPEAU?$_Tree_node@HPEAX@1@$$QEA_N@Z
	??$?0AEAPEAU?$whisper_pair@NH@@AEAPEAU0@$0A@@?$pair@PEAU?$whisper_pair@NH@@PEAU1@@std@@QEAA@AEAPEAU?$whisper_pair@NH@@0@Z
	??$?0AEAPEAUggml_backend@@@?$_Compressed_pair@Uggml_backend_deleter@@PEAUggml_backend@@$00@std@@QEAA@U_Zero_then_variadic_args_t@1@AEAPEAUggml_backend@@@Z
	??$?0AEAPEAUggml_backend_device@@AEAPEAUggml_backend_buffer_type@@$0A@@?$pair@PEAUggml_backend_device@@PEAUggml_backend_buffer_type@@@std@@QEAA@AEAPEAUggml_backend_device@@AEAPEAUggml_backend_buffer_type@@@Z
	??$?0AEAPEAUggml_backend_device@@PEAUggml_backend_buffer_type@@$0A@@?$pair@PEAUggml_backend_device@@PEAUggml_backend_buffer_type@@@std@@QEAA@AEAPEAUggml_backend_device@@$$QEAPEAUggml_backend_buffer_type@@@Z
	??$?0AEAPEAUggml_context@@@?$_Compressed_pair@Uggml_context_deleter@@PEAUggml_context@@$00@std@@QEAA@U_Zero_then_variadic_args_t@1@AEAPEAUggml_context@@@Z
	??$?0AEAPEAUvad_time_mapping@@AEAPEAU0@$0A@@?$pair@PEAUvad_time_mapping@@PEAU1@@std@@QEAA@AEAPEAUvad_time_mapping@@0@Z
	??$?0AEAPEAUwhisper_context@@@?$_Tuple_val@PEAUwhisper_context@@@std@@QEAA@AEAPEAUwhisper_context@@@Z
	??$?0AEAPEAUwhisper_state@@@?$_Tuple_val@PEAUwhisper_state@@@std@@QEAA@AEAPEAUwhisper_state@@@Z
	??$?0AEAPEAV?$tuple@P6AHPEAUwhisper_context@@PEAUwhisper_state@@Uwhisper_full_params@@PEBMH@ZPEAU1@PEAU2@U3@PEBMH@std@@@?$_Compressed_pair@U?$default_delete@V?$tuple@P6AHPEAUwhisper_context@@PEAUwhisper_state@@Uwhisper_full_params@@PEBMH@ZPEAU1@PEAU2@U3@PEBMH@std@@@std@@PEAV?$tuple@P6AHPEAUwhisper_context@@PEAUwhisper_state@@Uwhisper_full_params@@PEBMH@ZPEAU1@PEAU2@U3@PEBMH@2@$00@std@@QEAA@U_Zero_then_variadic_args_t@1@AEAPEAV?$tuple@P6AHPEAUwhisper_context@@PEAUwhisper_state@@Uwhisper_full_params@@PEBMH@ZPEAU1@PEAU2@U3@PEBMH@1@@Z
	??$?0AEAPEAV?$tuple@P6AXHPEBMAEBV?$vector@MV?$allocator@M@std@@@std@@HHHHAEBUwhisper_filters@@AEAUwhisper_mel@@@ZHPEBMV?$reference_wrapper@$$CBV?$vector@MV?$allocator@M@std@@@std@@@2@_JHHHV?$reference_wrapper@$$CBUwhisper_filters@@@2@V?$reference_wrapper@Uwhisper_mel@@@2@@std@@@?$_Compressed_pair@U?$default_delete@V?$tuple@P6AXHPEBMAEBV?$vector@MV?$allocator@M@std@@@std@@HHHHAEBUwhisper_filters@@AEAUwhisper_mel@@@ZHPEBMV?$reference_wrapper@$$CBV?$vector@MV?$allocator@M@std@@@std@@@2@_JHHHV?$reference_wrapper@$$CBUwhisper_filters@@@2@V?$reference_wrapper@Uwhisper_mel@@@2@@std@@@std@@PEAV?$tuple@P6AXHPEBMAEBV?$vector@MV?$allocator@M@std@@@std@@HHHHAEBUwhisper_filters@@AEAUwhisper_mel@@@ZHPEBMV?$reference_wrapper@$$CBV?$vector@MV?$allocator@M@std@@@std@@@2@_JHHHV?$reference_wrapper@$$CBUwhisper_filters@@@2@V?$reference_wrapper@Uwhisper_mel@@@2@@2@$00@std@@QEAA@U_Zero_then_variadic_args_t@1@AEAPEAV?$tuple@P6AXHPEBMAEBV?$vector@MV?$allocator@M@std@@@std@@HHHHAEBUwhisper_filters@@AEAUwhisper_mel@@@ZHPEBMV?$reference_wrapper@$$CBV?$vector@MV?$allocator@M@std@@@std@@@2@_JHHHV?$reference_wrapper@$$CBUwhisper_filters@@@2@V?$reference_wrapper@Uwhisper_mel@@@2@@1@@Z
	??$?0AEAPEAV_Facet_base@std@@@?$_Compressed_pair@U?$default_delete@V_Facet_base@std@@@std@@PEAV_Facet_base@2@$00@std@@QEAA@U_Zero_then_variadic_args_t@1@AEAPEAV_Facet_base@1@@Z
	??$?0AEAPEAV_Node_assert@std@@@?$_Compressed_pair@U?$default_delete@V_Node_assert@std@@@std@@PEAV_Node_assert@2@$00@std@@QEAA@U_Zero_then_variadic_args_t@1@AEAPEAV_Node_assert@1@@Z
	??$?0AEAPEBM@?$_Tuple_val@PEBM@std@@QEAA@AEAPEBM@Z
	??$?0AEAUwhisper_mel@@$0A@@?$reference_wrapper@Uwhisper_mel@@@std@@QEAA@AEAUwhisper_mel@@@Z
	??$?0AEAV?$allocator@D@std@@$$V@?$_Compressed_pair@V?$allocator@D@std@@V?$_String_val@U?$_Simple_types@D@std@@@2@$00@std@@QEAA@U_One_then_variadic_args_t@1@AEAV?$allocator@D@1@@Z
	??$?0AEBH$$Z$$V@?$pair@$$CBHH@std@@QEAA@Upiecewise_construct_t@1@V?$tuple@AEBH@1@V?$tuple@$$V@1@@Z
	??$?0AEBH$$Z$$V@?$pair@$$CBHV?$basic_string@DU?$char_traits@D@std@@V?$allocator@D@2@@std@@@std@@QEAA@Upiecewise_construct_t@1@V?$tuple@AEBH@1@V?$tuple@$$V@1@@Z
	??$?0AEBH$0A@@?$tuple@AEBH@std@@QEAA@AEBH@Z
	??$?0AEBH@?$_Tree_temp_node@V?$allocator@U?$_Tree_node@HPEAX@std@@@std@@@std@@QEAA@AEAV?$allocator@U?$_Tree_node@HPEAX@std@@@1@PEAU?$_Tree_node@HPEAX@1@AEBH@Z
	??$?0AEBH@?$_Tuple_val@AEBH@std@@QEAA@AEBH@Z
	??$?0AEBH@?$_Tuple_val@H@std@@QEAA@AEBH@Z
	??$?0AEBQEAU?$_Tree_node@U?$pair@$$CBHH@std@@PEAX@std@@_N$0A@@?$pair@PEAU?$_Tree_node@U?$pair@$$CBHH@std@@PEAX@std@@_N@std@@QEAA@AEBQEAU?$_Tree_node@U?$pair@$$CBHH@std@@PEAX@1@$$QEA_N@Z
	??$?0AEBQEAU?$_Tree_node@U?$pair@$$CBHV?$basic_string@DU?$char_traits@D@std@@V?$allocator@D@2@@std@@@std@@PEAX@std@@_N$0A@@?$pair@PEAU?$_Tree_node@U?$pair@$$CBHV?$basic_string@DU?$char_traits@D@std@@V?$allocator@D@2@@std@@@std@@PEAX@std@@_N@std@@QEAA@AEBQEAU?$_Tree_node@U?$pair@$$CBHV?$basic_string@DU?$char_traits@D@std@@V?$allocator@D@2@@std@@@std@@PEAX@1@$$QEA_N@Z
	??$?0AEBQEAU?$_Tree_node@U?$pair@$$CBV?$basic_string@DU?$char_traits@D@std@@V?$allocator@D@2@@std@@H@std@@PEAX@std@@_N$0A@@?$pair@PEAU?$_Tree_node@U?$pair@$$CBV?$basic_string@DU?$char_traits@D@std@@V?$allocator@D@2@@std@@H@std@@PEAX@std@@_N@std@@QEAA@AEBQEAU?$_Tree_node@U?$pair@$$CBV?$basic_string@DU?$char_traits@D@std@@V?$allocator@D@2@@std@@H@std@@PEAX@1@$$QEA_N@Z
	??$?0AEBQEAU?$_Tree_node@U?$pair@$$CBV?$basic_string@DU?$char_traits@D@std@@V?$allocator@D@2@@std@@PEAUggml_tensor@@@std@@PEAX@std@@_N$0A@@?$pair@PEAU?$_Tree_node@U?$pair@$$CBV?$basic_string@DU?$char_traits@D@std@@V?$allocator@D@2@@std@@PEAUggml_tensor@@@std@@PEAX@std@@_N@std@@QEAA@AEBQEAU?$_Tree_node@U?$pair@$$CBV?$basic_string@DU?$char_traits@D@std@@V?$allocator@D@2@@std@@PEAUggml_tensor@@@std@@PEAX@1@$$QEA_N@Z
	??$?0AEBQEAU?$_Tree_node@U?$pair@QEAUggml_backend_buffer_type@@PEAUggml_context@@@std@@PEAX@std@@_N$0A@@?$pair@PEAU?$_Tree_node@U?$pair@QEAUggml_backend_buffer_type@@PEAUggml_context@@@std@@PEAX@std@@_N@std@@QEAA@AEBQEAU?$_Tree_node@U?$pair@QEAUggml_backend_buffer_type@@PEAUggml_context@@@std@@PEAX@1@$$QEA_N@Z
	??$?0AEBQEAUggml_backend_buffer_type@@$$Z$$V@?$pair@QEAUggml_backend_buffer_type@@PEAUggml_context@@@std@@QEAA@Upiecewise_construct_t@1@V?$tuple@AEBQEAUggml_backend_buffer_type@@@1@V?$tuple@$$V@1@@Z
	??$?0AEBQEAUggml_backend_buffer_type@@$0A@@?$tuple@AEBQEAUggml_backend_buffer_type@@@std@@QEAA@AEBQEAUggml_backend_buffer_type@@@Z
	??$?0AEBQEAUggml_backend_buffer_type@@@?$_Tuple_val@AEBQEAUggml_backend_buffer_type@@@std@@QEAA@AEBQEAUggml_backend_buffer_type@@@Z
	??$?0AEBU?$less@H@std@@U_Zero_then_variadic_args_t@1@@?$_Compressed_pair@U?$less@H@std@@V?$_Compressed_pair@V?$allocator@U?$_Tree_node@HPEAX@std@@@std@@V?$_Tree_val@U?$_Tree_simple_types@H@std@@@2@$00@2@$00@std@@QEAA@U_One_then_variadic_args_t@1@AEBU?$less@H@1@$$QEAU_Zero_then_variadic_args_t@1@@Z
	??$?0AEBU?$less@H@std@@U_Zero_then_variadic_args_t@1@@?$_Compressed_pair@U?$less@H@std@@V?$_Compressed_pair@V?$allocator@U?$_Tree_node@U?$pair@$$CBHH@std@@PEAX@std@@@std@@V?$_Tree_val@U?$_Tree_simple_types@U?$pair@$$CBHH@std@@@std@@@2@$00@2@$00@std@@QEAA@U_One_then_variadic_args_t@1@AEBU?$less@H@1@$$QEAU_Zero_then_variadic_args_t@1@@Z
	??$?0AEBU?$less@H@std@@U_Zero_then_variadic_args_t@1@@?$_Compressed_pair@U?$less@H@std@@V?$_Compressed_pair@V?$allocator@U?$_Tree_node@U?$pair@$$CBHV?$basic_string@DU?$char_traits@D@std@@V?$allocator@D@2@@std@@@std@@PEAX@std@@@std@@V?$_Tree_val@U?$_Tree_simple_types@U?$pair@$$CBHV?$basic_string@DU?$char_traits@D@std@@V?$allocator@D@2@@std@@@std@@@std@@@2@$00@2@$00@std@@QEAA@U_One_then_variadic_args_t@1@AEBU?$less@H@1@$$QEAU_Zero_then_variadic_args_t@1@@Z
	??$?0AEBU?$less@PEAUggml_backend_buffer_type@@@std@@U_Zero_then_variadic_args_t@1@@?$_Compressed_pair@U?$less@PEAUggml_backend_buffer_type@@@std@@V?$_Compressed_pair@V?$allocator@U?$_Tree_node@U?$pair@QEAUggml_backend_buffer_type@@PEAUggml_context@@@std@@PEAX@std@@@std@@V?$_Tree_val@U?$_Tree_simple_types@U?$pair@QEAUggml_backend_buffer_type@@PEAUggml_context@@@std@@@std@@@2@$00@2@$00@std@@QEAA@U_One_then_variadic_args_t@1@AEBU?$less@PEAUggml_backend_buffer_type@@@1@$$QEAU_Zero_then_variadic_args_t@1@@Z
	??$?0AEBU?$less@V?$basic_string@DU?$char_traits@D@std@@V?$allocator@D@2@@std@@@std@@U_Zero_then_variadic_args_t@1@@?$_Compressed_pair@U?$less@V?$basic_string@DU?$char_traits@D@std@@V?$allocator@D@2@@std@@@std@@V?$_Compressed_pair@V?$allocator@U?$_Tree_node@U?$pair@$$CBV?$basic_string@DU?$char_traits@D@std@@V?$allocator@D@2@@std@@H@std@@PEAX@std@@@std@@V?$_Tree_val@U?$_Tree_simple_types@U?$pair@$$CBV?$basic_string@DU?$char_traits@D@std@@V?$allocator@D@2@@std@@H@std@@@std@@@2@$00@2@$00@std@@QEAA@U_One_then_variadic_args_t@1@AEBU?$less@V?$basic_string@DU?$char_traits@D@std@@V?$allocator@D@2@@std@@@1@$$QEAU_Zero_then_variadic_args_t@1@@Z
	??$?0AEBU?$less@V?$basic_string@DU?$char_traits@D@std@@V?$allocator@D@2@@std@@@std@@U_Zero_then_variadic_args_t@1@@?$_Compressed_pair@U?$less@V?$basic_string@DU?$char_traits@D@std@@V?$allocator@D@2@@std@@@std@@V?$_Compressed_pair@V?$allocator@U?$_Tree_node@U?$pair@$$CBV?$basic_string@DU?$char_traits@D@std@@V?$allocator@D@2@@std@@PEAUggml_tensor@@@std@@PEAX@std@@@std@@V?$_Tree_val@U?$_Tree_simple_types@U?$pair@$$CBV?$basic_string@DU?$char_traits@D@std@@V?$allocator@D@2@@std@@PEAUggml_tensor@@@std@@@std@@@2@$00@2@$00@std@@QEAA@U_One_then_variadic_args_t@1@AEBU?$less@V?$basic_string@DU?$char_traits@D@std@@V?$allocator@D@2@@std@@@1@$$QEAU_Zero_then_variadic_args_t@1@@Z
	??$?0AEBU?$less@V?$basic_string@DU?$char_traits@D@std@@V?$allocator@D@2@@std@@@std@@U_Zero_then_variadic_args_t@1@@?$_Compressed_pair@U?$less@V?$basic_string@DU?$char_traits@D@std@@V?$allocator@D@2@@std@@@std@@V?$_Compressed_pair@V?$allocator@U?$_Tree_node@U?$pair@$$CBV?$basic_string@DU?$char_traits@D@std@@V?$allocator@D@2@@std@@U?$pair@HV?$basic_string@DU?$char_traits@D@std@@V?$allocator@D@2@@std@@@2@@std@@PEAX@std@@@std@@V?$_Tree_val@U?$_Tree_simple_types@U?$pair@$$CBV?$basic_string@DU?$char_traits@D@std@@V?$allocator@D@2@@std@@U?$pair@HV?$basic_string@DU?$char_traits@D@std@@V?$allocator@D@2@@std@@@2@@std@@@std@@@2@$00@2@$00@std@@QEAA@U_One_then_variadic_args_t@1@AEBU?$less@V?$basic_string@DU?$char_traits@D@std@@V?$allocator@D@2@@std@@@1@$$QEAU_Zero_then_variadic_args_t@1@@Z
	??$?0AEBU?$less@W4asr_system@@@std@@U_Zero_then_variadic_args_t@1@@?$_Compressed_pair@U?$less@W4asr_system@@@std@@V?$_Compressed_pair@V?$allocator@U?$_Tree_node@U?$pair@$$CBW4asr_system@@V?$map@W4asr_tensor@@PEBDU?$less@W4asr_tensor@@@std@@V?$allocator@U?$pair@$$CBW4asr_tensor@@PEBD@std@@@3@@std@@@std@@PEAX@std@@@std@@V?$_Tree_val@U?$_Tree_simple_types@U?$pair@$$CBW4asr_system@@V?$map@W4asr_tensor@@PEBDU?$less@W4asr_tensor@@@std@@V?$allocator@U?$pair@$$CBW4asr_tensor@@PEBD@std@@@3@@std@@@std@@@std@@@2@$00@2@$00@std@@QEAA@U_One_then_variadic_args_t@1@AEBU?$less@W4asr_system@@@1@$$QEAU_Zero_then_variadic_args_t@1@@Z
	??$?0AEBU?$less@W4asr_tensor@@@std@@U_Zero_then_variadic_args_t@1@@?$_Compressed_pair@U?$less@W4asr_tensor@@@std@@V?$_Compressed_pair@V?$allocator@U?$_Tree_node@U?$pair@$$CBW4asr_tensor@@PEBD@std@@PEAX@std@@@std@@V?$_Tree_val@U?$_Tree_simple_types@U?$pair@$$CBW4asr_tensor@@PEBD@std@@@std@@@2@$00@2@$00@std@@QEAA@U_One_then_variadic_args_t@1@AEBU?$less@W4asr_tensor@@@1@$$QEAU_Zero_then_variadic_args_t@1@@Z
	??$?0AEBU?$less@W4asr_tensor@@@std@@U_Zero_then_variadic_args_t@1@@?$_Compressed_pair@U?$less@W4asr_tensor@@@std@@V?$_Compressed_pair@V?$allocator@U?$_Tree_node@U?$pair@$$CBW4asr_tensor@@W4ggml_op@@@std@@PEAX@std@@@std@@V?$_Tree_val@U?$_Tree_simple_types@U?$pair@$$CBW4asr_tensor@@W4ggml_op@@@std@@@std@@@2@$00@2@$00@std@@QEAA@U_One_then_variadic_args_t@1@AEBU?$less@W4asr_tensor@@@1@$$QEAU_Zero_then_variadic_args_t@1@@Z
	??$?0AEBU?$less@W4e_model@@@std@@U_Zero_then_variadic_args_t@1@@?$_Compressed_pair@U?$less@W4e_model@@@std@@V?$_Compressed_pair@V?$allocator@U?$_Tree_node@U?$pair@$$CBW4e_model@@V?$basic_string@DU?$char_traits@D@std@@V?$allocator@D@2@@std@@@std@@PEAX@std@@@std@@V?$_Tree_val@U?$_Tree_simple_types@U?$pair@$$CBW4e_model@@V?$basic_string@DU?$char_traits@D@std@@V?$allocator@D@2@@std@@@std@@@std@@@2@$00@2@$00@std@@QEAA@U_One_then_variadic_args_t@1@AEBU?$less@W4e_model@@@1@$$QEAU_Zero_then_variadic_args_t@1@@Z
	??$?0AEBU?$less@W4vad_tensor@@@std@@U_Zero_then_variadic_args_t@1@@?$_Compressed_pair@U?$less@W4vad_tensor@@@std@@V?$_Compressed_pair@V?$allocator@U?$_Tree_node@U?$pair@$$CBW4vad_tensor@@PEBD@std@@PEAX@std@@@std@@V?$_Tree_val@U?$_Tree_simple_types@U?$pair@$$CBW4vad_tensor@@PEBD@std@@@std@@@2@$00@2@$00@std@@QEAA@U_One_then_variadic_args_t@1@AEBU?$less@W4vad_tensor@@@1@$$QEAU_Zero_then_variadic_args_t@1@@Z
	??$?0AEBU?$less@W4vad_tensor@@@std@@U_Zero_then_variadic_args_t@1@@?$_Compressed_pair@U?$less@W4vad_tensor@@@std@@V?$_Compressed_pair@V?$allocator@U?$_Tree_node@U?$pair@$$CBW4vad_tensor@@W4ggml_op@@@std@@PEAX@std@@@std@@V?$_Tree_val@U?$_Tree_simple_types@U?$pair@$$CBW4vad_tensor@@W4ggml_op@@@std@@@std@@@2@$00@2@$00@std@@QEAA@U_One_then_variadic_args_t@1@AEBU?$less@W4vad_tensor@@@1@$$QEAU_Zero_then_variadic_args_t@1@@Z
	??$?0AEBU?$less@W4whisper_alignment_heads_preset@@@std@@U_Zero_then_variadic_args_t@1@@?$_Compressed_pair@U?$less@W4whisper_alignment_heads_preset@@@std@@V?$_Compressed_pair@V?$allocator@U?$_Tree_node@U?$pair@$$CBW4whisper_alignment_heads_preset@@Uwhisper_aheads@@@std@@PEAX@std@@@std@@V?$_Tree_val@U?$_Tree_simple_types@U?$pair@$$CBW4whisper_alignment_heads_preset@@Uwhisper_aheads@@@std@@@std@@@2@$00@2@$00@std@@QEAA@U_One_then_variadic_args_t@1@AEBU?$less@W4whisper_alignment_heads_preset@@@1@$$QEAU_Zero_then_variadic_args_t@1@@Z
	??$?0AEBU?$pair@$$CBV?$basic_string@DU?$char_traits@D@std@@V?$allocator@D@2@@std@@U?$pair@HV?$basic_string@DU?$char_traits@D@std@@V?$allocator@D@2@@std@@@2@@std@@@?$_Tree_temp_node@V?$allocator@U?$_Tree_node@U?$pair@$$CBV?$basic_string@DU?$char_traits@D@std@@V?$allocator@D@2@@std@@U?$pair@HV?$basic_string@DU?$char_traits@D@std@@V?$allocator@D@2@@std@@@2@@std@@PEAX@std@@@std@@@std@@QEAA@AEAV?$allocator@U?$_Tree_node@U?$pair@$$CBV?$basic_string@DU?$char_traits@D@std@@V?$allocator@D@2@@std@@U?$pair@HV?$basic_string@DU?$char_traits@D@std@@V?$allocator@D@2@@std@@@2@@std@@PEAX@std@@@1@PEAU?$_Tree_node@U?$pair@$$CBV?$basic_string@DU?$char_traits@D@std@@V?$allocator@D@2@@std@@U?$pair@HV?$basic_string@DU?$char_traits@D@std@@V?$allocator@D@2@@std@@@2@@std@@PEAX@1@AEBU?$pair@$$CBV?$basic_string@DU?$char_traits@D@std@@V?$allocator@D@2@@std@@U?$pair@HV?$basic_string@DU?$char_traits@D@std@@V?$allocator@D@2@@std@@@2@@1@@Z
	??$?0AEBU?$pair@$$CBW4asr_system@@V?$map@W4asr_tensor@@PEBDU?$less@W4asr_tensor@@@std@@V?$allocator@U?$pair@$$CBW4asr_tensor@@PEBD@std@@@3@@std@@@std@@@?$_Tree_temp_node@V?$allocator@U?$_Tree_node@U?$pair@$$CBW4asr_system@@V?$map@W4asr_tensor@@PEBDU?$less@W4asr_tensor@@@std@@V?$allocator@U?$pair@$$CBW4asr_tensor@@PEBD@std@@@3@@std@@@std@@PEAX@std@@@std@@@std@@QEAA@AEAV?$allocator@U?$_Tree_node@U?$pair@$$CBW4asr_system@@V?$map@W4asr_tensor@@PEBDU?$less@W4asr_tensor@@@std@@V?$allocator@U?$pair@$$CBW4asr_tensor@@PEBD@std@@@3@@std@@@std@@PEAX@std@@@1@PEAU?$_Tree_node@U?$pair@$$CBW4asr_system@@V?$map@W4asr_tensor@@PEBDU?$less@W4asr_tensor@@@std@@V?$allocator@U?$pair@$$CBW4asr_tensor@@PEBD@std@@@3@@std@@@std@@PEAX@1@AEBU?$pair@$$CBW4asr_system@@V?$map@W4asr_tensor@@PEBDU?$less@W4asr_tensor@@@std@@V?$allocator@U?$pair@$$CBW4asr_tensor@@PEBD@std@@@3@@std@@@1@@Z
	??$?0AEBU?$pair@$$CBW4asr_tensor@@PEBD@std@@@?$_Tree_temp_node@V?$allocator@U?$_Tree_node@U?$pair@$$CBW4asr_tensor@@PEBD@std@@PEAX@std@@@std@@@std@@QEAA@AEAV?$allocator@U?$_Tree_node@U?$pair@$$CBW4asr_tensor@@PEBD@std@@PEAX@std@@@1@PEAU?$_Tree_node@U?$pair@$$CBW4asr_tensor@@PEBD@std@@PEAX@1@AEBU?$pair@$$CBW4asr_tensor@@PEBD@1@@Z
	??$?0AEBU?$pair@$$CBW4asr_tensor@@W4ggml_op@@@std@@@?$_Tree_temp_node@V?$allocator@U?$_Tree_node@U?$pair@$$CBW4asr_tensor@@W4ggml_op@@@std@@PEAX@std@@@std@@@std@@QEAA@AEAV?$allocator@U?$_Tree_node@U?$pair@$$CBW4asr_tensor@@W4ggml_op@@@std@@PEAX@std@@@1@PEAU?$_Tree_node@U?$pair@$$CBW4asr_tensor@@W4ggml_op@@@std@@PEAX@1@AEBU?$pair@$$CBW4asr_tensor@@W4ggml_op@@@1@@Z
	??$?0AEBU?$pair@$$CBW4e_model@@V?$basic_string@DU?$char_traits@D@std@@V?$allocator@D@2@@std@@@std@@@?$_Tree_temp_node@V?$allocator@U?$_Tree_node@U?$pair@$$CBW4e_model@@V?$basic_string@DU?$char_traits@D@std@@V?$allocator@D@2@@std@@@std@@PEAX@std@@@std@@@std@@QEAA@AEAV?$allocator@U?$_Tree_node@U?$pair@$$CBW4e_model@@V?$basic_string@DU?$char_traits@D@std@@V?$allocator@D@2@@std@@@std@@PEAX@std@@@1@PEAU?$_Tree_node@U?$pair@$$CBW4e_model@@V?$basic_string@DU?$char_traits@D@std@@V?$allocator@D@2@@std@@@std@@PEAX@1@AEBU?$pair@$$CBW4e_model@@V?$basic_string@DU?$char_traits@D@std@@V?$allocator@D@2@@std@@@1@@Z
	??$?0AEBU?$pair@$$CBW4vad_tensor@@PEBD@std@@@?$_Tree_temp_node@V?$allocator@U?$_Tree_node@U?$pair@$$CBW4vad_tensor@@PEBD@std@@PEAX@std@@@std@@@std@@QEAA@AEAV?$allocator@U?$_Tree_node@U?$pair@$$CBW4vad_tensor@@PEBD@std@@PEAX@std@@@1@PEAU?$_Tree_node@U?$pair@$$CBW4vad_tensor@@PEBD@std@@PEAX@1@AEBU?$pair@$$CBW4vad_tensor@@PEBD@1@@Z
	??$?0AEBU?$pair@$$CBW4vad_tensor@@W4ggml_op@@@std@@@?$_Tree_temp_node@V?$allocator@U?$_Tree_node@U?$pair@$$CBW4vad_tensor@@W4ggml_op@@@std@@PEAX@std@@@std@@@std@@QEAA@AEAV?$allocator@U?$_Tree_node@U?$pair@$$CBW4vad_tensor@@W4ggml_op@@@std@@PEAX@std@@@1@PEAU?$_Tree_node@U?$pair@$$CBW4vad_tensor@@W4ggml_op@@@std@@PEAX@1@AEBU?$pair@$$CBW4vad_tensor@@W4ggml_op@@@1@@Z
	??$?0AEBU?$pair@$$CBW4whisper_alignment_heads_preset@@Uwhisper_aheads@@@std@@@?$_Tree_temp_node@V?$allocator@U?$_Tree_node@U?$pair@$$CBW4whisper_alignment_heads_preset@@Uwhisper_aheads@@@std@@PEAX@std@@@std@@@std@@QEAA@AEAV?$allocator@U?$_Tree_node@U?$pair@$$CBW4whisper_alignment_heads_preset@@Uwhisper_aheads@@@std@@PEAX@std@@@1@PEAU?$_Tree_node@U?$pair@$$CBW4whisper_alignment_heads_preset@@Uwhisper_aheads@@@std@@PEAX@1@AEBU?$pair@$$CBW4whisper_alignment_heads_preset@@Uwhisper_aheads@@@1@@Z
	??$?0AEBUpiecewise_construct_t@std@@V?$tuple@$$QEAV?$basic_string@DU?$char_traits@D@std@@V?$allocator@D@2@@std@@@1@V?$tuple@$$V@1@@?$_Tree_temp_node@V?$allocator@U?$_Tree_node@U?$pair@$$CBV?$basic_string@DU?$char_traits@D@std@@V?$allocator@D@2@@std@@PEAUggml_tensor@@@std@@PEAX@std@@@std@@@std@@QEAA@AEAV?$allocator@U?$_Tree_node@U?$pair@$$CBV?$basic_string@DU?$char_traits@D@std@@V?$allocator@D@2@@std@@PEAUggml_tensor@@@std@@PEAX@std@@@1@PEAU?$_Tree_node@U?$pair@$$CBV?$basic_string@DU?$char_traits@D@std@@V?$allocator@D@2@@std@@PEAUggml_tensor@@@std@@PEAX@1@AEBUpiecewise_construct_t@1@$$QEAV?$tuple@$$QEAV?$basic_string@DU?$char_traits@D@std@@V?$allocator@D@2@@std@@@1@$$QEAV?$tuple@$$V@1@@Z
	??$?0AEBUpiecewise_construct_t@std@@V?$tuple@AEBH@1@V?$tuple@$$V@1@@?$_Tree_temp_node@V?$allocator@U?$_Tree_node@U?$pair@$$CBHH@std@@PEAX@std@@@std@@@std@@QEAA@AEAV?$allocator@U?$_Tree_node@U?$pair@$$CBHH@std@@PEAX@std@@@1@PEAU?$_Tree_node@U?$pair@$$CBHH@std@@PEAX@1@AEBUpiecewise_construct_t@1@$$QEAV?$tuple@AEBH@1@$$QEAV?$tuple@$$V@1@@Z
	??$?0AEBUpiecewise_construct_t@std@@V?$tuple@AEBH@1@V?$tuple@$$V@1@@?$_Tree_temp_node@V?$allocator@U?$_Tree_node@U?$pair@$$CBHV?$basic_string@DU?$char_traits@D@std@@V?$allocator@D@2@@std@@@std@@PEAX@std@@@std@@@std@@QEAA@AEAV?$allocator@U?$_Tree_node@U?$pair@$$CBHV?$basic_string@DU?$char_traits@D@std@@V?$allocator@D@2@@std@@@std@@PEAX@std@@@1@PEAU?$_Tree_node@U?$pair@$$CBHV?$basic_string@DU?$char_traits@D@std@@V?$allocator@D@2@@std@@@std@@PEAX@1@AEBUpiecewise_construct_t@1@$$QEAV?$tuple@AEBH@1@$$QEAV?$tuple@$$V@1@@Z
	??$?0AEBUpiecewise_construct_t@std@@V?$tuple@AEBQEAUggml_backend_buffer_type@@@1@V?$tuple@$$V@1@@?$_Tree_temp_node@V?$allocator@U?$_Tree_node@U?$pair@QEAUggml_backend_buffer_type@@PEAUggml_context@@@std@@PEAX@std@@@std@@@std@@QEAA@AEAV?$allocator@U?$_Tree_node@U?$pair@QEAUggml_backend_buffer_type@@PEAUggml_context@@@std@@PEAX@std@@@1@PEAU?$_Tree_node@U?$pair@QEAUggml_backend_buffer_type@@PEAUggml_context@@@std@@PEAX@1@AEBUpiecewise_construct_t@1@$$QEAV?$tuple@AEBQEAUggml_backend_buffer_type@@@1@$$QEAV?$tuple@$$V@1@@Z
	??$?0AEBUpiecewise_construct_t@std@@V?$tuple@AEBV?$basic_string@DU?$char_traits@D@std@@V?$allocator@D@2@@std@@@1@V?$tuple@$$V@1@@?$_Tree_temp_node@V?$allocator@U?$_Tree_node@U?$pair@$$CBV?$basic_string@DU?$char_traits@D@std@@V?$allocator@D@2@@std@@H@std@@PEAX@std@@@std@@@std@@QEAA@AEAV?$allocator@U?$_Tree_node@U?$pair@$$CBV?$basic_string@DU?$char_traits@D@std@@V?$allocator@D@2@@std@@H@std@@PEAX@std@@@1@PEAU?$_Tree_node@U?$pair@$$CBV?$basic_string@DU?$char_traits@D@std@@V?$allocator@D@2@@std@@H@std@@PEAX@1@AEBUpiecewise_construct_t@1@$$QEAV?$tuple@AEBV?$basic_string@DU?$char_traits@D@std@@V?$allocator@D@2@@std@@@1@$$QEAV?$tuple@$$V@1@@Z
	??$?0AEBUwhisper_filters@@$0A@@?$reference_wrapper@$$CBUwhisper_filters@@@std@@QEAA@AEBUwhisper_filters@@@Z
	??$?0AEBV?$allocator@D@std@@$$V@?$_Compressed_pair@V?$allocator@D@std@@V?$_String_val@U?$_Simple_types@D@std@@@2@$00@std@@QEAA@U_One_then_variadic_args_t@1@AEBV?$allocator@D@1@@Z
	??$?0AEBV?$allocator@D@std@@$$V@?$_Compressed_pair@V?$allocator@D@std@@V?$_Vector_val@U?$_Simple_types@D@std@@@2@$00@std@@QEAA@U_One_then_variadic_args_t@1@AEBV?$allocator@D@1@@Z
	??$?0AEBV?$allocator@E@std@@$$V@?$_Compressed_pair@V?$allocator@E@std@@V?$_Vector_val@U?$_Simple_types@E@std@@@2@$00@std@@QEAA@U_One_then_variadic_args_t@1@AEBV?$allocator@E@1@@Z
	??$?0AEBV?$allocator@H@std@@$$V@?$_Compressed_pair@V?$allocator@H@std@@V?$_Vector_val@U?$_Simple_types@H@std@@@2@$00@std@@QEAA@U_One_then_variadic_args_t@1@AEBV?$allocator@H@1@@Z
	??$?0AEBV?$allocator@I@std@@$$V@?$_Compressed_pair@V?$allocator@I@std@@V?$_Vector_val@U?$_Simple_types@I@std@@@2@$00@std@@QEAA@U_One_then_variadic_args_t@1@AEBV?$allocator@I@1@@Z
	??$?0AEBV?$allocator@M@std@@$$V@?$_Compressed_pair@V?$allocator@M@std@@V?$_Vector_val@U?$_Simple_types@M@std@@@2@$00@std@@QEAA@U_One_then_variadic_args_t@1@AEBV?$allocator@M@1@@Z
	??$?0AEBV?$allocator@N@std@@$$V@?$_Compressed_pair@V?$allocator@N@std@@V?$_Vector_val@U?$_Simple_types@N@std@@@2@$00@std@@QEAA@U_One_then_variadic_args_t@1@AEBV?$allocator@N@1@@Z
	??$?0AEBV?$allocator@PEBUwhisper_grammar_element@@@std@@$$V@?$_Compressed_pair@V?$allocator@PEBUwhisper_grammar_element@@@std@@V?$_Vector_val@U?$_Simple_types@PEBUwhisper_grammar_element@@@std@@@2@$00@std@@QEAA@U_One_then_variadic_args_t@1@AEBV?$allocator@PEBUwhisper_grammar_element@@@1@@Z
	??$?0AEBV?$allocator@V?$basic_string@DU?$char_traits@D@std@@V?$allocator@D@2@@std@@@std@@$$V@?$_Compressed_pair@V?$allocator@V?$basic_string@DU?$char_traits@D@std@@V?$allocator@D@2@@std@@@std@@V?$_Vector_val@U?$_Simple_types@V?$basic_string@DU?$char_traits@D@std@@V?$allocator@D@2@@std@@@std@@@2@$00@std@@QEAA@U_One_then_variadic_args_t@1@AEBV?$allocator@V?$basic_string@DU?$char_traits@D@std@@V?$allocator@D@2@@std@@@1@@Z
	??$?0AEBV?$allocator@V?$vector@Uwhisper_grammar_element@@V?$allocator@Uwhisper_grammar_element@@@std@@@std@@@std@@$$V@?$_Compressed_pair@V?$allocator@V?$vector@Uwhisper_grammar_element@@V?$allocator@Uwhisper_grammar_element@@@std@@@std@@@std@@V?$_Vector_val@U?$_Simple_types@V?$vector@Uwhisper_grammar_element@@V?$allocator@Uwhisper_grammar_element@@@std@@@std@@@std@@@2@$00@std@@QEAA@U_One_then_variadic_args_t@1@AEBV?$allocator@V?$vector@Uwhisper_grammar_element@@V?$allocator@Uwhisper_grammar_element@@@std@@@std@@@1@@Z
	??$?0AEBV?$allocator@Vthread@std@@@std@@$$V@?$_Compressed_pair@V?$allocator@Vthread@std@@@std@@V?$_Vector_val@U?$_Simple_types@Vthread@std@@@std@@@2@$00@std@@QEAA@U_One_then_variadic_args_t@1@AEBV?$allocator@Vthread@std@@@1@@Z
	??$?0AEBV?$allocator@_K@std@@$$V@?$_Compressed_pair@V?$allocator@_K@std@@V?$_Vector_val@U?$_Simple_types@_K@std@@@2@$00@std@@QEAA@U_One_then_variadic_args_t@1@AEBV?$allocator@_K@1@@Z
	??$?0AEBV?$basic_string@DU?$char_traits@D@std@@V?$allocator@D@2@@std@@$$Z$$V@?$pair@$$CBV?$basic_string@DU?$char_traits@D@std@@V?$allocator@D@2@@std@@H@std@@QEAA@Upiecewise_construct_t@1@V?$tuple@AEBV?$basic_string@DU?$char_traits@D@std@@V?$allocator@D@2@@std@@@1@V?$tuple@$$V@1@@Z
	??$?0AEBV?$basic_string@DU?$char_traits@D@std@@V?$allocator@D@2@@std@@$0A@@?$tuple@AEBV?$basic_string@DU?$char_traits@D@std@@V?$allocator@D@2@@std@@@std@@QEAA@AEBV?$basic_string@DU?$char_traits@D@std@@V?$allocator@D@2@@1@@Z
	??$?0AEBV?$basic_string@DU?$char_traits@D@std@@V?$allocator@D@2@@std@@@?$_Tuple_val@AEBV?$basic_string@DU?$char_traits@D@std@@V?$allocator@D@2@@std@@@std@@QEAA@AEBV?$basic_string@DU?$char_traits@D@std@@V?$allocator@D@2@@1@@Z
	??$?0AEBV?$vector@MV?$allocator@M@std@@@std@@$0A@@?$reference_wrapper@$$CBV?$vector@MV?$allocator@M@std@@@std@@@std@@QEAA@AEBV?$vector@MV?$allocator@M@std@@@1@@Z
	??$?0H@?$_Tuple_val@H@std@@QEAA@$$QEAH@Z
	??$?0HAEAY03$$CBD$0A@@?$pair@HV?$basic_string@DU?$char_traits@D@std@@V?$allocator@D@2@@std@@@std@@QEAA@$$QEAHAEAY03$$CBD@Z
	??$?0HAEAY04$$CBD$0A@@?$pair@HV?$basic_string@DU?$char_traits@D@std@@V?$allocator@D@2@@std@@@std@@QEAA@$$QEAHAEAY04$$CBD@Z
	??$?0HAEAY05$$CBD$0A@@?$pair@HV?$basic_string@DU?$char_traits@D@std@@V?$allocator@D@2@@std@@@std@@QEAA@$$QEAHAEAY05$$CBD@Z
	??$?0HAEAY06$$CBD$0A@@?$pair@HV?$basic_string@DU?$char_traits@D@std@@V?$allocator@D@2@@std@@@std@@QEAA@$$QEAHAEAY06$$CBD@Z
	??$?0HAEAY07$$CBD$0A@@?$pair@HV?$basic_string@DU?$char_traits@D@std@@V?$allocator@D@2@@std@@@std@@QEAA@$$QEAHAEAY07$$CBD@Z
	??$?0HAEAY08$$CBD$0A@@?$pair@HV?$basic_string@DU?$char_traits@D@std@@V?$allocator@D@2@@std@@@std@@QEAA@$$QEAHAEAY08$$CBD@Z
	??$?0HAEAY09$$CBD$0A@@?$pair@HV?$basic_string@DU?$char_traits@D@std@@V?$allocator@D@2@@std@@@std@@QEAA@$$QEAHAEAY09$$CBD@Z
	??$?0HAEAY0L@$$CBD$0A@@?$pair@HV?$basic_string@DU?$char_traits@D@std@@V?$allocator@D@2@@std@@@std@@QEAA@$$QEAHAEAY0L@$$CBD@Z
	??$?0HAEAY0M@$$CBD$0A@@?$pair@HV?$basic_string@DU?$char_traits@D@std@@V?$allocator@D@2@@std@@@std@@QEAA@$$QEAHAEAY0M@$$CBD@Z
	??$?0HAEAY0O@$$CBD$0A@@?$pair@HV?$basic_string@DU?$char_traits@D@std@@V?$allocator@D@2@@std@@@std@@QEAA@$$QEAHAEAY0O@$$CBD@Z
	??$?0HAEAY0P@$$CBD$0A@@?$pair@HV?$basic_string@DU?$char_traits@D@std@@V?$allocator@D@2@@std@@@std@@QEAA@$$QEAHAEAY0P@$$CBD@Z
	??$?0PEAD$0A@@?$basic_string@DU?$char_traits@D@std@@V?$allocator@D@2@@std@@QEAA@PEAD0AEBV?$allocator@D@1@@Z
	??$?0PEAU?$_Tree_node@HPEAX@std@@_N$0A@@?$pair@PEAU?$_Tree_node@HPEAX@std@@_N@std@@QEAA@$$QEAPEAU?$_Tree_node@HPEAX@1@$$QEA_N@Z
	??$?0PEAU?$_Tree_node@U?$pair@$$CBHH@std@@PEAX@std@@_N$0A@@?$pair@PEAU?$_Tree_node@U?$pair@$$CBHH@std@@PEAX@std@@_N@std@@QEAA@$$QEAPEAU?$_Tree_node@U?$pair@$$CBHH@std@@PEAX@1@$$QEA_N@Z
	??$?0PEAU?$_Tree_node@U?$pair@$$CBHV?$basic_string@DU?$char_traits@D@std@@V?$allocator@D@2@@std@@@std@@PEAX@std@@_N$0A@@?$pair@PEAU?$_Tree_node@U?$pair@$$CBHV?$basic_string@DU?$char_traits@D@std@@V?$allocator@D@2@@std@@@std@@PEAX@std@@_N@std@@QEAA@$$QEAPEAU?$_Tree_node@U?$pair@$$CBHV?$basic_string@DU?$char_traits@D@std@@V?$allocator@D@2@@std@@@std@@PEAX@1@$$QEA_N@Z
	??$?0PEAU?$_Tree_node@U?$pair@$$CBV?$basic_string@DU?$char_traits@D@std@@V?$allocator@D@2@@std@@H@std@@PEAX@std@@_N$0A@@?$pair@PEAU?$_Tree_node@U?$pair@$$CBV?$basic_string@DU?$char_traits@D@std@@V?$allocator@D@2@@std@@H@std@@PEAX@std@@_N@std@@QEAA@$$QEAPEAU?$_Tree_node@U?$pair@$$CBV?$basic_string@DU?$char_traits@D@std@@V?$allocator@D@2@@std@@H@std@@PEAX@1@$$QEA_N@Z
	??$?0PEAU?$_Tree_node@U?$pair@$$CBV?$basic_string@DU?$char_traits@D@std@@V?$allocator@D@2@@std@@PEAUggml_tensor@@@std@@PEAX@std@@_N$0A@@?$pair@PEAU?$_Tree_node@U?$pair@$$CBV?$basic_string@DU?$char_traits@D@std@@V?$allocator@D@2@@std@@PEAUggml_tensor@@@std@@PEAX@std@@_N@std@@QEAA@$$QEAPEAU?$_Tree_node@U?$pair@$$CBV?$basic_string@DU?$char_traits@D@std@@V?$allocator@D@2@@std@@PEAUggml_tensor@@@std@@PEAX@1@$$QEA_N@Z
	??$?0PEAU?$_Tree_node@U?$pair@QEAUggml_backend_buffer_type@@PEAUggml_context@@@std@@PEAX@std@@_N$0A@@?$pair@PEAU?$_Tree_node@U?$pair@QEAUggml_backend_buffer_type@@PEAUggml_context@@@std@@PEAX@std@@_N@std@@QEAA@$$QEAPEAU?$_Tree_node@U?$pair@QEAUggml_backend_buffer_type@@PEAUggml_context@@@std@@PEAX@1@$$QEA_N@Z
	??$?0PEBD$0A@@?$basic_string@DU?$char_traits@D@std@@V?$allocator@D@2@@std@@QEAA@PEBD0AEBV?$allocator@D@1@@Z
	??$?0PEBDPEBD$0A@@?$pair@PEBDPEBD@std@@QEAA@XZ
	??$?0PEBM@?$_Tuple_val@PEBM@std@@QEAA@$$QEAPEBM@Z
	??$?0U?$char_traits@D@std@@V?$allocator@D@1@@?$basic_regex@DV?$regex_traits@D@std@@@std@@QEAA@AEBV?$basic_string@DU?$char_traits@D@std@@V?$allocator@D@2@@1@W4syntax_option_type@regex_constants@1@@Z
	??$?0U?$default_delete@V?$tuple@P6AHPEAUwhisper_context@@PEAUwhisper_state@@Uwhisper_full_params@@PEBMH@ZPEAU1@PEAU2@U3@PEBMH@std@@@std@@$0A@@?$unique_ptr@V?$tuple@P6AHPEAUwhisper_context@@PEAUwhisper_state@@Uwhisper_full_params@@PEBMH@ZPEAU1@PEAU2@U3@PEBMH@std@@U?$default_delete@V?$tuple@P6AHPEAUwhisper_context@@PEAUwhisper_state@@Uwhisper_full_params@@PEBMH@ZPEAU1@PEAU2@U3@PEBMH@std@@@2@@std@@QEAA@$$QEAV01@@Z
	??$?0U?$default_delete@V?$tuple@P6AHPEAUwhisper_context@@PEAUwhisper_state@@Uwhisper_full_params@@PEBMH@ZPEAU1@PEAU2@U3@PEBMH@std@@@std@@$0A@@?$unique_ptr@V?$tuple@P6AHPEAUwhisper_context@@PEAUwhisper_state@@Uwhisper_full_params@@PEBMH@ZPEAU1@PEAU2@U3@PEBMH@std@@U?$default_delete@V?$tuple@P6AHPEAUwhisper_context@@PEAUwhisper_state@@Uwhisper_full_params@@PEBMH@ZPEAU1@PEAU2@U3@PEBMH@std@@@2@@std@@QEAA@PEAV?$tuple@P6AHPEAUwhisper_context@@PEAUwhisper_state@@Uwhisper_full_params@@PEBMH@ZPEAU1@PEAU2@U3@PEBMH@1@@Z
	??$?0U?$default_delete@V?$tuple@P6AHPEAUwhisper_context@@PEAUwhisper_state@@Uwhisper_full_params@@PEBMH@ZPEAU1@PEAU2@U3@PEBMH@std@@@std@@PEAV?$tuple@P6AHPEAUwhisper_context@@PEAUwhisper_state@@Uwhisper_full_params@@PEBMH@ZPEAU1@PEAU2@U3@PEBMH@1@@?$_Compressed_pair@U?$default_delete@V?$tuple@P6AHPEAUwhisper_context@@PEAUwhisper_state@@Uwhisper_full_params@@PEBMH@ZPEAU1@PEAU2@U3@PEBMH@std@@@std@@PEAV?$tuple@P6AHPEAUwhisper_context@@PEAUwhisper_state@@Uwhisper_full_params@@PEBMH@ZPEAU1@PEAU2@U3@PEBMH@2@$00@std@@QEAA@U_One_then_variadic_args_t@1@$$QEAU?$default_delete@V?$tuple@P6AHPEAUwhisper_context@@PEAUwhisper_state@@Uwhisper_full_params@@PEBMH@ZPEAU1@PEAU2@U3@PEBMH@std@@@1@$$QEAPEAV?$tuple@P6AHPEAUwhisper_context@@PEAUwhisper_state@@Uwhisper_full_params@@PEBMH@ZPEAU1@PEAU2@U3@PEBMH@1@@Z
	??$?0U?$default_delete@V?$tuple@P6AXHPEBMAEBV?$vector@MV?$allocator@M@std@@@std@@HHHHAEBUwhisper_filters@@AEAUwhisper_mel@@@ZHPEBMV?$reference_wrapper@$$CBV?$vector@MV?$allocator@M@std@@@std@@@2@_JHHHV?$reference_wrapper@$$CBUwhisper_filters@@@2@V?$reference_wrapper@Uwhisper_mel@@@2@@std@@@std@@$0A@@?$unique_ptr@V?$tuple@P6AXHPEBMAEBV?$vector@MV?$allocator@M@std@@@std@@HHHHAEBUwhisper_filters@@AEAUwhisper_mel@@@ZHPEBMV?$reference_wrapper@$$CBV?$vector@MV?$allocator@M@std@@@std@@@2@_JHHHV?$reference_wrapper@$$CBUwhisper_filters@@@2@V?$reference_wrapper@Uwhisper_mel@@@2@@std@@U?$default_delete@V?$tuple@P6AXHPEBMAEBV?$vector@MV?$allocator@M@std@@@std@@HHHHAEBUwhisper_filters@@AEAUwhisper_mel@@@ZHPEBMV?$reference_wrapper@$$CBV?$vector@MV?$allocator@M@std@@@std@@@2@_JHHHV?$reference_wrapper@$$CBUwhisper_filters@@@2@V?$reference_wrapper@Uwhisper_mel@@@2@@std@@@2@@std@@QEAA@$$QEAV01@@Z
	??$?0U?$default_delete@V?$tuple@P6AXHPEBMAEBV?$vector@MV?$allocator@M@std@@@std@@HHHHAEBUwhisper_filters@@AEAUwhisper_mel@@@ZHPEBMV?$reference_wrapper@$$CBV?$vector@MV?$allocator@M@std@@@std@@@2@_JHHHV?$reference_wrapper@$$CBUwhisper_filters@@@2@V?$reference_wrapper@Uwhisper_mel@@@2@@std@@@std@@$0A@@?$unique_ptr@V?$tuple@P6AXHPEBMAEBV?$vector@MV?$allocator@M@std@@@std@@HHHHAEBUwhisper_filters@@AEAUwhisper_mel@@@ZHPEBMV?$reference_wrapper@$$CBV?$vector@MV?$allocator@M@std@@@std@@@2@_JHHHV?$reference_wrapper@$$CBUwhisper_filters@@@2@V?$reference_wrapper@Uwhisper_mel@@@2@@std@@U?$default_delete@V?$tuple@P6AXHPEBMAEBV?$vector@MV?$allocator@M@std@@@std@@HHHHAEBUwhisper_filters@@AEAUwhisper_mel@@@ZHPEBMV?$reference_wrapper@$$CBV?$vector@MV?$allocator@M@std@@@std@@@2@_JHHHV?$reference_wrapper@$$CBUwhisper_filters@@@2@V?$reference_wrapper@Uwhisper_mel@@@2@@std@@@2@@std@@QEAA@PEAV?$tuple@P6AXHPEBMAEBV?$vector@MV?$allocator@M@std@@@std@@HHHHAEBUwhisper_filters@@AEAUwhisper_mel@@@ZHPEBMV?$reference_wrapper@$$CBV?$vector@MV?$allocator@M@std@@@std@@@2@_JHHHV?$reference_wrapper@$$CBUwhisper_filters@@@2@V?$reference_wrapper@Uwhisper_mel@@@2@@1@@Z
	??$?0U?$default_delete@V?$tuple@P6AXHPEBMAEBV?$vector@MV?$allocator@M@std@@@std@@HHHHAEBUwhisper_filters@@AEAUwhisper_mel@@@ZHPEBMV?$reference_wrapper@$$CBV?$vector@MV?$allocator@M@std@@@std@@@2@_JHHHV?$reference_wrapper@$$CBUwhisper_filters@@@2@V?$reference_wrapper@Uwhisper_mel@@@2@@std@@@std@@PEAV?$tuple@P6AXHPEBMAEBV?$vector@MV?$allocator@M@std@@@std@@HHHHAEBUwhisper_filters@@AEAUwhisper_mel@@@ZHPEBMV?$reference_wrapper@$$CBV?$vector@MV?$allocator@M@std@@@std@@@2@_JHHHV?$reference_wrapper@$$CBUwhisper_filters@@@2@V?$reference_wrapper@Uwhisper_mel@@@2@@1@@?$_Compressed_pair@U?$default_delete@V?$tuple@P6AXHPEBMAEBV?$vector@MV?$allocator@M@std@@@std@@HHHHAEBUwhisper_filters@@AEAUwhisper_mel@@@ZHPEBMV?$reference_wrapper@$$CBV?$vector@MV?$allocator@M@std@@@std@@@2@_JHHHV?$reference_wrapper@$$CBUwhisper_filters@@@2@V?$reference_wrapper@Uwhisper_mel@@@2@@std@@@std@@PEAV?$tuple@P6AXHPEBMAEBV?$vector@MV?$allocator@M@std@@@std@@HHHHAEBUwhisper_filters@@AEAUwhisper_mel@@@ZHPEBMV?$reference_wrapper@$$CBV?$vector@MV?$allocator@M@std@@@std@@@2@_JHHHV?$reference_wrapper@$$CBUwhisper_filters@@@2@V?$reference_wrapper@Uwhisper_mel@@@2@@2@$00@std@@QEAA@U_One_then_variadic_args_t@1@$$QEAU?$default_delete@V?$tuple@P6AXHPEBMAEBV?$vector@MV?$allocator@M@std@@@std@@HHHHAEBUwhisper_filters@@AEAUwhisper_mel@@@ZHPEBMV?$reference_wrapper@$$CBV?$vector@MV?$allocator@M@std@@@std@@@2@_JHHHV?$reference_wrapper@$$CBUwhisper_filters@@@2@V?$reference_wrapper@Uwhisper_mel@@@2@@std@@@1@$$QEAPEAV?$tuple@P6AXHPEBMAEBV?$vector@MV?$allocator@M@std@@@std@@HHHHAEBUwhisper_filters@@AEAUwhisper_mel@@@ZHPEBMV?$reference_wrapper@$$CBV?$vector@MV?$allocator@M@std@@@std@@@2@_JHHHV?$reference_wrapper@$$CBUwhisper_filters@@@2@V?$reference_wrapper@Uwhisper_mel@@@2@@1@@Z
	??$?0U?$default_delete@V_Facet_base@std@@@std@@$0A@@?$unique_ptr@V_Facet_base@std@@U?$default_delete@V_Facet_base@std@@@2@@std@@QEAA@PEAV_Facet_base@1@@Z
	??$?0U?$default_delete@V_Node_assert@std@@@std@@$0A@@?$unique_ptr@V_Node_assert@std@@U?$default_delete@V_Node_assert@std@@@2@@std@@QEAA@$$QEAV01@@Z
	??$?0U?$default_delete@V_Node_assert@std@@@std@@$0A@@?$unique_ptr@V_Node_assert@std@@U?$default_delete@V_Node_assert@std@@@2@@std@@QEAA@PEAV_Node_assert@1@@Z
	??$?0U?$default_delete@V_Node_assert@std@@@std@@PEAV_Node_assert@1@@?$_Compressed_pair@U?$default_delete@V_Node_assert@std@@@std@@PEAV_Node_assert@2@$00@std@@QEAA@U_One_then_variadic_args_t@1@$$QEAU?$default_delete@V_Node_assert@std@@@1@$$QEAPEAV_Node_assert@1@@Z
	??$?0U?$less@H@std@@U_One_then_variadic_args_t@1@V?$allocator@U?$_Tree_node@HPEAX@std@@@1@@?$_Compressed_pair@U?$less@H@std@@V?$_Compressed_pair@V?$allocator@U?$_Tree_node@HPEAX@std@@@std@@V?$_Tree_val@U?$_Tree_simple_types@H@std@@@2@$00@2@$00@std@@QEAA@U_One_then_variadic_args_t@1@$$QEAU?$less@H@1@$$QEAU21@$$QEAV?$allocator@U?$_Tree_node@HPEAX@std@@@1@@Z
	??$?0U?$less@W4asr_tensor@@@std@@U_One_then_variadic_args_t@1@V?$allocator@U?$_Tree_node@U?$pair@$$CBW4asr_tensor@@PEBD@std@@PEAX@std@@@1@@?$_Compressed_pair@U?$less@W4asr_tensor@@@std@@V?$_Compressed_pair@V?$allocator@U?$_Tree_node@U?$pair@$$CBW4asr_tensor@@PEBD@std@@PEAX@std@@@std@@V?$_Tree_val@U?$_Tree_simple_types@U?$pair@$$CBW4asr_tensor@@PEBD@std@@@std@@@2@$00@2@$00@std@@QEAA@U_One_then_variadic_args_t@1@$$QEAU?$less@W4asr_tensor@@@1@$$QEAU21@$$QEAV?$allocator@U?$_Tree_node@U?$pair@$$CBW4asr_tensor@@PEBD@std@@PEAX@std@@@1@@Z
	??$?0U_Exact_args_t@std@@$0A@@?$tuple@$$V@std@@QEAA@U_Exact_args_t@1@@Z
	??$?0U_Exact_args_t@std@@A6AHPEAUwhisper_context@@PEAUwhisper_state@@Uwhisper_full_params@@PEBMH@ZAEAPEAU2@AEAPEAU3@U4@PEBMAEBH$0A@@?$tuple@P6AHPEAUwhisper_context@@PEAUwhisper_state@@Uwhisper_full_params@@PEBMH@ZPEAU1@PEAU2@U3@PEBMH@std@@QEAA@U_Exact_args_t@1@A6AHPEAUwhisper_context@@PEAUwhisper_state@@Uwhisper_full_params@@PEBMH@ZAEAPEAU3@AEAPEAU4@$$QEAU5@$$QEAPEBMAEBH@Z
	??$?0U_Exact_args_t@std@@A6AXHPEBMAEBV?$vector@MV?$allocator@M@std@@@1@HHHHAEBUwhisper_filters@@AEAUwhisper_mel@@@ZHAEAPEBMV?$reference_wrapper@$$CBV?$vector@MV?$allocator@M@std@@@std@@@1@_JAEBHAEBHAEBHV?$reference_wrapper@$$CBUwhisper_filters@@@1@V?$reference_wrapper@Uwhisper_mel@@@1@$0A@@?$tuple@P6AXHPEBMAEBV?$vector@MV?$allocator@M@std@@@std@@HHHHAEBUwhisper_filters@@AEAUwhisper_mel@@@ZHPEBMV?$reference_wrapper@$$CBV?$vector@MV?$allocator@M@std@@@std@@@2@_JHHHV?$reference_wrapper@$$CBUwhisper_filters@@@2@V?$reference_wrapper@Uwhisper_mel@@@2@@std@@QEAA@U_Exact_args_t@1@A6AXHPEBMAEBV?$vector@MV?$allocator@M@std@@@1@HHHHAEBUwhisper_filters@@AEAUwhisper_mel@@@Z$$QEAHAEAPEBM$$QEAV?$reference_wrapper@$$CBV?$vector@MV?$allocator@M@std@@@std@@@1@$$QEA_JAEBHAEBHAEBH$$QEAV?$reference_wrapper@$$CBUwhisper_filters@@@1@$$QEAV?$reference_wrapper@Uwhisper_mel@@@1@@Z
	??$?0U_Exact_args_t@std@@AEAH$$V$0A@@?$tuple@H@std@@QEAA@U_Exact_args_t@1@AEAH@Z
	??$?0U_Exact_args_t@std@@AEAPEAUwhisper_context@@AEAPEAUwhisper_state@@Uwhisper_full_params@@PEBMAEBH$0A@@?$tuple@PEAUwhisper_context@@PEAUwhisper_state@@Uwhisper_full_params@@PEBMH@std@@QEAA@U_Exact_args_t@1@AEAPEAUwhisper_context@@AEAPEAUwhisper_state@@$$QEAUwhisper_full_params@@$$QEAPEBMAEBH@Z
	??$?0U_Exact_args_t@std@@AEAPEAUwhisper_state@@Uwhisper_full_params@@PEBMAEBH$0A@@?$tuple@PEAUwhisper_state@@Uwhisper_full_params@@PEBMH@std@@QEAA@U_Exact_args_t@1@AEAPEAUwhisper_state@@$$QEAUwhisper_full_params@@$$QEAPEBMAEBH@Z
	??$?0U_Exact_args_t@std@@AEAPEBMV?$reference_wrapper@$$CBV?$vector@MV?$allocator@M@std@@@std@@@1@_JAEBHAEBHAEBHV?$reference_wrapper@$$CBUwhisper_filters@@@1@V?$reference_wrapper@Uwhisper_mel@@@1@$0A@@?$tuple@PEBMV?$reference_wrapper@$$CBV?$vector@MV?$allocator@M@std@@@std@@@std@@_JHHHV?$reference_wrapper@$$CBUwhisper_filters@@@2@V?$reference_wrapper@Uwhisper_mel@@@2@@std@@QEAA@U_Exact_args_t@1@AEAPEBM$$QEAV?$reference_wrapper@$$CBV?$vector@MV?$allocator@M@std@@@std@@@1@$$QEA_JAEBH44$$QEAV?$reference_wrapper@$$CBUwhisper_filters@@@1@$$QEAV?$reference_wrapper@Uwhisper_mel@@@1@@Z
	??$?0U_Exact_args_t@std@@AEBH$$V$0A@@?$tuple@AEBH@std@@QEAA@U_Exact_args_t@1@AEBH@Z
	??$?0U_Exact_args_t@std@@AEBH$$V$0A@@?$tuple@H@std@@QEAA@U_Exact_args_t@1@AEBH@Z
	??$?0U_Exact_args_t@std@@AEBHAEBHAEBHV?$reference_wrapper@$$CBUwhisper_filters@@@1@V?$reference_wrapper@Uwhisper_mel@@@1@$0A@@?$tuple@HHHV?$reference_wrapper@$$CBUwhisper_filters@@@std@@V?$reference_wrapper@Uwhisper_mel@@@2@@std@@QEAA@U_Exact_args_t@1@AEBH11$$QEAV?$reference_wrapper@$$CBUwhisper_filters@@@1@$$QEAV?$reference_wrapper@Uwhisper_mel@@@1@@Z
	??$?0U_Exact_args_t@std@@AEBHAEBHV?$reference_wrapper@$$CBUwhisper_filters@@@1@V?$reference_wrapper@Uwhisper_mel@@@1@$0A@@?$tuple@HHV?$reference_wrapper@$$CBUwhisper_filters@@@std@@V?$reference_wrapper@Uwhisper_mel@@@2@@std@@QEAA@U_Exact_args_t@1@AEBH1$$QEAV?$reference_wrapper@$$CBUwhisper_filters@@@1@$$QEAV?$reference_wrapper@Uwhisper_mel@@@1@@Z
	??$?0U_Exact_args_t@std@@AEBHV?$reference_wrapper@$$CBUwhisper_filters@@@1@V?$reference_wrapper@Uwhisper_mel@@@1@$0A@@?$tuple@HV?$reference_wrapper@$$CBUwhisper_filters@@@std@@V?$reference_wrapper@Uwhisper_mel@@@2@@std@@QEAA@U_Exact_args_t@1@AEBH$$QEAV?$reference_wrapper@$$CBUwhisper_filters@@@1@$$QEAV?$reference_wrapper@Uwhisper_mel@@@1@@Z
	??$?0U_Exact_args_t@std@@AEBQEAUggml_backend_buffer_type@@$$V$0A@@?$tuple@AEBQEAUggml_backend_buffer_type@@@std@@QEAA@U_Exact_args_t@1@AEBQEAUggml_backend_buffer_type@@@Z
	??$?0U_Exact_args_t@std@@AEBV?$basic_string@DU?$char_traits@D@std@@V?$allocator@D@2@@1@$$V$0A@@?$tuple@AEBV?$basic_string@DU?$char_traits@D@std@@V?$allocator@D@2@@std@@@std@@QEAA@U_Exact_args_t@1@AEBV?$basic_string@DU?$char_traits@D@std@@V?$allocator@D@2@@1@@Z
	??$?0U_Exact_args_t@std@@HAEAPEBMV?$reference_wrapper@$$CBV?$vector@MV?$allocator@M@std@@@std@@@1@_JAEBHAEBHAEBHV?$reference_wrapper@$$CBUwhisper_filters@@@1@V?$reference_wrapper@Uwhisper_mel@@@1@$0A@@?$tuple@HPEBMV?$reference_wrapper@$$CBV?$vector@MV?$allocator@M@std@@@std@@@std@@_JHHHV?$reference_wrapper@$$CBUwhisper_filters@@@2@V?$reference_wrapper@Uwhisper_mel@@@2@@std@@QEAA@U_Exact_args_t@1@$$QEAHAEAPEBM$$QEAV?$reference_wrapper@$$CBV?$vector@MV?$allocator@M@std@@@std@@@1@$$QEA_JAEBH55$$QEAV?$reference_wrapper@$$CBUwhisper_filters@@@1@$$QEAV?$reference_wrapper@Uwhisper_mel@@@1@@Z
	??$?0U_Exact_args_t@std@@PEBMAEBH$0A@@?$tuple@PEBMH@std@@QEAA@U_Exact_args_t@1@$$QEAPEBMAEBH@Z
	??$?0U_Exact_args_t@std@@Uwhisper_full_params@@PEBMAEBH$0A@@?$tuple@Uwhisper_full_params@@PEBMH@std@@QEAA@U_Exact_args_t@1@$$QEAUwhisper_full_params@@$$QEAPEBMAEBH@Z
	??$?0U_Exact_args_t@std@@V?$basic_string@DU?$char_traits@D@std@@V?$allocator@D@2@@1@$$V$0A@@?$tuple@$$QEAV?$basic_string@DU?$char_traits@D@std@@V?$allocator@D@2@@std@@@std@@QEAA@U_Exact_args_t@1@$$QEAV?$basic_string@DU?$char_traits@D@std@@V?$allocator@D@2@@1@@Z
	??$?0U_Exact_args_t@std@@V?$reference_wrapper@$$CBUwhisper_filters@@@1@V?$reference_wrapper@Uwhisper_mel@@@1@$0A@@?$tuple@V?$reference_wrapper@$$CBUwhisper_filters@@@std@@V?$reference_wrapper@Uwhisper_mel@@@2@@std@@QEAA@U_Exact_args_t@1@$$QEAV?$reference_wrapper@$$CBUwhisper_filters@@@1@$$QEAV?$reference_wrapper@Uwhisper_mel@@@1@@Z
	??$?0U_Exact_args_t@std@@V?$reference_wrapper@$$CBV?$vector@MV?$allocator@M@std@@@std@@@1@_JAEBHAEBHAEBHV?$reference_wrapper@$$CBUwhisper_filters@@@1@V?$reference_wrapper@Uwhisper_mel@@@1@$0A@@?$tuple@V?$reference_wrapper@$$CBV?$vector@MV?$allocator@M@std@@@std@@@std@@_JHHHV?$reference_wrapper@$$CBUwhisper_filters@@@2@V?$reference_wrapper@Uwhisper_mel@@@2@@std@@QEAA@U_Exact_args_t@1@$$QEAV?$reference_wrapper@$$CBV?$vector@MV?$allocator@M@std@@@std@@@1@$$QEA_JAEBH33$$QEAV?$reference_wrapper@$$CBUwhisper_filters@@@1@$$QEAV?$reference_wrapper@Uwhisper_mel@@@1@@Z
	??$?0U_Exact_args_t@std@@V?$reference_wrapper@Uwhisper_mel@@@1@$$V$0A@@?$tuple@V?$reference_wrapper@Uwhisper_mel@@@std@@@std@@QEAA@U_Exact_args_t@1@$$QEAV?$reference_wrapper@Uwhisper_mel@@@1@@Z
	??$?0U_Exact_args_t@std@@_JAEBHAEBHAEBHV?$reference_wrapper@$$CBUwhisper_filters@@@1@V?$reference_wrapper@Uwhisper_mel@@@1@$0A@@?$tuple@_JHHHV?$reference_wrapper@$$CBUwhisper_filters@@@std@@V?$reference_wrapper@Uwhisper_mel@@@2@@std@@QEAA@U_Exact_args_t@1@$$QEA_JAEBH22$$QEAV?$reference_wrapper@$$CBUwhisper_filters@@@1@$$QEAV?$reference_wrapper@Uwhisper_mel@@@1@@Z
	??$?0Uggml_backend_deleter@@$0A@@?$unique_ptr@Uggml_backend@@Uggml_backend_deleter@@@std@@QEAA@PEAUggml_backend@@@Z
	??$?0Uggml_context_deleter@@$0A@@?$unique_ptr@Uggml_context@@Uggml_context_deleter@@@std@@QEAA@PEAUggml_context@@@Z
	??$?0Uwhisper_full_params@@@?$_Tuple_val@Uwhisper_full_params@@@std@@QEAA@$$QEAUwhisper_full_params@@@Z
	??$?0V?$_String_const_iterator@V?$_String_val@U?$_Simple_types@D@std@@@std@@@std@@$0A@@?$basic_string@DU?$char_traits@D@std@@V?$allocator@D@2@@std@@QEAA@V?$_String_const_iterator@V?$_String_val@U?$_Simple_types@D@std@@@std@@@1@0AEBV?$allocator@D@1@@Z
	??$?0V?$_String_const_iterator@V?$_String_val@U?$_Simple_types@D@std@@@std@@@std@@V01@$0A@@?$pair@V?$_String_const_iterator@V?$_String_val@U?$_Simple_types@D@std@@@std@@@std@@V12@@std@@QEAA@XZ
	??$?0V?$_String_iterator@V?$_String_val@U?$_Simple_types@D@std@@@std@@@std@@$0A@@?$basic_string@DU?$char_traits@D@std@@V?$allocator@D@2@@std@@QEAA@V?$_String_iterator@V?$_String_val@U?$_Simple_types@D@std@@@std@@@1@0AEBV?$allocator@D@1@@Z
	??$?0V?$_Tree_const_iterator@V?$_Tree_val@U?$_Tree_simple_types@H@std@@@std@@@std@@AEB_N$0A@@?$pair@V?$_Tree_const_iterator@V?$_Tree_val@U?$_Tree_simple_types@H@std@@@std@@@std@@_N@std@@QEAA@$$QEAV?$_Tree_const_iterator@V?$_Tree_val@U?$_Tree_simple_types@H@std@@@std@@@1@AEB_N@Z
	??$?0V?$_Vector_const_iterator@V?$_Vector_val@U?$_Simple_types@M@std@@@std@@@std@@$0A@@?$vector@NV?$allocator@N@std@@@std@@QEAA@V?$_Vector_const_iterator@V?$_Vector_val@U?$_Simple_types@M@std@@@std@@@1@0AEBV?$allocator@N@1@@Z
	??$?0V?$_Vector_const_iterator@V?$_Vector_val@U?$_Simple_types@M@std@@@std@@@std@@@?$discrete_distribution@H@std@@QEAA@V?$_Vector_const_iterator@V?$_Vector_val@U?$_Simple_types@M@std@@@std@@@1@0@Z
	??$?0V?$_Vector_const_iterator@V?$_Vector_val@U?$_Simple_types@M@std@@@std@@@std@@@param_type@?$discrete_distribution@H@std@@QEAA@V?$_Vector_const_iterator@V?$_Vector_val@U?$_Simple_types@M@std@@@std@@@2@0@Z
	??$?0V?$_Vector_const_iterator@V?$_Vector_val@U?$_Simple_types@PEBUwhisper_grammar_element@@@std@@@std@@@std@@$0A@@?$vector@PEBUwhisper_grammar_element@@V?$allocator@PEBUwhisper_grammar_element@@@std@@@std@@QEAA@V?$_Vector_const_iterator@V?$_Vector_val@U?$_Simple_types@PEBUwhisper_grammar_element@@@std@@@std@@@1@0AEBV?$allocator@PEBUwhisper_grammar_element@@@1@@Z
	??$?0V?$allocator@D@std@@$$V@?$_Compressed_pair@V?$allocator@D@std@@V?$_String_val@U?$_Simple_types@D@std@@@2@$00@std@@QEAA@U_One_then_variadic_args_t@1@$$QEAV?$allocator@D@1@@Z
	??$?0V?$allocator@H@std@@PEAHPEAHPEAH@?$_Compressed_pair@V?$allocator@H@std@@V?$_Vector_val@U?$_Simple_types@H@std@@@2@$00@std@@QEAA@U_One_then_variadic_args_t@1@$$QEAV?$allocator@H@1@$$QEAPEAH22@Z
	??$?0V?$allocator@I@std@@$$V@?$_Compressed_pair@V?$allocator@I@std@@V?$_Vector_val@U?$_Simple_types@I@std@@@2@$00@std@@QEAA@U_One_then_variadic_args_t@1@$$QEAV?$allocator@I@1@@Z
	??$?0V?$allocator@I@std@@PEAIPEAIPEAI@?$_Compressed_pair@V?$allocator@I@std@@V?$_Vector_val@U?$_Simple_types@I@std@@@2@$00@std@@QEAA@U_One_then_variadic_args_t@1@$$QEAV?$allocator@I@1@$$QEAPEAI22@Z
	??$?0V?$allocator@M@std@@PEAMPEAMPEAM@?$_Compressed_pair@V?$allocator@M@std@@V?$_Vector_val@U?$_Simple_types@M@std@@@2@$00@std@@QEAA@U_One_then_variadic_args_t@1@$$QEAV?$allocator@M@1@$$QEAPEAM22@Z
	??$?0V?$allocator@PEAUggml_backend@@@std@@$$V@?$_Compressed_pair@V?$allocator@PEAUggml_backend@@@std@@V?$_Vector_val@U?$_Simple_types@PEAUggml_backend@@@std@@@2@$00@std@@QEAA@U_One_then_variadic_args_t@1@$$QEAV?$allocator@PEAUggml_backend@@@1@@Z
	??$?0V?$allocator@PEAUggml_backend@@@std@@PEAPEAUggml_backend@@PEAPEAU2@PEAPEAU2@@?$_Compressed_pair@V?$allocator@PEAUggml_backend@@@std@@V?$_Vector_val@U?$_Simple_types@PEAUggml_backend@@@std@@@2@$00@std@@QEAA@U_One_then_variadic_args_t@1@$$QEAV?$allocator@PEAUggml_backend@@@1@$$QEAPEAPEAUggml_backend@@22@Z
	??$?0V?$allocator@PEBUwhisper_grammar_element@@@std@@$$V@?$_Compressed_pair@V?$allocator@PEBUwhisper_grammar_element@@@std@@V?$_Vector_val@U?$_Simple_types@PEBUwhisper_grammar_element@@@std@@@2@$00@std@@QEAA@U_One_then_variadic_args_t@1@$$QEAV?$allocator@PEBUwhisper_grammar_element@@@1@@Z
	??$?0V?$allocator@PEBUwhisper_grammar_element@@@std@@PEAPEBUwhisper_grammar_element@@PEAPEBU2@PEAPEBU2@@?$_Compressed_pair@V?$allocator@PEBUwhisper_grammar_element@@@std@@V?$_Vector_val@U?$_Simple_types@PEBUwhisper_grammar_element@@@std@@@2@$00@std@@QEAA@U_One_then_variadic_args_t@1@$$QEAV?$allocator@PEBUwhisper_grammar_element@@@1@$$QEAPEAPEBUwhisper_grammar_element@@22@Z
	??$?0V?$allocator@U?$_Tree_node@HPEAX@std@@@std@@$$V@?$_Compressed_pair@V?$allocator@U?$_Tree_node@HPEAX@std@@@std@@V?$_Tree_val@U?$_Tree_simple_types@H@std@@@2@$00@std@@QEAA@U_One_then_variadic_args_t@1@$$QEAV?$allocator@U?$_Tree_node@HPEAX@std@@@1@@Z
	??$?0V?$allocator@U?$_Tree_node@HPEAX@std@@@std@@@?$_Tree@V?$_Tset_traits@HU?$less@H@std@@V?$allocator@H@2@$0A@@std@@@std@@QEAA@AEBV01@$$QEAV?$allocator@U?$_Tree_node@HPEAX@std@@@1@@Z
	??$?0V?$allocator@U?$_Tree_node@U?$pair@$$CBW4asr_tensor@@PEBD@std@@PEAX@std@@@std@@$$V@?$_Compressed_pair@V?$allocator@U?$_Tree_node@U?$pair@$$CBW4asr_tensor@@PEBD@std@@PEAX@std@@@std@@V?$_Tree_val@U?$_Tree_simple_types@U?$pair@$$CBW4asr_tensor@@PEBD@std@@@std@@@2@$00@std@@QEAA@U_One_then_variadic_args_t@1@$$QEAV?$allocator@U?$_Tree_node@U?$pair@$$CBW4asr_tensor@@PEBD@std@@PEAX@std@@@1@@Z
	??$?0V?$allocator@U?$_Tree_node@U?$pair@$$CBW4asr_tensor@@PEBD@std@@PEAX@std@@@std@@@?$_Tree@V?$_Tmap_traits@W4asr_tensor@@PEBDU?$less@W4asr_tensor@@@std@@V?$allocator@U?$pair@$$CBW4asr_tensor@@PEBD@std@@@3@$0A@@std@@@std@@QEAA@AEBV01@$$QEAV?$allocator@U?$_Tree_node@U?$pair@$$CBW4asr_tensor@@PEBD@std@@PEAX@std@@@1@@Z
	??$?0V?$allocator@U?$pair@PEAUggml_backend_device@@PEAUggml_backend_buffer_type@@@std@@@std@@$$V@?$_Compressed_pair@V?$allocator@U?$pair@PEAUggml_backend_device@@PEAUggml_backend_buffer_type@@@std@@@std@@V?$_Vector_val@U?$_Simple_types@U?$pair@PEAUggml_backend_device@@PEAUggml_backend_buffer_type@@@std@@@std@@@2@$00@std@@QEAA@U_One_then_variadic_args_t@1@$$QEAV?$allocator@U?$pair@PEAUggml_backend_device@@PEAUggml_backend_buffer_type@@@std@@@1@@Z
	??$?0V?$allocator@U?$pair@PEAUggml_backend_device@@PEAUggml_backend_buffer_type@@@std@@@std@@PEAU?$pair@PEAUggml_backend_device@@PEAUggml_backend_buffer_type@@@1@PEAU21@PEAU21@@?$_Compressed_pair@V?$allocator@U?$pair@PEAUggml_backend_device@@PEAUggml_backend_buffer_type@@@std@@@std@@V?$_Vector_val@U?$_Simple_types@U?$pair@PEAUggml_backend_device@@PEAUggml_backend_buffer_type@@@std@@@std@@@2@$00@std@@QEAA@U_One_then_variadic_args_t@1@$$QEAV?$allocator@U?$pair@PEAUggml_backend_device@@PEAUggml_backend_buffer_type@@@std@@@1@$$QEAPEAU?$pair@PEAUggml_backend_device@@PEAUggml_backend_buffer_type@@@1@22@Z
	??$?0V?$allocator@U_Grp_t@?$_Tgt_state_t@PEBD@std@@@std@@$$V@?$_Compressed_pair@V?$allocator@U_Grp_t@?$_Tgt_state_t@PEBD@std@@@std@@V?$_Vector_val@U?$_Simple_types@U_Grp_t@?$_Tgt_state_t@PEBD@std@@@std@@@2@$00@std@@QEAA@U_One_then_variadic_args_t@1@$$QEAV?$allocator@U_Grp_t@?$_Tgt_state_t@PEBD@std@@@1@@Z
	??$?0V?$allocator@U_Grp_t@?$_Tgt_state_t@PEBD@std@@@std@@PEAU_Grp_t@?$_Tgt_state_t@PEBD@1@PEAU231@PEAU231@@?$_Compressed_pair@V?$allocator@U_Grp_t@?$_Tgt_state_t@PEBD@std@@@std@@V?$_Vector_val@U?$_Simple_types@U_Grp_t@?$_Tgt_state_t@PEBD@std@@@std@@@2@$00@std@@QEAA@U_One_then_variadic_args_t@1@$$QEAV?$allocator@U_Grp_t@?$_Tgt_state_t@PEBD@std@@@1@$$QEAPEAU_Grp_t@?$_Tgt_state_t@PEBD@1@22@Z
	??$?0V?$allocator@U_Grp_t@?$_Tgt_state_t@V?$_String_const_iterator@V?$_String_val@U?$_Simple_types@D@std@@@std@@@std@@@std@@@std@@$$V@?$_Compressed_pair@V?$allocator@U_Grp_t@?$_Tgt_state_t@V?$_String_const_iterator@V?$_String_val@U?$_Simple_types@D@std@@@std@@@std@@@std@@@std@@V?$_Vector_val@U?$_Simple_types@U_Grp_t@?$_Tgt_state_t@V?$_String_const_iterator@V?$_String_val@U?$_Simple_types@D@std@@@std@@@std@@@std@@@std@@@2@$00@std@@QEAA@U_One_then_variadic_args_t@1@$$QEAV?$allocator@U_Grp_t@?$_Tgt_state_t@V?$_String_const_iterator@V?$_String_val@U?$_Simple_types@D@std@@@std@@@std@@@std@@@1@@Z
	??$?0V?$allocator@U_Grp_t@?$_Tgt_state_t@V?$_String_const_iterator@V?$_String_val@U?$_Simple_types@D@std@@@std@@@std@@@std@@@std@@PEAU_Grp_t@?$_Tgt_state_t@V?$_String_const_iterator@V?$_String_val@U?$_Simple_types@D@std@@@std@@@std@@@1@PEAU231@PEAU231@@?$_Compressed_pair@V?$allocator@U_Grp_t@?$_Tgt_state_t@V?$_String_const_iterator@V?$_String_val@U?$_Simple_types@D@std@@@std@@@std@@@std@@@std@@V?$_Vector_val@U?$_Simple_types@U_Grp_t@?$_Tgt_state_t@V?$_String_const_iterator@V?$_String_val@U?$_Simple_types@D@std@@@std@@@std@@@std@@@std@@@2@$00@std@@QEAA@U_One_then_variadic_args_t@1@$$QEAV?$allocator@U_Grp_t@?$_Tgt_state_t@V?$_String_const_iterator@V?$_String_val@U?$_Simple_types@D@std@@@std@@@std@@@std@@@1@$$QEAPEAU_Grp_t@?$_Tgt_state_t@V?$_String_const_iterator@V?$_String_val@U?$_Simple_types@D@std@@@std@@@std@@@1@22@Z
	??$?0V?$allocator@Uwhisper_grammar_candidate@@@std@@PEAUwhisper_grammar_candidate@@PEAU2@PEAU2@@?$_Compressed_pair@V?$allocator@Uwhisper_grammar_candidate@@@std@@V?$_Vector_val@U?$_Simple_types@Uwhisper_grammar_candidate@@@std@@@2@$00@std@@QEAA@U_One_then_variadic_args_t@1@$$QEAV?$allocator@Uwhisper_grammar_candidate@@@1@$$QEAPEAUwhisper_grammar_candidate@@22@Z
	??$?0V?$allocator@Uwhisper_grammar_element@@@std@@$$V@?$_Compressed_pair@V?$allocator@Uwhisper_grammar_element@@@std@@V?$_Vector_val@U?$_Simple_types@Uwhisper_grammar_element@@@std@@@2@$00@std@@QEAA@U_One_then_variadic_args_t@1@$$QEAV?$allocator@Uwhisper_grammar_element@@@1@@Z
	??$?0V?$allocator@Uwhisper_token_data@@@std@@$$V@?$_Compressed_pair@V?$allocator@Uwhisper_token_data@@@std@@V?$_Vector_val@U?$_Simple_types@Uwhisper_token_data@@@std@@@2@$00@std@@QEAA@U_One_then_variadic_args_t@1@$$QEAV?$allocator@Uwhisper_token_data@@@1@@Z
	??$?0V?$allocator@Uwhisper_token_data@@@std@@PEAUwhisper_token_data@@PEAU2@PEAU2@@?$_Compressed_pair@V?$allocator@Uwhisper_token_data@@@std@@V?$_Vector_val@U?$_Simple_types@Uwhisper_token_data@@@std@@@2@$00@std@@QEAA@U_One_then_variadic_args_t@1@$$QEAV?$allocator@Uwhisper_token_data@@@1@$$QEAPEAUwhisper_token_data@@22@Z
	??$?0V?$allocator@V?$vector@PEBUwhisper_grammar_element@@V?$allocator@PEBUwhisper_grammar_element@@@std@@@std@@@std@@$$V@?$_Compressed_pair@V?$allocator@V?$vector@PEBUwhisper_grammar_element@@V?$allocator@PEBUwhisper_grammar_element@@@std@@@std@@@std@@V?$_Vector_val@U?$_Simple_types@V?$vector@PEBUwhisper_grammar_element@@V?$allocator@PEBUwhisper_grammar_element@@@std@@@std@@@std@@@2@$00@std@@QEAA@U_One_then_variadic_args_t@1@$$QEAV?$allocator@V?$vector@PEBUwhisper_grammar_element@@V?$allocator@PEBUwhisper_grammar_element@@@std@@@std@@@1@@Z
	??$?0V?$allocator@V?$vector@PEBUwhisper_grammar_element@@V?$allocator@PEBUwhisper_grammar_element@@@std@@@std@@@std@@PEAV?$vector@PEBUwhisper_grammar_element@@V?$allocator@PEBUwhisper_grammar_element@@@std@@@1@PEAV21@PEAV21@@?$_Compressed_pair@V?$allocator@V?$vector@PEBUwhisper_grammar_element@@V?$allocator@PEBUwhisper_grammar_element@@@std@@@std@@@std@@V?$_Vector_val@U?$_Simple_types@V?$vector@PEBUwhisper_grammar_element@@V?$allocator@PEBUwhisper_grammar_element@@@std@@@std@@@std@@@2@$00@std@@QEAA@U_One_then_variadic_args_t@1@$$QEAV?$allocator@V?$vector@PEBUwhisper_grammar_element@@V?$allocator@PEBUwhisper_grammar_element@@@std@@@std@@@1@$$QEAPEAV?$vector@PEBUwhisper_grammar_element@@V?$allocator@PEBUwhisper_grammar_element@@@std@@@1@22@Z
	??$?0V?$allocator@V?$vector@Uwhisper_grammar_element@@V?$allocator@Uwhisper_grammar_element@@@std@@@std@@@std@@$$V@?$_Compressed_pair@V?$allocator@V?$vector@Uwhisper_grammar_element@@V?$allocator@Uwhisper_grammar_element@@@std@@@std@@@std@@V?$_Vector_val@U?$_Simple_types@V?$vector@Uwhisper_grammar_element@@V?$allocator@Uwhisper_grammar_element@@@std@@@std@@@std@@@2@$00@std@@QEAA@U_One_then_variadic_args_t@1@$$QEAV?$allocator@V?$vector@Uwhisper_grammar_element@@V?$allocator@Uwhisper_grammar_element@@@std@@@std@@@1@@Z
	??$?0V?$allocator@V?$vector@Uwhisper_grammar_element@@V?$allocator@Uwhisper_grammar_element@@@std@@@std@@@std@@PEAV?$vector@Uwhisper_grammar_element@@V?$allocator@Uwhisper_grammar_element@@@std@@@1@PEAV21@PEAV21@@?$_Compressed_pair@V?$allocator@V?$vector@Uwhisper_grammar_element@@V?$allocator@Uwhisper_grammar_element@@@std@@@std@@@std@@V?$_Vector_val@U?$_Simple_types@V?$vector@Uwhisper_grammar_element@@V?$allocator@Uwhisper_grammar_element@@@std@@@std@@@std@@@2@$00@std@@QEAA@U_One_then_variadic_args_t@1@$$QEAV?$allocator@V?$vector@Uwhisper_grammar_element@@V?$allocator@Uwhisper_grammar_element@@@std@@@std@@@1@$$QEAPEAV?$vector@Uwhisper_grammar_element@@V?$allocator@Uwhisper_grammar_element@@@std@@@1@22@Z
	??$?0V?$allocator@_W@std@@$$V@?$_Compressed_pair@V?$allocator@_W@std@@V?$_String_val@U?$_Simple_types@_W@std@@@2@$00@std@@QEAA@U_One_then_variadic_args_t@1@$$QEAV?$allocator@_W@1@@Z
	??$?0V?$basic_string@DU?$char_traits@D@std@@V?$allocator@D@2@@std@@$$V$0A@@?$tuple@$$QEAV?$basic_string@DU?$char_traits@D@std@@V?$allocator@D@2@@std@@@std@@QEAA@$$QEAV?$basic_string@DU?$char_traits@D@std@@V?$allocator@D@2@@1@@Z
	??$?0V?$basic_string@DU?$char_traits@D@std@@V?$allocator@D@2@@std@@@?$_Tuple_val@$$QEAV?$basic_string@DU?$char_traits@D@std@@V?$allocator@D@2@@std@@@std@@QEAA@$$QEAV?$basic_string@DU?$char_traits@D@std@@V?$allocator@D@2@@1@@Z
	??$?0V?$codecvt_utf8@_W$0BAPPPP@$0A@@std@@@locale@std@@QEAA@AEBV01@PEBV?$codecvt_utf8@_W$0BAPPPP@$0A@@1@@Z
	??$?0V?$reference_wrapper@$$CBUwhisper_filters@@@std@@@?$_Tuple_val@V?$reference_wrapper@$$CBUwhisper_filters@@@std@@@std@@QEAA@$$QEAV?$reference_wrapper@$$CBUwhisper_filters@@@1@@Z
	??$?0V?$reference_wrapper@$$CBV?$vector@MV?$allocator@M@std@@@std@@@std@@@?$_Tuple_val@V?$reference_wrapper@$$CBV?$vector@MV?$allocator@M@std@@@std@@@std@@@std@@QEAA@$$QEAV?$reference_wrapper@$$CBV?$vector@MV?$allocator@M@std@@@std@@@1@@Z
	??$?0V?$reference_wrapper@Uwhisper_mel@@@std@@@?$_Tuple_val@V?$reference_wrapper@Uwhisper_mel@@@std@@@std@@QEAA@$$QEAV?$reference_wrapper@Uwhisper_mel@@@1@@Z
	??$?0V?$tuple@$$QEAV?$basic_string@DU?$char_traits@D@std@@V?$allocator@D@2@@std@@@std@@V?$tuple@$$V@1@$0A@$$Z$S@?$pair@$$CBV?$basic_string@DU?$char_traits@D@std@@V?$allocator@D@2@@std@@PEAUggml_tensor@@@std@@AEAA@AEAV?$tuple@$$QEAV?$basic_string@DU?$char_traits@D@std@@V?$allocator@D@2@@std@@@1@AEAV?$tuple@$$V@1@U?$integer_sequence@_K$0A@@1@U?$integer_sequence@_K$S@1@@Z
	??$?0V?$tuple@AEBH@std@@V?$tuple@$$V@1@$0A@$$Z$S@?$pair@$$CBHH@std@@AEAA@AEAV?$tuple@AEBH@1@AEAV?$tuple@$$V@1@U?$integer_sequence@_K$0A@@1@U?$integer_sequence@_K$S@1@@Z
	??$?0V?$tuple@AEBH@std@@V?$tuple@$$V@1@$0A@$$Z$S@?$pair@$$CBHV?$basic_string@DU?$char_traits@D@std@@V?$allocator@D@2@@std@@@std@@AEAA@AEAV?$tuple@AEBH@1@AEAV?$tuple@$$V@1@U?$integer_sequence@_K$0A@@1@U?$integer_sequence@_K$S@1@@Z
	??$?0V?$tuple@AEBQEAUggml_backend_buffer_type@@@std@@V?$tuple@$$V@1@$0A@$$Z$S@?$pair@QEAUggml_backend_buffer_type@@PEAUggml_context@@@std@@AEAA@AEAV?$tuple@AEBQEAUggml_backend_buffer_type@@@1@AEAV?$tuple@$$V@1@U?$integer_sequence@_K$0A@@1@U?$integer_sequence@_K$S@1@@Z
	??$?0V?$tuple@AEBV?$basic_string@DU?$char_traits@D@std@@V?$allocator@D@2@@std@@@std@@V?$tuple@$$V@1@$0A@$$Z$S@?$pair@$$CBV?$basic_string@DU?$char_traits@D@std@@V?$allocator@D@2@@std@@H@std@@AEAA@AEAV?$tuple@AEBV?$basic_string@DU?$char_traits@D@std@@V?$allocator@D@2@@std@@@1@AEAV?$tuple@$$V@1@U?$integer_sequence@_K$0A@@1@U?$integer_sequence@_K$S@1@@Z
	??$?0V?$vector@IV?$allocator@I@std@@@std@@Uwhisper_partial_utf8@@$0A@@?$pair@V?$vector@IV?$allocator@I@std@@@std@@Uwhisper_partial_utf8@@@std@@QEAA@$$QEAV?$vector@IV?$allocator@I@std@@@1@$$QEAUwhisper_partial_utf8@@@Z
	??$?0W4asr_tensor@@AEAY0BA@$$CBD$0A@@?$pair@$$CBW4asr_tensor@@PEBD@std@@QEAA@$$QEAW4asr_tensor@@AEAY0BA@$$CBD@Z
	??$?0W4asr_tensor@@AEAY0BC@$$CBD$0A@@?$pair@$$CBW4asr_tensor@@PEBD@std@@QEAA@$$QEAW4asr_tensor@@AEAY0BC@$$CBD@Z
	??$?0W4asr_tensor@@AEAY0BD@$$CBD$0A@@?$pair@$$CBW4asr_tensor@@PEBD@std@@QEAA@$$QEAW4asr_tensor@@AEAY0BD@$$CBD@Z
	??$?0W4asr_tensor@@AEAY0BF@$$CBD$0A@@?$pair@$$CBW4asr_tensor@@PEBD@std@@QEAA@$$QEAW4asr_tensor@@AEAY0BF@$$CBD@Z
	??$?0W4asr_tensor@@AEAY0BH@$$CBD$0A@@?$pair@$$CBW4asr_tensor@@PEBD@std@@QEAA@$$QEAW4asr_tensor@@AEAY0BH@$$CBD@Z
	??$?0W4asr_tensor@@AEAY0BN@$$CBD$0A@@?$pair@$$CBW4asr_tensor@@PEBD@std@@QEAA@$$QEAW4asr_tensor@@AEAY0BN@$$CBD@Z
	??$?0W4asr_tensor@@AEAY0BO@$$CBD$0A@@?$pair@$$CBW4asr_tensor@@PEBD@std@@QEAA@$$QEAW4asr_tensor@@AEAY0BO@$$CBD@Z
	??$?0W4asr_tensor@@AEAY0BP@$$CBD$0A@@?$pair@$$CBW4asr_tensor@@PEBD@std@@QEAA@$$QEAW4asr_tensor@@AEAY0BP@$$CBD@Z
	??$?0W4asr_tensor@@AEAY0CA@$$CBD$0A@@?$pair@$$CBW4asr_tensor@@PEBD@std@@QEAA@$$QEAW4asr_tensor@@AEAY0CA@$$CBD@Z
	??$?0W4asr_tensor@@AEAY0CB@$$CBD$0A@@?$pair@$$CBW4asr_tensor@@PEBD@std@@QEAA@$$QEAW4asr_tensor@@AEAY0CB@$$CBD@Z
	??$?0W4asr_tensor@@AEAY0CC@$$CBD$0A@@?$pair@$$CBW4asr_tensor@@PEBD@std@@QEAA@$$QEAW4asr_tensor@@AEAY0CC@$$CBD@Z
	??$?0W4asr_tensor@@AEAY0CE@$$CBD$0A@@?$pair@$$CBW4asr_tensor@@PEBD@std@@QEAA@$$QEAW4asr_tensor@@AEAY0CE@$$CBD@Z
	??$?0W4asr_tensor@@AEAY0CF@$$CBD$0A@@?$pair@$$CBW4asr_tensor@@PEBD@std@@QEAA@$$QEAW4asr_tensor@@AEAY0CF@$$CBD@Z
	??$?0W4asr_tensor@@AEAY0CG@$$CBD$0A@@?$pair@$$CBW4asr_tensor@@PEBD@std@@QEAA@$$QEAW4asr_tensor@@AEAY0CG@$$CBD@Z
	??$?0W4asr_tensor@@AEAY0CH@$$CBD$0A@@?$pair@$$CBW4asr_tensor@@PEBD@std@@QEAA@$$QEAW4asr_tensor@@AEAY0CH@$$CBD@Z
	??$?0W4asr_tensor@@AEAY0CI@$$CBD$0A@@?$pair@$$CBW4asr_tensor@@PEBD@std@@QEAA@$$QEAW4asr_tensor@@AEAY0CI@$$CBD@Z
	??$?0W4asr_tensor@@AEAY0CK@$$CBD$0A@@?$pair@$$CBW4asr_tensor@@PEBD@std@@QEAA@$$QEAW4asr_tensor@@AEAY0CK@$$CBD@Z
	??$?0W4asr_tensor@@W4ggml_op@@$0A@@?$pair@$$CBW4asr_tensor@@W4ggml_op@@@std@@QEAA@$$QEAW4asr_tensor@@$$QEAW4ggml_op@@@Z
	??$?0W4e_model@@AEAY04$$CBD$0A@@?$pair@$$CBW4e_model@@V?$basic_string@DU?$char_traits@D@std@@V?$allocator@D@2@@std@@@std@@QEAA@$$QEAW4e_model@@AEAY04$$CBD@Z
	??$?0W4e_model@@AEAY05$$CBD$0A@@?$pair@$$CBW4e_model@@V?$basic_string@DU?$char_traits@D@std@@V?$allocator@D@2@@std@@@std@@QEAA@$$QEAW4e_model@@AEAY05$$CBD@Z
	??$?0W4e_model@@AEAY06$$CBD$0A@@?$pair@$$CBW4e_model@@V?$basic_string@DU?$char_traits@D@std@@V?$allocator@D@2@@std@@@std@@QEAA@$$QEAW4e_model@@AEAY06$$CBD@Z
	??$?0W4e_model@@AEAY07$$CBD$0A@@?$pair@$$CBW4e_model@@V?$basic_string@DU?$char_traits@D@std@@V?$allocator@D@2@@std@@@std@@QEAA@$$QEAW4e_model@@AEAY07$$CBD@Z
	??$?0W4vad_tensor@@AEAY0BL@$$CBD$0A@@?$pair@$$CBW4vad_tensor@@PEBD@std@@QEAA@$$QEAW4vad_tensor@@AEAY0BL@$$CBD@Z
	??$?0W4vad_tensor@@AEAY0BN@$$CBD$0A@@?$pair@$$CBW4vad_tensor@@PEBD@std@@QEAA@$$QEAW4vad_tensor@@AEAY0BN@$$CBD@Z
	??$?0W4vad_tensor@@AEAY0BO@$$CBD$0A@@?$pair@$$CBW4vad_tensor@@PEBD@std@@QEAA@$$QEAW4vad_tensor@@AEAY0BO@$$CBD@Z
	??$?0W4vad_tensor@@AEAY0CA@$$CBD$0A@@?$pair@$$CBW4vad_tensor@@PEBD@std@@QEAA@$$QEAW4vad_tensor@@AEAY0CA@$$CBD@Z
	??$?0W4vad_tensor@@AEAY0CB@$$CBD$0A@@?$pair@$$CBW4vad_tensor@@PEBD@std@@QEAA@$$QEAW4vad_tensor@@AEAY0CB@$$CBD@Z
	??$?0W4vad_tensor@@AEAY0CD@$$CBD$0A@@?$pair@$$CBW4vad_tensor@@PEBD@std@@QEAA@$$QEAW4vad_tensor@@AEAY0CD@$$CBD@Z
	??$?0W4vad_tensor@@AEAY0CF@$$CBD$0A@@?$pair@$$CBW4vad_tensor@@PEBD@std@@QEAA@$$QEAW4vad_tensor@@AEAY0CF@$$CBD@Z
	??$?0W4vad_tensor@@W4ggml_op@@$0A@@?$pair@$$CBW4vad_tensor@@W4ggml_op@@@std@@QEAA@$$QEAW4vad_tensor@@$$QEAW4ggml_op@@@Z
	??$?0_J@?$_Tuple_val@_J@std@@QEAA@$$QEA_J@Z
	??$?0_N@?$allocator@I@std@@QEAA@AEBV?$allocator@_N@1@@Z
	??$?0_NAEAPEBUwhisper_grammar_element@@$0A@@?$pair@_NPEBUwhisper_grammar_element@@@std@@QEAA@$$QEA_NAEAPEBUwhisper_grammar_element@@@Z
	??$?6U?$char_traits@D@std@@@std@@YAAEAV?$basic_ostream@DU?$char_traits@D@std@@@0@AEAV10@PEBD@Z
	??$?8DU?$char_traits@D@std@@V?$allocator@D@1@@std@@YA_NAEBV?$basic_string@DU?$char_traits@D@std@@V?$allocator@D@2@@0@0@Z
	??$?8DU?$char_traits@D@std@@V?$allocator@D@1@@std@@YA_NAEBV?$basic_string@DU?$char_traits@D@std@@V?$allocator@D@2@@0@QEBD@Z
	??$?HDU?$char_traits@D@std@@V?$allocator@D@1@@std@@YA?AV?$basic_string@DU?$char_traits@D@std@@V?$allocator@D@2@@0@$$QEAV10@0@Z
	??$?HDU?$char_traits@D@std@@V?$allocator@D@1@@std@@YA?AV?$basic_string@DU?$char_traits@D@std@@V?$allocator@D@2@@0@$$QEAV10@QEBD@Z
	??$?HDU?$char_traits@D@std@@V?$allocator@D@1@@std@@YA?AV?$basic_string@DU?$char_traits@D@std@@V?$allocator@D@2@@0@QEBD$$QEAV10@@Z
	??$?HDU?$char_traits@D@std@@V?$allocator@D@1@@std@@YA?AV?$basic_string@DU?$char_traits@D@std@@V?$allocator@D@2@@0@QEBDAEBV10@@Z
	??$?MDU?$char_traits@D@std@@V?$allocator@D@1@@std@@YA_NAEBV?$basic_string@DU?$char_traits@D@std@@V?$allocator@D@2@@0@0@Z
	??$?NDU?$char_traits@D@std@@V?$allocator@D@1@@std@@YA_NAEBV?$basic_string@DU?$char_traits@D@std@@V?$allocator@D@2@@0@0@Z
	??$?ODU?$char_traits@D@std@@V?$allocator@D@1@@std@@YA_NAEBV?$basic_string@DU?$char_traits@D@std@@V?$allocator@D@2@@0@0@Z
	??$?RAEAMAEAM@?$less@X@std@@QEBA_NAEAM0@Z
	??$?RAEBDAEBD@?$equal_to@X@std@@QEBA_NAEBD0@Z
	??$?RAEBMAEBM@?$less@X@std@@QEBA_NAEBM0@Z
	??$?RAEBNAEBN@?$less@X@std@@QEBA_NAEBN0@Z
	??$?RV?$mersenne_twister_engine@I$0CA@$0CHA@$0BIN@$0BP@$0JJAILANP@$0L@$0PPPPPPPP@$06$0JNCMFGIA@$0P@$0OPMGAAAA@$0BC@$0GMAHIJGF@@std@@@?$discrete_distribution@H@std@@QEAAHAEAV?$mersenne_twister_engine@I$0CA@$0CHA@$0BIN@$0BP@$0JJAILANP@$0L@$0PPPPPPPP@$06$0JNCMFGIA@$0P@$0OPMGAAAA@$0BC@$0GMAHIJGF@@1@@Z
	??$_Adl_verify_range@PEADPEAD@std@@YAXAEBQEAD0@Z
	??$_Adl_verify_range@PEAHPEAH@std@@YAXAEBQEAH0@Z
	??$_Adl_verify_range@PEANPEAN@std@@YAXAEBQEAN0@Z
	??$_Adl_verify_range@PEBDPEBD@std@@YAXAEBQEBD0@Z
	??$_Adl_verify_range@PEBHPEBH@std@@YAXAEBQEBH0@Z
	??$_Adl_verify_range@PEBMPEBM@std@@YAXAEBQEBM0@Z
	??$_Adl_verify_range@V?$_String_const_iterator@V?$_String_val@U?$_Simple_types@D@std@@@std@@@std@@V12@@std@@YAXAEBV?$_String_const_iterator@V?$_String_val@U?$_Simple_types@D@std@@@std@@@0@0@Z
	??$_Adl_verify_range@V?$_String_iterator@V?$_String_val@U?$_Simple_types@D@std@@@std@@@std@@V12@@std@@YAXAEBV?$_String_iterator@V?$_String_val@U?$_Simple_types@D@std@@@std@@@0@0@Z
	??$_Adl_verify_range@V?$_Tree_unchecked_const_iterator@V?$_Tree_val@U?$_Tree_simple_types@H@std@@@std@@U_Iterator_base0@2@@std@@V12@@std@@YAXAEBV?$_Tree_unchecked_const_iterator@V?$_Tree_val@U?$_Tree_simple_types@H@std@@@std@@U_Iterator_base0@2@@0@0@Z
	??$_Adl_verify_range@V?$_Vb_iterator@U?$_Wrap_alloc@V?$allocator@I@std@@@std@@@std@@V12@@std@@YAXAEBV?$_Vb_iterator@U?$_Wrap_alloc@V?$allocator@I@std@@@std@@@0@0@Z
	??$_Adl_verify_range@V?$_Vector_const_iterator@V?$_Vector_val@U?$_Simple_types@M@std@@@std@@@std@@V12@@std@@YAXAEBV?$_Vector_const_iterator@V?$_Vector_val@U?$_Simple_types@M@std@@@std@@@0@0@Z
	??$_Adl_verify_range@V?$_Vector_const_iterator@V?$_Vector_val@U?$_Simple_types@N@std@@@std@@@std@@V12@@std@@YAXAEBV?$_Vector_const_iterator@V?$_Vector_val@U?$_Simple_types@N@std@@@std@@@0@0@Z
	??$_Adl_verify_range@V?$_Vector_const_iterator@V?$_Vector_val@U?$_Simple_types@PEBUwhisper_grammar_element@@@std@@@std@@@std@@V12@@std@@YAXAEBV?$_Vector_const_iterator@V?$_Vector_val@U?$_Simple_types@PEBUwhisper_grammar_element@@@std@@@std@@@0@0@Z
	??$_Adl_verify_range@V?$_Vector_const_iterator@V?$_Vector_val@U?$_Simple_types@Uvad_time_mapping@@@std@@@std@@@std@@V12@@std@@YAXAEBV?$_Vector_const_iterator@V?$_Vector_val@U?$_Simple_types@Uvad_time_mapping@@@std@@@std@@@0@0@Z
	??$_Adl_verify_range@V?$_Vector_iterator@V?$_Vector_val@U?$_Simple_types@H@std@@@std@@@std@@V12@@std@@YAXAEBV?$_Vector_iterator@V?$_Vector_val@U?$_Simple_types@H@std@@@std@@@0@0@Z
	??$_Adl_verify_range@V?$_Vector_iterator@V?$_Vector_val@U?$_Simple_types@M@std@@@std@@@std@@V12@@std@@YAXAEBV?$_Vector_iterator@V?$_Vector_val@U?$_Simple_types@M@std@@@std@@@0@0@Z
	??$_Adl_verify_range@V?$_Vector_iterator@V?$_Vector_val@U?$_Simple_types@U?$whisper_pair@NH@@@std@@@std@@@std@@V12@@std@@YAXAEBV?$_Vector_iterator@V?$_Vector_val@U?$_Simple_types@U?$whisper_pair@NH@@@std@@@std@@@0@0@Z
	??$_Adl_verify_range@V?$_Vector_iterator@V?$_Vector_val@U?$_Simple_types@Uvad_time_mapping@@@std@@@std@@@std@@V12@@std@@YAXAEBV?$_Vector_iterator@V?$_Vector_val@U?$_Simple_types@Uvad_time_mapping@@@std@@@std@@@0@0@Z
	??$_Adl_verify_range@V?$_Vector_iterator@V?$_Vector_val@U?$_Simple_types@Uwhisper_token_data@@@std@@@std@@@std@@V12@@std@@YAXAEBV?$_Vector_iterator@V?$_Vector_val@U?$_Simple_types@Uwhisper_token_data@@@std@@@std@@@0@0@Z
	??$_Allocate@$0BA@U_Default_allocate_traits@std@@@std@@YAPEAX_K@Z
	??$_Allocate_at_least_helper@V?$allocator@D@std@@@std@@YAPEADAEAV?$allocator@D@0@AEA_K@Z
	??$_Allocate_at_least_helper@V?$allocator@E@std@@@std@@YAPEAEAEAV?$allocator@E@0@AEA_K@Z
	??$_Allocate_at_least_helper@V?$allocator@H@std@@@std@@YAPEAHAEAV?$allocator@H@0@AEA_K@Z
	??$_Allocate_at_least_helper@V?$allocator@I@std@@@std@@YAPEAIAEAV?$allocator@I@0@AEA_K@Z
	??$_Allocate_at_least_helper@V?$allocator@M@std@@@std@@YAPEAMAEAV?$allocator@M@0@AEA_K@Z
	??$_Allocate_at_least_helper@V?$allocator@N@std@@@std@@YAPEANAEAV?$allocator@N@0@AEA_K@Z
	??$_Allocate_at_least_helper@V?$allocator@PEAUggml_backend@@@std@@@std@@YAPEAPEAUggml_backend@@AEAV?$allocator@PEAUggml_backend@@@0@AEA_K@Z
	??$_Allocate_at_least_helper@V?$allocator@PEAUggml_backend_buffer@@@std@@@std@@YAPEAPEAUggml_backend_buffer@@AEAV?$allocator@PEAUggml_backend_buffer@@@0@AEA_K@Z
	??$_Allocate_at_least_helper@V?$allocator@PEAUggml_context@@@std@@@std@@YAPEAPEAUggml_context@@AEAV?$allocator@PEAUggml_context@@@0@AEA_K@Z
	??$_Allocate_at_least_helper@V?$allocator@PEAUggml_tensor@@@std@@@std@@YAPEAPEAUggml_tensor@@AEAV?$allocator@PEAUggml_tensor@@@0@AEA_K@Z
	??$_Allocate_at_least_helper@V?$allocator@PEAUwhisper_state@@@std@@@std@@YAPEAPEAUwhisper_state@@AEAV?$allocator@PEAUwhisper_state@@@0@AEA_K@Z
	??$_Allocate_at_least_helper@V?$allocator@PEBUwhisper_grammar_element@@@std@@@std@@YAPEAPEBUwhisper_grammar_element@@AEAV?$allocator@PEBUwhisper_grammar_element@@@0@AEA_K@Z
	??$_Allocate_at_least_helper@V?$allocator@U?$pair@PEAUggml_backend_device@@PEAUggml_backend_buffer_type@@@std@@@std@@@std@@YAPEAU?$pair@PEAUggml_backend_device@@PEAUggml_backend_buffer_type@@@0@AEAV?$allocator@U?$pair@PEAUggml_backend_device@@PEAUggml_backend_buffer_type@@@std@@@0@AEA_K@Z
	??$_Allocate_at_least_helper@V?$allocator@U?$pair@V?$vector@IV?$allocator@I@std@@@std@@Uwhisper_partial_utf8@@@std@@@std@@@std@@YAPEAU?$pair@V?$vector@IV?$allocator@I@std@@@std@@Uwhisper_partial_utf8@@@0@AEAV?$allocator@U?$pair@V?$vector@IV?$allocator@I@std@@@std@@Uwhisper_partial_utf8@@@std@@@0@AEA_K@Z
	??$_Allocate_at_least_helper@V?$allocator@U?$whisper_pair@NH@@@std@@@std@@YAPEAU?$whisper_pair@NH@@AEAV?$allocator@U?$whisper_pair@NH@@@0@AEA_K@Z
	??$_Allocate_at_least_helper@V?$allocator@U_Grp_t@?$_Tgt_state_t@PEBD@std@@@std@@@std@@YAPEAU_Grp_t@?$_Tgt_state_t@PEBD@0@AEAV?$allocator@U_Grp_t@?$_Tgt_state_t@PEBD@std@@@0@AEA_K@Z
	??$_Allocate_at_least_helper@V?$allocator@U_Grp_t@?$_Tgt_state_t@V?$_String_const_iterator@V?$_String_val@U?$_Simple_types@D@std@@@std@@@std@@@std@@@std@@@std@@YAPEAU_Grp_t@?$_Tgt_state_t@V?$_String_const_iterator@V?$_String_val@U?$_Simple_types@D@std@@@std@@@std@@@0@AEAV?$allocator@U_Grp_t@?$_Tgt_state_t@V?$_String_const_iterator@V?$_String_val@U?$_Simple_types@D@std@@@std@@@std@@@std@@@0@AEA_K@Z
	??$_Allocate_at_least_helper@V?$allocator@U_Loop_vals_v2_t@std@@@std@@@std@@YAPEAU_Loop_vals_v2_t@0@AEAV?$allocator@U_Loop_vals_v2_t@std@@@0@AEA_K@Z
	??$_Allocate_at_least_helper@V?$allocator@Uvad_segment_info@whisper_state@@@std@@@std@@YAPEAUvad_segment_info@whisper_state@@AEAV?$allocator@Uvad_segment_info@whisper_state@@@0@AEA_K@Z
	??$_Allocate_at_least_helper@V?$allocator@Uvad_time_mapping@@@std@@@std@@YAPEAUvad_time_mapping@@AEAV?$allocator@Uvad_time_mapping@@@0@AEA_K@Z
	??$_Allocate_at_least_helper@V?$allocator@Uwhisper_grammar_candidate@@@std@@@std@@YAPEAUwhisper_grammar_candidate@@AEAV?$allocator@Uwhisper_grammar_candidate@@@0@AEA_K@Z
	??$_Allocate_at_least_helper@V?$allocator@Uwhisper_grammar_element@@@std@@@std@@YAPEAUwhisper_grammar_element@@AEAV?$allocator@Uwhisper_grammar_element@@@0@AEA_K@Z
	??$_Allocate_at_least_helper@V?$allocator@Uwhisper_kv_cell@@@std@@@std@@YAPEAUwhisper_kv_cell@@AEAV?$allocator@Uwhisper_kv_cell@@@0@AEA_K@Z
	??$_Allocate_at_least_helper@V?$allocator@Uwhisper_layer_decoder@@@std@@@std@@YAPEAUwhisper_layer_decoder@@AEAV?$allocator@Uwhisper_layer_decoder@@@0@AEA_K@Z
	??$_Allocate_at_least_helper@V?$allocator@Uwhisper_layer_encoder@@@std@@@std@@YAPEAUwhisper_layer_encoder@@AEAV?$allocator@Uwhisper_layer_encoder@@@0@AEA_K@Z
	??$_Allocate_at_least_helper@V?$allocator@Uwhisper_segment@@@std@@@std@@YAPEAUwhisper_segment@@AEAV?$allocator@Uwhisper_segment@@@0@AEA_K@Z
	??$_Allocate_at_least_helper@V?$allocator@Uwhisper_token_data@@@std@@@std@@YAPEAUwhisper_token_data@@AEAV?$allocator@Uwhisper_token_data@@@0@AEA_K@Z
	??$_Allocate_at_least_helper@V?$allocator@Uwhisper_vad_segment@@@std@@@std@@YAPEAUwhisper_vad_segment@@AEAV?$allocator@Uwhisper_vad_segment@@@0@AEA_K@Z
	??$_Allocate_at_least_helper@V?$allocator@V?$_Tgt_state_t@PEBD@std@@@std@@@std@@YAPEAV?$_Tgt_state_t@PEBD@0@AEAV?$allocator@V?$_Tgt_state_t@PEBD@std@@@0@AEA_K@Z
	??$_Allocate_at_least_helper@V?$allocator@V?$_Tgt_state_t@V?$_String_const_iterator@V?$_String_val@U?$_Simple_types@D@std@@@std@@@std@@@std@@@std@@@std@@YAPEAV?$_Tgt_state_t@V?$_String_const_iterator@V?$_String_val@U?$_Simple_types@D@std@@@std@@@std@@@0@AEAV?$allocator@V?$_Tgt_state_t@V?$_String_const_iterator@V?$_String_val@U?$_Simple_types@D@std@@@std@@@std@@@std@@@0@AEA_K@Z
	??$_Allocate_at_least_helper@V?$allocator@V?$basic_string@DU?$char_traits@D@std@@V?$allocator@D@2@@std@@@std@@@std@@YAPEAV?$basic_string@DU?$char_traits@D@std@@V?$allocator@D@2@@0@AEAV?$allocator@V?$basic_string@DU?$char_traits@D@std@@V?$allocator@D@2@@std@@@0@AEA_K@Z
	??$_Allocate_at_least_helper@V?$allocator@V?$sub_match@PEBD@std@@@std@@@std@@YAPEAV?$sub_match@PEBD@0@AEAV?$allocator@V?$sub_match@PEBD@std@@@0@AEA_K@Z
	??$_Allocate_at_least_helper@V?$allocator@V?$sub_match@V?$_String_const_iterator@V?$_String_val@U?$_Simple_types@D@std@@@std@@@std@@@std@@@std@@@std@@YAPEAV?$sub_match@V?$_String_const_iterator@V?$_String_val@U?$_Simple_types@D@std@@@std@@@std@@@0@AEAV?$allocator@V?$sub_match@V?$_String_const_iterator@V?$_String_val@U?$_Simple_types@D@std@@@std@@@std@@@std@@@0@AEA_K@Z
	??$_Allocate_at_least_helper@V?$allocator@V?$vector@PEBUwhisper_grammar_element@@V?$allocator@PEBUwhisper_grammar_element@@@std@@@std@@@std@@@std@@YAPEAV?$vector@PEBUwhisper_grammar_element@@V?$allocator@PEBUwhisper_grammar_element@@@std@@@0@AEAV?$allocator@V?$vector@PEBUwhisper_grammar_element@@V?$allocator@PEBUwhisper_grammar_element@@@std@@@std@@@0@AEA_K@Z
	??$_Allocate_at_least_helper@V?$allocator@V?$vector@Uwhisper_grammar_element@@V?$allocator@Uwhisper_grammar_element@@@std@@@std@@@std@@@std@@YAPEAV?$vector@Uwhisper_grammar_element@@V?$allocator@Uwhisper_grammar_element@@@std@@@0@AEAV?$allocator@V?$vector@Uwhisper_grammar_element@@V?$allocator@Uwhisper_grammar_element@@@std@@@std@@@0@AEA_K@Z
	??$_Allocate_at_least_helper@V?$allocator@Vthread@std@@@std@@@std@@YAPEAVthread@0@AEAV?$allocator@Vthread@std@@@0@AEA_K@Z
	??$_Allocate_at_least_helper@V?$allocator@_K@std@@@std@@YAPEA_KAEAV?$allocator@_K@0@AEA_K@Z
	??$_Allocate_at_least_helper@V?$allocator@_W@std@@@std@@YAPEA_WAEAV?$allocator@_W@0@AEA_K@Z
	??$_Allocate_for_capacity@$0A@@?$basic_string@DU?$char_traits@D@std@@V?$allocator@D@2@@std@@CAPEADAEAV?$allocator@D@1@AEA_K@Z
	??$_Allocate_for_capacity@$0A@@?$basic_string@_WU?$char_traits@_W@std@@V?$allocator@_W@2@@std@@CAPEA_WAEAV?$allocator@_W@1@AEA_K@Z
	??$_Allocate_manually_vector_aligned@U_Default_allocate_traits@std@@@std@@YAPEAX_K@Z
	??$_Allocators_equal@V?$allocator@D@std@@@std@@YA_NAEBV?$allocator@D@0@0@Z
	??$_Append@D@?$basic_string@DU?$char_traits@D@std@@V?$allocator@D@2@@std@@AEAAAEAV01@QEBD_K@Z
	??$_Append@_W@?$basic_string@_WU?$char_traits@_W@std@@V?$allocator@_W@2@@std@@AEAAAEAV01@QEB_W_K@Z
	??$_Assign@D@?$basic_string@DU?$char_traits@D@std@@V?$allocator@D@2@@std@@AEAAAEAV01@QEBD_K@Z
	??$_Assign_counted_range@PEAI@?$vector@IV?$allocator@I@std@@@std@@AEAAXPEAI_K@Z
	??$_Assign_counted_range@PEAPEBUwhisper_grammar_element@@@?$vector@PEBUwhisper_grammar_element@@V?$allocator@PEBUwhisper_grammar_element@@@std@@@std@@AEAAXPEAPEBUwhisper_grammar_element@@_K@Z
	??$_Assign_counted_range@PEAU_Grp_t@?$_Tgt_state_t@PEBD@std@@@?$vector@U_Grp_t@?$_Tgt_state_t@PEBD@std@@V?$allocator@U_Grp_t@?$_Tgt_state_t@PEBD@std@@@3@@std@@AEAAXPEAU_Grp_t@?$_Tgt_state_t@PEBD@1@_K@Z
	??$_Assign_counted_range@PEAU_Grp_t@?$_Tgt_state_t@V?$_String_const_iterator@V?$_String_val@U?$_Simple_types@D@std@@@std@@@std@@@std@@@?$vector@U_Grp_t@?$_Tgt_state_t@V?$_String_const_iterator@V?$_String_val@U?$_Simple_types@D@std@@@std@@@std@@@std@@V?$allocator@U_Grp_t@?$_Tgt_state_t@V?$_String_const_iterator@V?$_String_val@U?$_Simple_types@D@std@@@std@@@std@@@std@@@3@@std@@AEAAXPEAU_Grp_t@?$_Tgt_state_t@V?$_String_const_iterator@V?$_String_val@U?$_Simple_types@D@std@@@std@@@std@@@1@_K@Z
	??$_Assign_counted_range@PEAUwhisper_grammar_element@@@?$vector@Uwhisper_grammar_element@@V?$allocator@Uwhisper_grammar_element@@@std@@@std@@AEAAXPEAUwhisper_grammar_element@@_K@Z
	??$_Assign_counted_range@PEAUwhisper_token_data@@@?$vector@Uwhisper_token_data@@V?$allocator@Uwhisper_token_data@@@std@@@std@@AEAAXPEAUwhisper_token_data@@_K@Z
	??$_Assign_counted_range@PEAV?$vector@PEBUwhisper_grammar_element@@V?$allocator@PEBUwhisper_grammar_element@@@std@@@std@@@?$vector@V?$vector@PEBUwhisper_grammar_element@@V?$allocator@PEBUwhisper_grammar_element@@@std@@@std@@V?$allocator@V?$vector@PEBUwhisper_grammar_element@@V?$allocator@PEBUwhisper_grammar_element@@@std@@@std@@@2@@std@@AEAAXPEAV?$vector@PEBUwhisper_grammar_element@@V?$allocator@PEBUwhisper_grammar_element@@@std@@@1@_K@Z
	??$_Assign_counted_range@PEAV?$vector@Uwhisper_grammar_element@@V?$allocator@Uwhisper_grammar_element@@@std@@@std@@@?$vector@V?$vector@Uwhisper_grammar_element@@V?$allocator@Uwhisper_grammar_element@@@std@@@std@@V?$allocator@V?$vector@Uwhisper_grammar_element@@V?$allocator@Uwhisper_grammar_element@@@std@@@std@@@2@@std@@AEAAXPEAV?$vector@Uwhisper_grammar_element@@V?$allocator@Uwhisper_grammar_element@@@std@@@1@_K@Z
	??$_Assign_counted_range@PEBH@?$vector@HV?$allocator@H@std@@@std@@AEAAXPEBH_K@Z
	??$_Atomic_address_as@JU?$_Atomic_padded@H@std@@@std@@YAPECJAEAU?$_Atomic_padded@H@0@@Z
	??$_Buyheadnode@V?$allocator@U?$_Tree_node@HPEAX@std@@@std@@@?$_Tree_node@HPEAX@std@@SAPEAU01@AEAV?$allocator@U?$_Tree_node@HPEAX@std@@@1@@Z
	??$_Buyheadnode@V?$allocator@U?$_Tree_node@U?$pair@$$CBHH@std@@PEAX@std@@@std@@@?$_Tree_node@U?$pair@$$CBHH@std@@PEAX@std@@SAPEAU01@AEAV?$allocator@U?$_Tree_node@U?$pair@$$CBHH@std@@PEAX@std@@@1@@Z
	??$_Buyheadnode@V?$allocator@U?$_Tree_node@U?$pair@$$CBHV?$basic_string@DU?$char_traits@D@std@@V?$allocator@D@2@@std@@@std@@PEAX@std@@@std@@@?$_Tree_node@U?$pair@$$CBHV?$basic_string@DU?$char_traits@D@std@@V?$allocator@D@2@@std@@@std@@PEAX@std@@SAPEAU01@AEAV?$allocator@U?$_Tree_node@U?$pair@$$CBHV?$basic_string@DU?$char_traits@D@std@@V?$allocator@D@2@@std@@@std@@PEAX@std@@@1@@Z
	??$_Buyheadnode@V?$allocator@U?$_Tree_node@U?$pair@$$CBV?$basic_string@DU?$char_traits@D@std@@V?$allocator@D@2@@std@@H@std@@PEAX@std@@@std@@@?$_Tree_node@U?$pair@$$CBV?$basic_string@DU?$char_traits@D@std@@V?$allocator@D@2@@std@@H@std@@PEAX@std@@SAPEAU01@AEAV?$allocator@U?$_Tree_node@U?$pair@$$CBV?$basic_string@DU?$char_traits@D@std@@V?$allocator@D@2@@std@@H@std@@PEAX@std@@@1@@Z
	??$_Buyheadnode@V?$allocator@U?$_Tree_node@U?$pair@$$CBV?$basic_string@DU?$char_traits@D@std@@V?$allocator@D@2@@std@@PEAUggml_tensor@@@std@@PEAX@std@@@std@@@?$_Tree_node@U?$pair@$$CBV?$basic_string@DU?$char_traits@D@std@@V?$allocator@D@2@@std@@PEAUggml_tensor@@@std@@PEAX@std@@SAPEAU01@AEAV?$allocator@U?$_Tree_node@U?$pair@$$CBV?$basic_string@DU?$char_traits@D@std@@V?$allocator@D@2@@std@@PEAUggml_tensor@@@std@@PEAX@std@@@1@@Z
	??$_Buyheadnode@V?$allocator@U?$_Tree_node@U?$pair@$$CBV?$basic_string@DU?$char_traits@D@std@@V?$allocator@D@2@@std@@U?$pair@HV?$basic_string@DU?$char_traits@D@std@@V?$allocator@D@2@@std@@@2@@std@@PEAX@std@@@std@@@?$_Tree_node@U?$pair@$$CBV?$basic_string@DU?$char_traits@D@std@@V?$allocator@D@2@@std@@U?$pair@HV?$basic_string@DU?$char_traits@D@std@@V?$allocator@D@2@@std@@@2@@std@@PEAX@std@@SAPEAU01@AEAV?$allocator@U?$_Tree_node@U?$pair@$$CBV?$basic_string@DU?$char_traits@D@std@@V?$allocator@D@2@@std@@U?$pair@HV?$basic_string@DU?$char_traits@D@std@@V?$allocator@D@2@@std@@@2@@std@@PEAX@std@@@1@@Z
	??$_Buyheadnode@V?$allocator@U?$_Tree_node@U?$pair@$$CBW4asr_system@@V?$map@W4asr_tensor@@PEBDU?$less@W4asr_tensor@@@std@@V?$allocator@U?$pair@$$CBW4asr_tensor@@PEBD@std@@@3@@std@@@std@@PEAX@std@@@std@@@?$_Tree_node@U?$pair@$$CBW4asr_system@@V?$map@W4asr_tensor@@PEBDU?$less@W4asr_tensor@@@std@@V?$allocator@U?$pair@$$CBW4asr_tensor@@PEBD@std@@@3@@std@@@std@@PEAX@std@@SAPEAU01@AEAV?$allocator@U?$_Tree_node@U?$pair@$$CBW4asr_system@@V?$map@W4asr_tensor@@PEBDU?$less@W4asr_tensor@@@std@@V?$allocator@U?$pair@$$CBW4asr_tensor@@PEBD@std@@@3@@std@@@std@@PEAX@std@@@1@@Z
	??$_Buyheadnode@V?$allocator@U?$_Tree_node@U?$pair@$$CBW4asr_tensor@@PEBD@std@@PEAX@std@@@std@@@?$_Tree_node@U?$pair@$$CBW4asr_tensor@@PEBD@std@@PEAX@std@@SAPEAU01@AEAV?$allocator@U?$_Tree_node@U?$pair@$$CBW4asr_tensor@@PEBD@std@@PEAX@std@@@1@@Z
	??$_Buyheadnode@V?$allocator@U?$_Tree_node@U?$pair@$$CBW4asr_tensor@@W4ggml_op@@@std@@PEAX@std@@@std@@@?$_Tree_node@U?$pair@$$CBW4asr_tensor@@W4ggml_op@@@std@@PEAX@std@@SAPEAU01@AEAV?$allocator@U?$_Tree_node@U?$pair@$$CBW4asr_tensor@@W4ggml_op@@@std@@PEAX@std@@@1@@Z
	??$_Buyheadnode@V?$allocator@U?$_Tree_node@U?$pair@$$CBW4e_model@@V?$basic_string@DU?$char_traits@D@std@@V?$allocator@D@2@@std@@@std@@PEAX@std@@@std@@@?$_Tree_node@U?$pair@$$CBW4e_model@@V?$basic_string@DU?$char_traits@D@std@@V?$allocator@D@2@@std@@@std@@PEAX@std@@SAPEAU01@AEAV?$allocator@U?$_Tree_node@U?$pair@$$CBW4e_model@@V?$basic_string@DU?$char_traits@D@std@@V?$allocator@D@2@@std@@@std@@PEAX@std@@@1@@Z
	??$_Buyheadnode@V?$allocator@U?$_Tree_node@U?$pair@$$CBW4vad_tensor@@PEBD@std@@PEAX@std@@@std@@@?$_Tree_node@U?$pair@$$CBW4vad_tensor@@PEBD@std@@PEAX@std@@SAPEAU01@AEAV?$allocator@U?$_Tree_node@U?$pair@$$CBW4vad_tensor@@PEBD@std@@PEAX@std@@@1@@Z
	??$_Buyheadnode@V?$allocator@U?$_Tree_node@U?$pair@$$CBW4vad_tensor@@W4ggml_op@@@std@@PEAX@std@@@std@@@?$_Tree_node@U?$pair@$$CBW4vad_tensor@@W4ggml_op@@@std@@PEAX@std@@SAPEAU01@AEAV?$allocator@U?$_Tree_node@U?$pair@$$CBW4vad_tensor@@W4ggml_op@@@std@@PEAX@std@@@1@@Z
	??$_Buyheadnode@V?$allocator@U?$_Tree_node@U?$pair@$$CBW4whisper_alignment_heads_preset@@Uwhisper_aheads@@@std@@PEAX@std@@@std@@@?$_Tree_node@U?$pair@$$CBW4whisper_alignment_heads_preset@@Uwhisper_aheads@@@std@@PEAX@std@@SAPEAU01@AEAV?$allocator@U?$_Tree_node@U?$pair@$$CBW4whisper_alignment_heads_preset@@Uwhisper_aheads@@@std@@PEAX@std@@@1@@Z
	??$_Buyheadnode@V?$allocator@U?$_Tree_node@U?$pair@QEAUggml_backend_buffer_type@@PEAUggml_context@@@std@@PEAX@std@@@std@@@?$_Tree_node@U?$pair@QEAUggml_backend_buffer_type@@PEAUggml_context@@@std@@PEAX@std@@SAPEAU01@AEAV?$allocator@U?$_Tree_node@U?$pair@QEAUggml_backend_buffer_type@@PEAUggml_context@@@std@@PEAX@std@@@1@@Z
	??$_Buynode@AEAH@?$_Tree@V?$_Tset_traits@HU?$less@H@std@@V?$allocator@H@2@$0A@@std@@@std@@IEAAPEAU?$_Tree_node@HPEAX@1@AEAH@Z
	??$_Buynode@AEAU?$pair@$$CBW4asr_tensor@@PEBD@std@@@?$_Tree@V?$_Tmap_traits@W4asr_tensor@@PEBDU?$less@W4asr_tensor@@@std@@V?$allocator@U?$pair@$$CBW4asr_tensor@@PEBD@std@@@3@$0A@@std@@@std@@IEAAPEAU?$_Tree_node@U?$pair@$$CBW4asr_tensor@@PEBD@std@@PEAX@1@AEAU?$pair@$$CBW4asr_tensor@@PEBD@1@@Z
	??$_Buynode@V?$allocator@U?$_Tree_node@HPEAX@std@@@std@@AEAH@?$_Tree_node@HPEAX@std@@SAPEAU01@AEAV?$allocator@U?$_Tree_node@HPEAX@std@@@1@PEAU01@AEAH@Z
	??$_Buynode@V?$allocator@U?$_Tree_node@U?$pair@$$CBW4asr_tensor@@PEBD@std@@PEAX@std@@@std@@AEAU?$pair@$$CBW4asr_tensor@@PEBD@2@@?$_Tree_node@U?$pair@$$CBW4asr_tensor@@PEBD@std@@PEAX@std@@SAPEAU01@AEAV?$allocator@U?$_Tree_node@U?$pair@$$CBW4asr_tensor@@PEBD@std@@PEAX@std@@@1@PEAU01@AEAU?$pair@$$CBW4asr_tensor@@PEBD@1@@Z
	??$_Cmp_chrange@PEBDPEBDU?$_Cmp_icase@V?$regex_traits@D@std@@@std@@@std@@YAPEBDPEBD000U?$_Cmp_icase@V?$regex_traits@D@std@@@0@@Z
	??$_Cmp_chrange@PEBDPEBDU?$_Cmp_icase_translateleft@V?$regex_traits@D@std@@@std@@@std@@YAPEBDPEBD000U?$_Cmp_icase_translateleft@V?$regex_traits@D@std@@@0@@Z
	??$_Cmp_chrange@PEBDPEBDU?$equal_to@D@std@@@std@@YAPEBDPEBD000U?$equal_to@D@0@@Z
	??$_Cmp_chrange@V?$_String_const_iterator@V?$_String_val@U?$_Simple_types@D@std@@@std@@@std@@PEBDU?$_Cmp_icase_translateleft@V?$regex_traits@D@std@@@2@@std@@YA?AV?$_String_const_iterator@V?$_String_val@U?$_Simple_types@D@std@@@std@@@0@V10@0PEBD1U?$_Cmp_icase_translateleft@V?$regex_traits@D@std@@@0@@Z
	??$_Cmp_chrange@V?$_String_const_iterator@V?$_String_val@U?$_Simple_types@D@std@@@std@@@std@@PEBDU?$equal_to@D@2@@std@@YA?AV?$_String_const_iterator@V?$_String_val@U?$_Simple_types@D@std@@@std@@@0@V10@0PEBD1U?$equal_to@D@0@@Z
	??$_Cmp_chrange@V?$_String_const_iterator@V?$_String_val@U?$_Simple_types@D@std@@@std@@@std@@V12@U?$_Cmp_icase@V?$regex_traits@D@std@@@2@@std@@YA?AV?$_String_const_iterator@V?$_String_val@U?$_Simple_types@D@std@@@std@@@0@V10@000U?$_Cmp_icase@V?$regex_traits@D@std@@@0@@Z
	??$_Cmp_chrange@V?$_String_const_iterator@V?$_String_val@U?$_Simple_types@D@std@@@std@@@std@@V12@U?$equal_to@D@2@@std@@YA?AV?$_String_const_iterator@V?$_String_val@U?$_Simple_types@D@std@@@std@@@0@V10@000U?$equal_to@D@0@@Z
	??$_Codecvt_do_length@V?$codecvt_utf8@_W$0BAPPPP@$0A@@std@@DU_Mbstatet@@@std@@YAHAEBV?$codecvt_utf8@_W$0BAPPPP@$0A@@0@AEAU_Mbstatet@@PEBD2_K@Z
	??$_Compare_translate_both@PEBDPEBDV?$regex_traits@D@std@@@std@@YAPEBDPEBD000AEBV?$regex_traits@D@0@W4syntax_option_type@regex_constants@0@@Z
	??$_Compare_translate_both@V?$_String_const_iterator@V?$_String_val@U?$_Simple_types@D@std@@@std@@@std@@V12@V?$regex_traits@D@2@@std@@YA?AV?$_String_const_iterator@V?$_String_val@U?$_Simple_types@D@std@@@std@@@0@V10@000AEBV?$regex_traits@D@0@W4syntax_option_type@regex_constants@0@@Z
	??$_Compare_translate_left@PEBDPEBDV?$regex_traits@D@std@@@std@@YAPEBDPEBD000AEBV?$regex_traits@D@0@W4syntax_option_type@regex_constants@0@@Z
	??$_Compare_translate_left@V?$_String_const_iterator@V?$_String_val@U?$_Simple_types@D@std@@@std@@@std@@PEBDV?$regex_traits@D@2@@std@@YA?AV?$_String_const_iterator@V?$_String_val@U?$_Simple_types@D@std@@@std@@@0@V10@0PEBD1AEBV?$regex_traits@D@0@W4syntax_option_type@regex_constants@0@@Z
	??$_Construct@$00PEAD@?$basic_string@DU?$char_traits@D@std@@V?$allocator@D@2@@std@@AEAAXQEAD_K@Z
	??$_Construct@$00PEBD@?$basic_string@DU?$char_traits@D@std@@V?$allocator@D@2@@std@@AEAAXQEBD_K@Z
	??$_Construct@$01PEBD@?$basic_string@DU?$char_traits@D@std@@V?$allocator@D@2@@std@@AEAAXQEBD_K@Z
	??$_Construct@$01PEB_W@?$basic_string@_WU?$char_traits@_W@std@@V?$allocator@_W@2@@std@@AEAAXQEB_W_K@Z
	??$_Construct_in_place@HAEBH@std@@YAXAEAHAEBH@Z
	??$_Construct_in_place@HH@std@@YAXAEAH$$QEAH@Z
	??$_Construct_in_place@IAEBI@std@@YAXAEAIAEBI@Z
	??$_Construct_in_place@II@std@@YAXAEAI$$QEAI@Z
	??$_Construct_in_place@MAEBM@std@@YAXAEAMAEBM@Z
	??$_Construct_in_place@MM@std@@YAXAEAM$$QEAM@Z
	??$_Construct_in_place@NN@std@@YAXAEAN$$QEAN@Z
	??$_Construct_in_place@PEADAEAPEAD@std@@YAXAEAPEAD0@Z
	??$_Construct_in_place@PEADAEBQEAD@std@@YAXAEAPEADAEBQEAD@Z
	??$_Construct_in_place@PEAU?$_Tree_node@HPEAX@std@@AEAPEAU12@@std@@YAXAEAPEAU?$_Tree_node@HPEAX@0@0@Z
	??$_Construct_in_place@PEAU?$_Tree_node@HPEAX@std@@AEBQEAU12@@std@@YAXAEAPEAU?$_Tree_node@HPEAX@0@AEBQEAU10@@Z
	??$_Construct_in_place@PEAU?$_Tree_node@U?$pair@$$CBHH@std@@PEAX@std@@AEAPEAU12@@std@@YAXAEAPEAU?$_Tree_node@U?$pair@$$CBHH@std@@PEAX@0@0@Z
	??$_Construct_in_place@PEAU?$_Tree_node@U?$pair@$$CBHH@std@@PEAX@std@@AEBQEAU12@@std@@YAXAEAPEAU?$_Tree_node@U?$pair@$$CBHH@std@@PEAX@0@AEBQEAU10@@Z
	??$_Construct_in_place@PEAU?$_Tree_node@U?$pair@$$CBHV?$basic_string@DU?$char_traits@D@std@@V?$allocator@D@2@@std@@@std@@PEAX@std@@AEAPEAU12@@std@@YAXAEAPEAU?$_Tree_node@U?$pair@$$CBHV?$basic_string@DU?$char_traits@D@std@@V?$allocator@D@2@@std@@@std@@PEAX@0@0@Z
	??$_Construct_in_place@PEAU?$_Tree_node@U?$pair@$$CBHV?$basic_string@DU?$char_traits@D@std@@V?$allocator@D@2@@std@@@std@@PEAX@std@@AEBQEAU12@@std@@YAXAEAPEAU?$_Tree_node@U?$pair@$$CBHV?$basic_string@DU?$char_traits@D@std@@V?$allocator@D@2@@std@@@std@@PEAX@0@AEBQEAU10@@Z
	??$_Construct_in_place@PEAU?$_Tree_node@U?$pair@$$CBV?$basic_string@DU?$char_traits@D@std@@V?$allocator@D@2@@std@@H@std@@PEAX@std@@AEAPEAU12@@std@@YAXAEAPEAU?$_Tree_node@U?$pair@$$CBV?$basic_string@DU?$char_traits@D@std@@V?$allocator@D@2@@std@@H@std@@PEAX@0@0@Z
	??$_Construct_in_place@PEAU?$_Tree_node@U?$pair@$$CBV?$basic_string@DU?$char_traits@D@std@@V?$allocator@D@2@@std@@H@std@@PEAX@std@@AEBQEAU12@@std@@YAXAEAPEAU?$_Tree_node@U?$pair@$$CBV?$basic_string@DU?$char_traits@D@std@@V?$allocator@D@2@@std@@H@std@@PEAX@0@AEBQEAU10@@Z
	??$_Construct_in_place@PEAU?$_Tree_node@U?$pair@$$CBV?$basic_string@DU?$char_traits@D@std@@V?$allocator@D@2@@std@@PEAUggml_tensor@@@std@@PEAX@std@@AEAPEAU12@@std@@YAXAEAPEAU?$_Tree_node@U?$pair@$$CBV?$basic_string@DU?$char_traits@D@std@@V?$allocator@D@2@@std@@PEAUggml_tensor@@@std@@PEAX@0@0@Z
	??$_Construct_in_place@PEAU?$_Tree_node@U?$pair@$$CBV?$basic_string@DU?$char_traits@D@std@@V?$allocator@D@2@@std@@PEAUggml_tensor@@@std@@PEAX@std@@AEBQEAU12@@std@@YAXAEAPEAU?$_Tree_node@U?$pair@$$CBV?$basic_string@DU?$char_traits@D@std@@V?$allocator@D@2@@std@@PEAUggml_tensor@@@std@@PEAX@0@AEBQEAU10@@Z
	??$_Construct_in_place@PEAU?$_Tree_node@U?$pair@$$CBV?$basic_string@DU?$char_traits@D@std@@V?$allocator@D@2@@std@@U?$pair@HV?$basic_string@DU?$char_traits@D@std@@V?$allocator@D@2@@std@@@2@@std@@PEAX@std@@AEAPEAU12@@std@@YAXAEAPEAU?$_Tree_node@U?$pair@$$CBV?$basic_string@DU?$char_traits@D@std@@V?$allocator@D@2@@std@@U?$pair@HV?$basic_string@DU?$char_traits@D@std@@V?$allocator@D@2@@std@@@2@@std@@PEAX@0@0@Z
	??$_Construct_in_place@PEAU?$_Tree_node@U?$pair@$$CBV?$basic_string@DU?$char_traits@D@std@@V?$allocator@D@2@@std@@U?$pair@HV?$basic_string@DU?$char_traits@D@std@@V?$allocator@D@2@@std@@@2@@std@@PEAX@std@@AEBQEAU12@@std@@YAXAEAPEAU?$_Tree_node@U?$pair@$$CBV?$basic_string@DU?$char_traits@D@std@@V?$allocator@D@2@@std@@U?$pair@HV?$basic_string@DU?$char_traits@D@std@@V?$allocator@D@2@@std@@@2@@std@@PEAX@0@AEBQEAU10@@Z
	??$_Construct_in_place@PEAU?$_Tree_node@U?$pair@$$CBW4asr_system@@V?$map@W4asr_tensor@@PEBDU?$less@W4asr_tensor@@@std@@V?$allocator@U?$pair@$$CBW4asr_tensor@@PEBD@std@@@3@@std@@@std@@PEAX@std@@AEAPEAU12@@std@@YAXAEAPEAU?$_Tree_node@U?$pair@$$CBW4asr_system@@V?$map@W4asr_tensor@@PEBDU?$less@W4asr_tensor@@@std@@V?$allocator@U?$pair@$$CBW4asr_tensor@@PEBD@std@@@3@@std@@@std@@PEAX@0@0@Z
	??$_Construct_in_place@PEAU?$_Tree_node@U?$pair@$$CBW4asr_system@@V?$map@W4asr_tensor@@PEBDU?$less@W4asr_tensor@@@std@@V?$allocator@U?$pair@$$CBW4asr_tensor@@PEBD@std@@@3@@std@@@std@@PEAX@std@@AEBQEAU12@@std@@YAXAEAPEAU?$_Tree_node@U?$pair@$$CBW4asr_system@@V?$map@W4asr_tensor@@PEBDU?$less@W4asr_tensor@@@std@@V?$allocator@U?$pair@$$CBW4asr_tensor@@PEBD@std@@@3@@std@@@std@@PEAX@0@AEBQEAU10@@Z
	??$_Construct_in_place@PEAU?$_Tree_node@U?$pair@$$CBW4asr_tensor@@PEBD@std@@PEAX@std@@AEAPEAU12@@std@@YAXAEAPEAU?$_Tree_node@U?$pair@$$CBW4asr_tensor@@PEBD@std@@PEAX@0@0@Z
	??$_Construct_in_place@PEAU?$_Tree_node@U?$pair@$$CBW4asr_tensor@@PEBD@std@@PEAX@std@@AEBQEAU12@@std@@YAXAEAPEAU?$_Tree_node@U?$pair@$$CBW4asr_tensor@@PEBD@std@@PEAX@0@AEBQEAU10@@Z
	??$_Construct_in_place@PEAU?$_Tree_node@U?$pair@$$CBW4asr_tensor@@W4ggml_op@@@std@@PEAX@std@@AEAPEAU12@@std@@YAXAEAPEAU?$_Tree_node@U?$pair@$$CBW4asr_tensor@@W4ggml_op@@@std@@PEAX@0@0@Z
	??$_Construct_in_place@PEAU?$_Tree_node@U?$pair@$$CBW4asr_tensor@@W4ggml_op@@@std@@PEAX@std@@AEBQEAU12@@std@@YAXAEAPEAU?$_Tree_node@U?$pair@$$CBW4asr_tensor@@W4ggml_op@@@std@@PEAX@0@AEBQEAU10@@Z
	??$_Construct_in_place@PEAU?$_Tree_node@U?$pair@$$CBW4e_model@@V?$basic_string@DU?$char_traits@D@std@@V?$allocator@D@2@@std@@@std@@PEAX@std@@AEAPEAU12@@std@@YAXAEAPEAU?$_Tree_node@U?$pair@$$CBW4e_model@@V?$basic_string@DU?$char_traits@D@std@@V?$allocator@D@2@@std@@@std@@PEAX@0@0@Z
	??$_Construct_in_place@PEAU?$_Tree_node@U?$pair@$$CBW4e_model@@V?$basic_string@DU?$char_traits@D@std@@V?$allocator@D@2@@std@@@std@@PEAX@std@@AEBQEAU12@@std@@YAXAEAPEAU?$_Tree_node@U?$pair@$$CBW4e_model@@V?$basic_string@DU?$char_traits@D@std@@V?$allocator@D@2@@std@@@std@@PEAX@0@AEBQEAU10@@Z
	??$_Construct_in_place@PEAU?$_Tree_node@U?$pair@$$CBW4vad_tensor@@PEBD@std@@PEAX@std@@AEAPEAU12@@std@@YAXAEAPEAU?$_Tree_node@U?$pair@$$CBW4vad_tensor@@PEBD@std@@PEAX@0@0@Z
	??$_Construct_in_place@PEAU?$_Tree_node@U?$pair@$$CBW4vad_tensor@@PEBD@std@@PEAX@std@@AEBQEAU12@@std@@YAXAEAPEAU?$_Tree_node@U?$pair@$$CBW4vad_tensor@@PEBD@std@@PEAX@0@AEBQEAU10@@Z
	??$_Construct_in_place@PEAU?$_Tree_node@U?$pair@$$CBW4vad_tensor@@W4ggml_op@@@std@@PEAX@std@@AEAPEAU12@@std@@YAXAEAPEAU?$_Tree_node@U?$pair@$$CBW4vad_tensor@@W4ggml_op@@@std@@PEAX@0@0@Z
	??$_Construct_in_place@PEAU?$_Tree_node@U?$pair@$$CBW4vad_tensor@@W4ggml_op@@@std@@PEAX@std@@AEBQEAU12@@std@@YAXAEAPEAU?$_Tree_node@U?$pair@$$CBW4vad_tensor@@W4ggml_op@@@std@@PEAX@0@AEBQEAU10@@Z
	??$_Construct_in_place@PEAU?$_Tree_node@U?$pair@$$CBW4whisper_alignment_heads_preset@@Uwhisper_aheads@@@std@@PEAX@std@@AEAPEAU12@@std@@YAXAEAPEAU?$_Tree_node@U?$pair@$$CBW4whisper_alignment_heads_preset@@Uwhisper_aheads@@@std@@PEAX@0@0@Z
	??$_Construct_in_place@PEAU?$_Tree_node@U?$pair@$$CBW4whisper_alignment_heads_preset@@Uwhisper_aheads@@@std@@PEAX@std@@AEBQEAU12@@std@@YAXAEAPEAU?$_Tree_node@U?$pair@$$CBW4whisper_alignment_heads_preset@@Uwhisper_aheads@@@std@@PEAX@0@AEBQEAU10@@Z
	??$_Construct_in_place@PEAU?$_Tree_node@U?$pair@QEAUggml_backend_buffer_type@@PEAUggml_context@@@std@@PEAX@std@@AEAPEAU12@@std@@YAXAEAPEAU?$_Tree_node@U?$pair@QEAUggml_backend_buffer_type@@PEAUggml_context@@@std@@PEAX@0@0@Z
	??$_Construct_in_place@PEAU?$_Tree_node@U?$pair@QEAUggml_backend_buffer_type@@PEAUggml_context@@@std@@PEAX@std@@AEBQEAU12@@std@@YAXAEAPEAU?$_Tree_node@U?$pair@QEAUggml_backend_buffer_type@@PEAUggml_context@@@std@@PEAX@0@AEBQEAU10@@Z
	??$_Construct_in_place@PEAUggml_backend@@AEBQEAU1@@std@@YAXAEAPEAUggml_backend@@AEBQEAU1@@Z
	??$_Construct_in_place@PEAUggml_backend_buffer@@AEAPEAU1@@std@@YAXAEAPEAUggml_backend_buffer@@0@Z
	??$_Construct_in_place@PEAUggml_context@@AEAPEAU1@@std@@YAXAEAPEAUggml_context@@0@Z
	??$_Construct_in_place@PEAUggml_tensor@@PEAU1@@std@@YAXAEAPEAUggml_tensor@@$$QEAPEAU1@@Z
	??$_Construct_in_place@PEAUwhisper_state@@PEAU1@@std@@YAXAEAPEAUwhisper_state@@$$QEAPEAU1@@Z
	??$_Construct_in_place@PEA_WAEAPEA_W@std@@YAXAEAPEA_W0@Z
	??$_Construct_in_place@PEA_WAEBQEA_W@std@@YAXAEAPEA_WAEBQEA_W@Z
	??$_Construct_in_place@PEBUwhisper_grammar_element@@AEBQEBU1@@std@@YAXAEAPEBUwhisper_grammar_element@@AEBQEBU1@@Z
	??$_Construct_in_place@PEBUwhisper_grammar_element@@PEBU1@@std@@YAXAEAPEBUwhisper_grammar_element@@$$QEAPEBU1@@Z
	??$_Construct_in_place@U?$pair@PEAUggml_backend_device@@PEAUggml_backend_buffer_type@@@std@@AEAPEAUggml_backend_device@@AEAPEAUggml_backend_buffer_type@@@std@@YAXAEAU?$pair@PEAUggml_backend_device@@PEAUggml_backend_buffer_type@@@0@AEAPEAUggml_backend_device@@AEAPEAUggml_backend_buffer_type@@@Z
	??$_Construct_in_place@U?$pair@PEAUggml_backend_device@@PEAUggml_backend_buffer_type@@@std@@AEAPEAUggml_backend_device@@PEAUggml_backend_buffer_type@@@std@@YAXAEAU?$pair@PEAUggml_backend_device@@PEAUggml_backend_buffer_type@@@0@AEAPEAUggml_backend_device@@$$QEAPEAUggml_backend_buffer_type@@@Z
	??$_Construct_in_place@U?$pair@V?$vector@IV?$allocator@I@std@@@std@@Uwhisper_partial_utf8@@@std@@U12@@std@@YAXAEAU?$pair@V?$vector@IV?$allocator@I@std@@@std@@Uwhisper_partial_utf8@@@0@$$QEAU10@@Z
	??$_Construct_in_place@Uvad_segment_info@whisper_state@@AEBU12@@std@@YAXAEAUvad_segment_info@whisper_state@@AEBU12@@Z
	??$_Construct_in_place@Uvad_time_mapping@@AEBU1@@std@@YAXAEAUvad_time_mapping@@AEBU1@@Z
	??$_Construct_in_place@Uvad_time_mapping@@U1@@std@@YAXAEAUvad_time_mapping@@$$QEAU1@@Z
	??$_Construct_in_place@Uwhisper_grammar_candidate@@AEBU1@@std@@YAXAEAUwhisper_grammar_candidate@@AEBU1@@Z
	??$_Construct_in_place@Uwhisper_grammar_candidate@@U1@@std@@YAXAEAUwhisper_grammar_candidate@@$$QEAU1@@Z
	??$_Construct_in_place@Uwhisper_grammar_element@@AEBU1@@std@@YAXAEAUwhisper_grammar_element@@AEBU1@@Z
	??$_Construct_in_place@Uwhisper_grammar_element@@U1@@std@@YAXAEAUwhisper_grammar_element@@$$QEAU1@@Z
	??$_Construct_in_place@Uwhisper_segment@@U1@@std@@YAXAEAUwhisper_segment@@$$QEAU1@@Z
	??$_Construct_in_place@Uwhisper_token_data@@AEBU1@@std@@YAXAEAUwhisper_token_data@@AEBU1@@Z
	??$_Construct_in_place@Uwhisper_token_data@@U1@@std@@YAXAEAUwhisper_token_data@@$$QEAU1@@Z
	??$_Construct_in_place@V?$basic_string@DU?$char_traits@D@std@@V?$allocator@D@2@@std@@V12@@std@@YAXAEAV?$basic_string@DU?$char_traits@D@std@@V?$allocator@D@2@@0@$$QEAV10@@Z
	??$_Construct_in_place@V?$vector@PEBUwhisper_grammar_element@@V?$allocator@PEBUwhisper_grammar_element@@@std@@@std@@$$V@std@@YAXAEAV?$vector@PEBUwhisper_grammar_element@@V?$allocator@PEBUwhisper_grammar_element@@@std@@@0@@Z
	??$_Construct_n@$$V@?$vector@DV?$allocator@D@std@@@std@@AEAAX_K@Z
	??$_Construct_n@$$V@?$vector@EV?$allocator@E@std@@@std@@AEAAX_K@Z
	??$_Construct_n@$$V@?$vector@MV?$allocator@M@std@@@std@@AEAAX_K@Z
	??$_Construct_n@$$V@?$vector@V?$vector@Uwhisper_grammar_element@@V?$allocator@Uwhisper_grammar_element@@@std@@@std@@V?$allocator@V?$vector@Uwhisper_grammar_element@@V?$allocator@Uwhisper_grammar_element@@@std@@@std@@@2@@std@@AEAAX_K@Z
	??$_Construct_n@$$V@?$vector@Vthread@std@@V?$allocator@Vthread@std@@@2@@std@@AEAAX_K@Z
	??$_Construct_n@AEBD@?$vector@DV?$allocator@D@std@@@std@@AEAAX_KAEBD@Z
	??$_Construct_n@AEBM@?$vector@MV?$allocator@M@std@@@std@@AEAAX_KAEBM@Z
	??$_Construct_n@AEBQEAIAEBQEAI@?$vector@IV?$allocator@I@std@@@std@@AEAAX_KAEBQEAI1@Z
	??$_Construct_n@AEBQEAPEAUggml_backend@@AEBQEAPEAU1@@?$vector@PEAUggml_backend@@V?$allocator@PEAUggml_backend@@@std@@@std@@AEAAX_KAEBQEAPEAUggml_backend@@1@Z
	??$_Construct_n@AEBQEAPEBUwhisper_grammar_element@@AEBQEAPEBU1@@?$vector@PEBUwhisper_grammar_element@@V?$allocator@PEBUwhisper_grammar_element@@@std@@@std@@AEAAX_KAEBQEAPEBUwhisper_grammar_element@@1@Z
	??$_Construct_n@AEBQEAU?$pair@PEAUggml_backend_device@@PEAUggml_backend_buffer_type@@@std@@AEBQEAU12@@?$vector@U?$pair@PEAUggml_backend_device@@PEAUggml_backend_buffer_type@@@std@@V?$allocator@U?$pair@PEAUggml_backend_device@@PEAUggml_backend_buffer_type@@@std@@@2@@std@@AEAAX_KAEBQEAU?$pair@PEAUggml_backend_device@@PEAUggml_backend_buffer_type@@@1@1@Z
	??$_Construct_n@AEBQEAU_Grp_t@?$_Tgt_state_t@PEBD@std@@AEBQEAU123@@?$vector@U_Grp_t@?$_Tgt_state_t@PEBD@std@@V?$allocator@U_Grp_t@?$_Tgt_state_t@PEBD@std@@@3@@std@@AEAAX_KAEBQEAU_Grp_t@?$_Tgt_state_t@PEBD@1@1@Z
	??$_Construct_n@AEBQEAU_Grp_t@?$_Tgt_state_t@V?$_String_const_iterator@V?$_String_val@U?$_Simple_types@D@std@@@std@@@std@@@std@@AEBQEAU123@@?$vector@U_Grp_t@?$_Tgt_state_t@V?$_String_const_iterator@V?$_String_val@U?$_Simple_types@D@std@@@std@@@std@@@std@@V?$allocator@U_Grp_t@?$_Tgt_state_t@V?$_String_const_iterator@V?$_String_val@U?$_Simple_types@D@std@@@std@@@std@@@std@@@3@@std@@AEAAX_KAEBQEAU_Grp_t@?$_Tgt_state_t@V?$_String_const_iterator@V?$_String_val@U?$_Simple_types@D@std@@@std@@@std@@@1@1@Z
	??$_Construct_n@AEBQEAUwhisper_grammar_element@@AEBQEAU1@@?$vector@Uwhisper_grammar_element@@V?$allocator@Uwhisper_grammar_element@@@std@@@std@@AEAAX_KAEBQEAUwhisper_grammar_element@@1@Z
	??$_Construct_n@AEBQEAUwhisper_token_data@@AEBQEAU1@@?$vector@Uwhisper_token_data@@V?$allocator@Uwhisper_token_data@@@std@@@std@@AEAAX_KAEBQEAUwhisper_token_data@@1@Z
	??$_Construct_n@AEBQEAV?$vector@PEBUwhisper_grammar_element@@V?$allocator@PEBUwhisper_grammar_element@@@std@@@std@@AEBQEAV12@@?$vector@V?$vector@PEBUwhisper_grammar_element@@V?$allocator@PEBUwhisper_grammar_element@@@std@@@std@@V?$allocator@V?$vector@PEBUwhisper_grammar_element@@V?$allocator@PEBUwhisper_grammar_element@@@std@@@std@@@2@@std@@AEAAX_KAEBQEAV?$vector@PEBUwhisper_grammar_element@@V?$allocator@PEBUwhisper_grammar_element@@@std@@@1@1@Z
	??$_Construct_n@AEBQEAV?$vector@Uwhisper_grammar_element@@V?$allocator@Uwhisper_grammar_element@@@std@@@std@@AEBQEAV12@@?$vector@V?$vector@Uwhisper_grammar_element@@V?$allocator@Uwhisper_grammar_element@@@std@@@std@@V?$allocator@V?$vector@Uwhisper_grammar_element@@V?$allocator@Uwhisper_grammar_element@@@std@@@std@@@2@@std@@AEAAX_KAEBQEAV?$vector@Uwhisper_grammar_element@@V?$allocator@Uwhisper_grammar_element@@@std@@@1@1@Z
	??$_Construct_n@PEBHPEBH@?$vector@HV?$allocator@H@std@@@std@@AEAAX_K$$QEAPEBH1@Z
	??$_Construct_n@PEBMPEBM@?$vector@NV?$allocator@N@std@@@std@@AEAAX_K$$QEAPEBM1@Z
	??$_Construct_n@PEBQEBUwhisper_grammar_element@@PEBQEBU1@@?$vector@PEBUwhisper_grammar_element@@V?$allocator@PEBUwhisper_grammar_element@@@std@@@std@@AEAAX_K$$QEAPEBQEBUwhisper_grammar_element@@1@Z
	??$_Construct_n@PEBV?$basic_string@DU?$char_traits@D@std@@V?$allocator@D@2@@std@@PEBV12@@?$vector@V?$basic_string@DU?$char_traits@D@std@@V?$allocator@D@2@@std@@V?$allocator@V?$basic_string@DU?$char_traits@D@std@@V?$allocator@D@2@@std@@@2@@std@@AEAAX_K$$QEAPEBV?$basic_string@DU?$char_traits@D@std@@V?$allocator@D@2@@1@1@Z
	??$_Construct_n@PEB_KPEB_K@?$vector@_KV?$allocator@_K@std@@@std@@AEAAX_K$$QEAPEB_K1@Z
	??$_Convert_size@_K_K@std@@YA_K_K@Z
	??$_Copy@$0A@@?$_Tree@V?$_Tmap_traits@W4asr_tensor@@PEBDU?$less@W4asr_tensor@@@std@@V?$allocator@U?$pair@$$CBW4asr_tensor@@PEBD@std@@@3@$0A@@std@@@std@@IEAAXAEBV01@@Z
	??$_Copy@$0A@@?$_Tree@V?$_Tset_traits@HU?$less@H@std@@V?$allocator@H@2@$0A@@std@@@std@@IEAAXAEBV01@@Z
	??$_Copy_backward_memmove@PEAHPEAH@std@@YAPEAHPEAH00@Z
	??$_Copy_backward_memmove@PEAMPEAM@std@@YAPEAMPEAM00@Z
	??$_Copy_backward_memmove@PEAU?$whisper_pair@NH@@PEAU1@@std@@YAPEAU?$whisper_pair@NH@@PEAU1@00@Z
	??$_Copy_backward_memmove@PEAUvad_time_mapping@@PEAU1@@std@@YAPEAUvad_time_mapping@@PEAU1@00@Z
	??$_Copy_backward_memmove@PEAUwhisper_token_data@@PEAU1@@std@@YAPEAUwhisper_token_data@@PEAU1@00@Z
	??$_Copy_backward_unchecked@V?$_Vb_iterator@U?$_Wrap_alloc@V?$allocator@I@std@@@std@@@std@@V12@@std@@YA?AV?$_Vb_iterator@U?$_Wrap_alloc@V?$allocator@I@std@@@std@@@0@V10@00@Z
	??$_Copy_memmove@PEADPEAD@std@@YAPEADPEAD00@Z
	??$_Copy_memmove@PEAEPEAE@std@@YAPEAEPEAE00@Z
	??$_Copy_memmove@PEAHPEAH@std@@YAPEAHPEAH00@Z
	??$_Copy_memmove@PEAIPEAI@std@@YAPEAIPEAI00@Z
	??$_Copy_memmove@PEAMPEAM@std@@YAPEAMPEAM00@Z
	??$_Copy_memmove@PEANPEAN@std@@YAPEANPEAN00@Z
	??$_Copy_memmove@PEAPEAUggml_backend@@PEAPEAU1@@std@@YAPEAPEAUggml_backend@@PEAPEAU1@00@Z
	??$_Copy_memmove@PEAPEAUggml_backend_buffer@@PEAPEAU1@@std@@YAPEAPEAUggml_backend_buffer@@PEAPEAU1@00@Z
	??$_Copy_memmove@PEAPEAUggml_context@@PEAPEAU1@@std@@YAPEAPEAUggml_context@@PEAPEAU1@00@Z
	??$_Copy_memmove@PEAPEAUggml_tensor@@PEAPEAU1@@std@@YAPEAPEAUggml_tensor@@PEAPEAU1@00@Z
	??$_Copy_memmove@PEAPEAUwhisper_state@@PEAPEAU1@@std@@YAPEAPEAUwhisper_state@@PEAPEAU1@00@Z
	??$_Copy_memmove@PEAPEBUwhisper_grammar_element@@PEAPEBU1@@std@@YAPEAPEBUwhisper_grammar_element@@PEAPEBU1@00@Z
	??$_Copy_memmove@PEAU?$pair@PEAUggml_backend_device@@PEAUggml_backend_buffer_type@@@std@@PEAU12@@std@@YAPEAU?$pair@PEAUggml_backend_device@@PEAUggml_backend_buffer_type@@@0@PEAU10@00@Z
	??$_Copy_memmove@PEAU?$whisper_pair@NH@@PEAU1@@std@@YAPEAU?$whisper_pair@NH@@PEAU1@00@Z
	??$_Copy_memmove@PEAU_Grp_t@?$_Tgt_state_t@PEBD@std@@PEAU123@@std@@YAPEAU_Grp_t@?$_Tgt_state_t@PEBD@0@PEAU120@00@Z
	??$_Copy_memmove@PEAU_Grp_t@?$_Tgt_state_t@V?$_String_const_iterator@V?$_String_val@U?$_Simple_types@D@std@@@std@@@std@@@std@@PEAU123@@std@@YAPEAU_Grp_t@?$_Tgt_state_t@V?$_String_const_iterator@V?$_String_val@U?$_Simple_types@D@std@@@std@@@std@@@0@PEAU120@00@Z
	??$_Copy_memmove@PEAU_Loop_vals_v2_t@std@@PEAU12@@std@@YAPEAU_Loop_vals_v2_t@0@PEAU10@00@Z
	??$_Copy_memmove@PEAUvad_segment_info@whisper_state@@PEAU12@@std@@YAPEAUvad_segment_info@whisper_state@@PEAU12@00@Z
	??$_Copy_memmove@PEAUvad_time_mapping@@PEAU1@@std@@YAPEAUvad_time_mapping@@PEAU1@00@Z
	??$_Copy_memmove@PEAUwhisper_grammar_candidate@@PEAU1@@std@@YAPEAUwhisper_grammar_candidate@@PEAU1@00@Z
	??$_Copy_memmove@PEAUwhisper_grammar_element@@PEAU1@@std@@YAPEAUwhisper_grammar_element@@PEAU1@00@Z
	??$_Copy_memmove@PEAUwhisper_layer_decoder@@PEAU1@@std@@YAPEAUwhisper_layer_decoder@@PEAU1@00@Z
	??$_Copy_memmove@PEAUwhisper_layer_encoder@@PEAU1@@std@@YAPEAUwhisper_layer_encoder@@PEAU1@00@Z
	??$_Copy_memmove@PEAUwhisper_token_data@@PEAU1@@std@@YAPEAUwhisper_token_data@@PEAU1@00@Z
	??$_Copy_memmove@PEAUwhisper_vad_segment@@PEAU1@@std@@YAPEAUwhisper_vad_segment@@PEAU1@00@Z
	??$_Copy_memmove@PEAV?$sub_match@PEBD@std@@PEAV12@@std@@YAPEAV?$sub_match@PEBD@0@PEAV10@00@Z
	??$_Copy_memmove@PEAV?$sub_match@V?$_String_const_iterator@V?$_String_val@U?$_Simple_types@D@std@@@std@@@std@@@std@@PEAV12@@std@@YAPEAV?$sub_match@V?$_String_const_iterator@V?$_String_val@U?$_Simple_types@D@std@@@std@@@std@@@0@PEAV10@00@Z
	??$_Copy_memmove@PEBDPEAD@std@@YAPEADPEBD0PEAD@Z
	??$_Copy_memmove@PEBHPEAH@std@@YAPEAHPEBH0PEAH@Z
	??$_Copy_memmove@PEBMPEAM@std@@YAPEAMPEBM0PEAM@Z
	??$_Copy_memmove@PEBQEBUwhisper_grammar_element@@PEAPEBU1@@std@@YAPEAPEBUwhisper_grammar_element@@PEBQEBU1@0PEAPEBU1@@Z
	??$_Copy_memmove@PEB_KPEA_K@std@@YAPEA_KPEB_K0PEA_K@Z
	??$_Copy_memmove_n@PEAHPEAH@std@@YAPEAHPEAH_K0@Z
	??$_Copy_memmove_n@PEAIPEAI@std@@YAPEAIPEAI_K0@Z
	??$_Copy_memmove_n@PEAPEBUwhisper_grammar_element@@PEAPEBU1@@std@@YAPEAPEBUwhisper_grammar_element@@PEAPEBU1@_K0@Z
	??$_Copy_memmove_n@PEAU_Grp_t@?$_Tgt_state_t@PEBD@std@@PEAU123@@std@@YAPEAU_Grp_t@?$_Tgt_state_t@PEBD@0@PEAU120@_K0@Z
	??$_Copy_memmove_n@PEAU_Grp_t@?$_Tgt_state_t@V?$_String_const_iterator@V?$_String_val@U?$_Simple_types@D@std@@@std@@@std@@@std@@PEAU123@@std@@YAPEAU_Grp_t@?$_Tgt_state_t@V?$_String_const_iterator@V?$_String_val@U?$_Simple_types@D@std@@@std@@@std@@@0@PEAU120@_K0@Z
	??$_Copy_memmove_n@PEAUwhisper_grammar_element@@PEAU1@@std@@YAPEAUwhisper_grammar_element@@PEAU1@_K0@Z
	??$_Copy_memmove_n@PEAUwhisper_token_data@@PEAU1@@std@@YAPEAUwhisper_token_data@@PEAU1@_K0@Z
	??$_Copy_memmove_n@PEBHPEAH@std@@YAPEAHPEBH_KPEAH@Z
	??$_Copy_memmove_tail@PEAD@std@@YAPEADQEBDQEAD_K2@Z
	??$_Copy_memmove_tail@PEAE@std@@YAPEAEQEBDQEAE_K2@Z
	??$_Copy_memmove_tail@PEAH@std@@YAPEAHQEBDQEAH_K2@Z
	??$_Copy_memmove_tail@PEAI@std@@YAPEAIQEBDQEAI_K2@Z
	??$_Copy_memmove_tail@PEAM@std@@YAPEAMQEBDQEAM_K2@Z
	??$_Copy_memmove_tail@PEAN@std@@YAPEANQEBDQEAN_K2@Z
	??$_Copy_memmove_tail@PEAPEAUggml_backend@@@std@@YAPEAPEAUggml_backend@@QEBDQEAPEAU1@_K2@Z
	??$_Copy_memmove_tail@PEAPEAUggml_backend_buffer@@@std@@YAPEAPEAUggml_backend_buffer@@QEBDQEAPEAU1@_K2@Z
	??$_Copy_memmove_tail@PEAPEAUggml_context@@@std@@YAPEAPEAUggml_context@@QEBDQEAPEAU1@_K2@Z
	??$_Copy_memmove_tail@PEAPEAUggml_tensor@@@std@@YAPEAPEAUggml_tensor@@QEBDQEAPEAU1@_K2@Z
	??$_Copy_memmove_tail@PEAPEAUwhisper_state@@@std@@YAPEAPEAUwhisper_state@@QEBDQEAPEAU1@_K2@Z
	??$_Copy_memmove_tail@PEAPEBUwhisper_grammar_element@@@std@@YAPEAPEBUwhisper_grammar_element@@QEBDQEAPEBU1@_K2@Z
	??$_Copy_memmove_tail@PEAU?$pair@PEAUggml_backend_device@@PEAUggml_backend_buffer_type@@@std@@@std@@YAPEAU?$pair@PEAUggml_backend_device@@PEAUggml_backend_buffer_type@@@0@QEBDQEAU10@_K2@Z
	??$_Copy_memmove_tail@PEAU?$whisper_pair@NH@@@std@@YAPEAU?$whisper_pair@NH@@QEBDQEAU1@_K2@Z
	??$_Copy_memmove_tail@PEAU_Grp_t@?$_Tgt_state_t@PEBD@std@@@std@@YAPEAU_Grp_t@?$_Tgt_state_t@PEBD@0@QEBDQEAU120@_K2@Z
	??$_Copy_memmove_tail@PEAU_Grp_t@?$_Tgt_state_t@V?$_String_const_iterator@V?$_String_val@U?$_Simple_types@D@std@@@std@@@std@@@std@@@std@@YAPEAU_Grp_t@?$_Tgt_state_t@V?$_String_const_iterator@V?$_String_val@U?$_Simple_types@D@std@@@std@@@std@@@0@QEBDQEAU120@_K2@Z
	??$_Copy_memmove_tail@PEAU_Loop_vals_v2_t@std@@@std@@YAPEAU_Loop_vals_v2_t@0@QEBDQEAU10@_K2@Z
	??$_Copy_memmove_tail@PEAUvad_segment_info@whisper_state@@@std@@YAPEAUvad_segment_info@whisper_state@@QEBDQEAU12@_K2@Z
	??$_Copy_memmove_tail@PEAUvad_time_mapping@@@std@@YAPEAUvad_time_mapping@@QEBDQEAU1@_K2@Z
	??$_Copy_memmove_tail@PEAUwhisper_grammar_candidate@@@std@@YAPEAUwhisper_grammar_candidate@@QEBDQEAU1@_K2@Z
	??$_Copy_memmove_tail@PEAUwhisper_grammar_element@@@std@@YAPEAUwhisper_grammar_element@@QEBDQEAU1@_K2@Z
	??$_Copy_memmove_tail@PEAUwhisper_layer_decoder@@@std@@YAPEAUwhisper_layer_decoder@@QEBDQEAU1@_K2@Z
	??$_Copy_memmove_tail@PEAUwhisper_layer_encoder@@@std@@YAPEAUwhisper_layer_encoder@@QEBDQEAU1@_K2@Z
	??$_Copy_memmove_tail@PEAUwhisper_token_data@@@std@@YAPEAUwhisper_token_data@@QEBDQEAU1@_K2@Z
	??$_Copy_memmove_tail@PEAUwhisper_vad_segment@@@std@@YAPEAUwhisper_vad_segment@@QEBDQEAU1@_K2@Z
	??$_Copy_memmove_tail@PEAV?$sub_match@PEBD@std@@@std@@YAPEAV?$sub_match@PEBD@0@QEBDQEAV10@_K2@Z
	??$_Copy_memmove_tail@PEAV?$sub_match@V?$_String_const_iterator@V?$_String_val@U?$_Simple_types@D@std@@@std@@@std@@@std@@@std@@YAPEAV?$sub_match@V?$_String_const_iterator@V?$_String_val@U?$_Simple_types@D@std@@@std@@@std@@@0@QEBDQEAV10@_K2@Z
	??$_Copy_memmove_tail@PEA_K@std@@YAPEA_KQEBDQEA_K_K2@Z
	??$_Copy_n_unchecked4@PEAI_KPEAI@std@@YAPEAIPEAI_K0@Z
	??$_Copy_n_unchecked4@PEAPEBUwhisper_grammar_element@@_KPEAPEBU1@@std@@YAPEAPEBUwhisper_grammar_element@@PEAPEBU1@_K0@Z
	??$_Copy_n_unchecked4@PEAU_Grp_t@?$_Tgt_state_t@PEBD@std@@_KPEAU123@@std@@YAPEAU_Grp_t@?$_Tgt_state_t@PEBD@0@PEAU120@_K0@Z
	??$_Copy_n_unchecked4@PEAU_Grp_t@?$_Tgt_state_t@V?$_String_const_iterator@V?$_String_val@U?$_Simple_types@D@std@@@std@@@std@@@std@@_KPEAU123@@std@@YAPEAU_Grp_t@?$_Tgt_state_t@V?$_String_const_iterator@V?$_String_val@U?$_Simple_types@D@std@@@std@@@std@@@0@PEAU120@_K0@Z
	??$_Copy_n_unchecked4@PEAUwhisper_grammar_element@@_KPEAU1@@std@@YAPEAUwhisper_grammar_element@@PEAU1@_K0@Z
	??$_Copy_n_unchecked4@PEAUwhisper_token_data@@_KPEAU1@@std@@YAPEAUwhisper_token_data@@PEAU1@_K0@Z
	??$_Copy_n_unchecked4@PEAV?$vector@PEBUwhisper_grammar_element@@V?$allocator@PEBUwhisper_grammar_element@@@std@@@std@@_KPEAV12@@std@@YAPEAV?$vector@PEBUwhisper_grammar_element@@V?$allocator@PEBUwhisper_grammar_element@@@std@@@0@PEAV10@_K0@Z
	??$_Copy_n_unchecked4@PEAV?$vector@Uwhisper_grammar_element@@V?$allocator@Uwhisper_grammar_element@@@std@@@std@@_KPEAV12@@std@@YAPEAV?$vector@Uwhisper_grammar_element@@V?$allocator@Uwhisper_grammar_element@@@std@@@0@PEAV10@_K0@Z
	??$_Copy_n_unchecked4@PEBH_KPEAH@std@@YAPEAHPEBH_KPEAH@Z
	??$_Copy_nodes@$0A@@?$_Tree@V?$_Tmap_traits@W4asr_tensor@@PEBDU?$less@W4asr_tensor@@@std@@V?$allocator@U?$pair@$$CBW4asr_tensor@@PEBD@std@@@3@$0A@@std@@@std@@IEAAPEAU?$_Tree_node@U?$pair@$$CBW4asr_tensor@@PEBD@std@@PEAX@1@PEAU21@0@Z
	??$_Copy_nodes@$0A@@?$_Tree@V?$_Tset_traits@HU?$less@H@std@@V?$allocator@H@2@$0A@@std@@@std@@IEAAPEAU?$_Tree_node@HPEAX@1@PEAU21@0@Z
	??$_Copy_or_move@$0A@H@?$_Tree@V?$_Tset_traits@HU?$less@H@std@@V?$allocator@H@2@$0A@@std@@@std@@IEAAPEAU?$_Tree_node@HPEAX@1@AEAH@Z
	??$_Copy_or_move@$0A@U?$pair@$$CBW4asr_tensor@@PEBD@std@@@?$_Tree@V?$_Tmap_traits@W4asr_tensor@@PEBDU?$less@W4asr_tensor@@@std@@V?$allocator@U?$pair@$$CBW4asr_tensor@@PEBD@std@@@3@$0A@@std@@@std@@IEAAPEAU?$_Tree_node@U?$pair@$$CBW4asr_tensor@@PEBD@std@@PEAX@1@AEAU?$pair@$$CBW4asr_tensor@@PEBD@1@@Z
	??$_Copy_unchecked@PEAMPEAMPEAM@std@@YAPEAMPEAM00@Z
	??$_Copy_unchecked@PEBDPEBDPEAD@std@@YAPEADPEBD0PEAD@Z
	??$_Copy_unchecked@PEBMPEBMPEAM@std@@YAPEAMPEBM0PEAM@Z
	??$_Copy_unchecked@V?$_Vb_iterator@U?$_Wrap_alloc@V?$allocator@I@std@@@std@@@std@@V12@V12@@std@@YA?AV?$_Vb_iterator@U?$_Wrap_alloc@V?$allocator@I@std@@@std@@@0@V10@00@Z
	??$_Copy_vbool@V?$_Vb_iterator@U?$_Wrap_alloc@V?$allocator@I@std@@@std@@@std@@V12@@std@@YA?AV?$_Vb_iterator@U?$_Wrap_alloc@V?$allocator@I@std@@@std@@@0@V10@00@Z
	??$_Could_compare_equal_to_value_type@PEBDD@std@@YA_NAEBD@Z
	??$_Deallocate@$07@std@@YAXPEAX_K@Z
	??$_Deallocate@$0BA@@std@@YAXPEAX_K@Z
	??$_Destroy_in_place@PEAD@std@@YAXAEAPEAD@Z
	??$_Destroy_in_place@PEAU?$_Tree_node@HPEAX@std@@@std@@YAXAEAPEAU?$_Tree_node@HPEAX@0@@Z
	??$_Destroy_in_place@PEAU?$_Tree_node@U?$pair@$$CBHH@std@@PEAX@std@@@std@@YAXAEAPEAU?$_Tree_node@U?$pair@$$CBHH@std@@PEAX@0@@Z
	??$_Destroy_in_place@PEAU?$_Tree_node@U?$pair@$$CBHV?$basic_string@DU?$char_traits@D@std@@V?$allocator@D@2@@std@@@std@@PEAX@std@@@std@@YAXAEAPEAU?$_Tree_node@U?$pair@$$CBHV?$basic_string@DU?$char_traits@D@std@@V?$allocator@D@2@@std@@@std@@PEAX@0@@Z
	??$_Destroy_in_place@PEAU?$_Tree_node@U?$pair@$$CBV?$basic_string@DU?$char_traits@D@std@@V?$allocator@D@2@@std@@H@std@@PEAX@std@@@std@@YAXAEAPEAU?$_Tree_node@U?$pair@$$CBV?$basic_string@DU?$char_traits@D@std@@V?$allocator@D@2@@std@@H@std@@PEAX@0@@Z
	??$_Destroy_in_place@PEAU?$_Tree_node@U?$pair@$$CBV?$basic_string@DU?$char_traits@D@std@@V?$allocator@D@2@@std@@PEAUggml_tensor@@@std@@PEAX@std@@@std@@YAXAEAPEAU?$_Tree_node@U?$pair@$$CBV?$basic_string@DU?$char_traits@D@std@@V?$allocator@D@2@@std@@PEAUggml_tensor@@@std@@PEAX@0@@Z
	??$_Destroy_in_place@PEAU?$_Tree_node@U?$pair@$$CBV?$basic_string@DU?$char_traits@D@std@@V?$allocator@D@2@@std@@U?$pair@HV?$basic_string@DU?$char_traits@D@std@@V?$allocator@D@2@@std@@@2@@std@@PEAX@std@@@std@@YAXAEAPEAU?$_Tree_node@U?$pair@$$CBV?$basic_string@DU?$char_traits@D@std@@V?$allocator@D@2@@std@@U?$pair@HV?$basic_string@DU?$char_traits@D@std@@V?$allocator@D@2@@std@@@2@@std@@PEAX@0@@Z
	??$_Destroy_in_place@PEAU?$_Tree_node@U?$pair@$$CBW4asr_system@@V?$map@W4asr_tensor@@PEBDU?$less@W4asr_tensor@@@std@@V?$allocator@U?$pair@$$CBW4asr_tensor@@PEBD@std@@@3@@std@@@std@@PEAX@std@@@std@@YAXAEAPEAU?$_Tree_node@U?$pair@$$CBW4asr_system@@V?$map@W4asr_tensor@@PEBDU?$less@W4asr_tensor@@@std@@V?$allocator@U?$pair@$$CBW4asr_tensor@@PEBD@std@@@3@@std@@@std@@PEAX@0@@Z
	??$_Destroy_in_place@PEAU?$_Tree_node@U?$pair@$$CBW4asr_tensor@@PEBD@std@@PEAX@std@@@std@@YAXAEAPEAU?$_Tree_node@U?$pair@$$CBW4asr_tensor@@PEBD@std@@PEAX@0@@Z
	??$_Destroy_in_place@PEAU?$_Tree_node@U?$pair@$$CBW4asr_tensor@@W4ggml_op@@@std@@PEAX@std@@@std@@YAXAEAPEAU?$_Tree_node@U?$pair@$$CBW4asr_tensor@@W4ggml_op@@@std@@PEAX@0@@Z
	??$_Destroy_in_place@PEAU?$_Tree_node@U?$pair@$$CBW4e_model@@V?$basic_string@DU?$char_traits@D@std@@V?$allocator@D@2@@std@@@std@@PEAX@std@@@std@@YAXAEAPEAU?$_Tree_node@U?$pair@$$CBW4e_model@@V?$basic_string@DU?$char_traits@D@std@@V?$allocator@D@2@@std@@@std@@PEAX@0@@Z
	??$_Destroy_in_place@PEAU?$_Tree_node@U?$pair@$$CBW4vad_tensor@@PEBD@std@@PEAX@std@@@std@@YAXAEAPEAU?$_Tree_node@U?$pair@$$CBW4vad_tensor@@PEBD@std@@PEAX@0@@Z
	??$_Destroy_in_place@PEAU?$_Tree_node@U?$pair@$$CBW4vad_tensor@@W4ggml_op@@@std@@PEAX@std@@@std@@YAXAEAPEAU?$_Tree_node@U?$pair@$$CBW4vad_tensor@@W4ggml_op@@@std@@PEAX@0@@Z
	??$_Destroy_in_place@PEAU?$_Tree_node@U?$pair@$$CBW4whisper_alignment_heads_preset@@Uwhisper_aheads@@@std@@PEAX@std@@@std@@YAXAEAPEAU?$_Tree_node@U?$pair@$$CBW4whisper_alignment_heads_preset@@Uwhisper_aheads@@@std@@PEAX@0@@Z
	??$_Destroy_in_place@PEAU?$_Tree_node@U?$pair@QEAUggml_backend_buffer_type@@PEAUggml_context@@@std@@PEAX@std@@@std@@YAXAEAPEAU?$_Tree_node@U?$pair@QEAUggml_backend_buffer_type@@PEAUggml_context@@@std@@PEAX@0@@Z
	??$_Destroy_in_place@PEA_W@std@@YAXAEAPEA_W@Z
	??$_Destroy_range@V?$allocator@D@std@@@std@@YAXPEADQEADAEAV?$allocator@D@0@@Z
	??$_Destroy_range@V?$allocator@E@std@@@std@@YAXPEAEQEAEAEAV?$allocator@E@0@@Z
	??$_Destroy_range@V?$allocator@H@std@@@std@@YAXPEAHQEAHAEAV?$allocator@H@0@@Z
	??$_Destroy_range@V?$allocator@I@std@@@std@@YAXPEAIQEAIAEAV?$allocator@I@0@@Z
	??$_Destroy_range@V?$allocator@M@std@@@std@@YAXPEAMQEAMAEAV?$allocator@M@0@@Z
	??$_Destroy_range@V?$allocator@N@std@@@std@@YAXPEANQEANAEAV?$allocator@N@0@@Z
	??$_Destroy_range@V?$allocator@PEAUggml_backend@@@std@@@std@@YAXPEAPEAUggml_backend@@QEAPEAU1@AEAV?$allocator@PEAUggml_backend@@@0@@Z
	??$_Destroy_range@V?$allocator@PEAUggml_backend_buffer@@@std@@@std@@YAXPEAPEAUggml_backend_buffer@@QEAPEAU1@AEAV?$allocator@PEAUggml_backend_buffer@@@0@@Z
	??$_Destroy_range@V?$allocator@PEAUggml_context@@@std@@@std@@YAXPEAPEAUggml_context@@QEAPEAU1@AEAV?$allocator@PEAUggml_context@@@0@@Z
	??$_Destroy_range@V?$allocator@PEAUggml_tensor@@@std@@@std@@YAXPEAPEAUggml_tensor@@QEAPEAU1@AEAV?$allocator@PEAUggml_tensor@@@0@@Z
	??$_Destroy_range@V?$allocator@PEAUwhisper_state@@@std@@@std@@YAXPEAPEAUwhisper_state@@QEAPEAU1@AEAV?$allocator@PEAUwhisper_state@@@0@@Z
	??$_Destroy_range@V?$allocator@PEBUwhisper_grammar_element@@@std@@@std@@YAXPEAPEBUwhisper_grammar_element@@QEAPEBU1@AEAV?$allocator@PEBUwhisper_grammar_element@@@0@@Z
	??$_Destroy_range@V?$allocator@U?$pair@PEAUggml_backend_device@@PEAUggml_backend_buffer_type@@@std@@@std@@@std@@YAXPEAU?$pair@PEAUggml_backend_device@@PEAUggml_backend_buffer_type@@@0@QEAU10@AEAV?$allocator@U?$pair@PEAUggml_backend_device@@PEAUggml_backend_buffer_type@@@std@@@0@@Z
	??$_Destroy_range@V?$allocator@U?$pair@V?$vector@IV?$allocator@I@std@@@std@@Uwhisper_partial_utf8@@@std@@@std@@@std@@YAXPEAU?$pair@V?$vector@IV?$allocator@I@std@@@std@@Uwhisper_partial_utf8@@@0@QEAU10@AEAV?$allocator@U?$pair@V?$vector@IV?$allocator@I@std@@@std@@Uwhisper_partial_utf8@@@std@@@0@@Z
	??$_Destroy_range@V?$allocator@U?$whisper_pair@NH@@@std@@@std@@YAXPEAU?$whisper_pair@NH@@QEAU1@AEAV?$allocator@U?$whisper_pair@NH@@@0@@Z
	??$_Destroy_range@V?$allocator@U_Grp_t@?$_Tgt_state_t@PEBD@std@@@std@@@std@@YAXPEAU_Grp_t@?$_Tgt_state_t@PEBD@0@QEAU120@AEAV?$allocator@U_Grp_t@?$_Tgt_state_t@PEBD@std@@@0@@Z
	??$_Destroy_range@V?$allocator@U_Grp_t@?$_Tgt_state_t@V?$_String_const_iterator@V?$_String_val@U?$_Simple_types@D@std@@@std@@@std@@@std@@@std@@@std@@YAXPEAU_Grp_t@?$_Tgt_state_t@V?$_String_const_iterator@V?$_String_val@U?$_Simple_types@D@std@@@std@@@std@@@0@QEAU120@AEAV?$allocator@U_Grp_t@?$_Tgt_state_t@V?$_String_const_iterator@V?$_String_val@U?$_Simple_types@D@std@@@std@@@std@@@std@@@0@@Z
	??$_Destroy_range@V?$allocator@U_Loop_vals_v2_t@std@@@std@@@std@@YAXPEAU_Loop_vals_v2_t@0@QEAU10@AEAV?$allocator@U_Loop_vals_v2_t@std@@@0@@Z
	??$_Destroy_range@V?$allocator@Uvad_segment_info@whisper_state@@@std@@@std@@YAXPEAUvad_segment_info@whisper_state@@QEAU12@AEAV?$allocator@Uvad_segment_info@whisper_state@@@0@@Z
	??$_Destroy_range@V?$allocator@Uvad_time_mapping@@@std@@@std@@YAXPEAUvad_time_mapping@@QEAU1@AEAV?$allocator@Uvad_time_mapping@@@0@@Z
	??$_Destroy_range@V?$allocator@Uwhisper_grammar_candidate@@@std@@@std@@YAXPEAUwhisper_grammar_candidate@@QEAU1@AEAV?$allocator@Uwhisper_grammar_candidate@@@0@@Z
	??$_Destroy_range@V?$allocator@Uwhisper_grammar_element@@@std@@@std@@YAXPEAUwhisper_grammar_element@@QEAU1@AEAV?$allocator@Uwhisper_grammar_element@@@0@@Z
	??$_Destroy_range@V?$allocator@Uwhisper_kv_cell@@@std@@@std@@YAXPEAUwhisper_kv_cell@@QEAU1@AEAV?$allocator@Uwhisper_kv_cell@@@0@@Z
	??$_Destroy_range@V?$allocator@Uwhisper_layer_decoder@@@std@@@std@@YAXPEAUwhisper_layer_decoder@@QEAU1@AEAV?$allocator@Uwhisper_layer_decoder@@@0@@Z
	??$_Destroy_range@V?$allocator@Uwhisper_layer_encoder@@@std@@@std@@YAXPEAUwhisper_layer_encoder@@QEAU1@AEAV?$allocator@Uwhisper_layer_encoder@@@0@@Z
	??$_Destroy_range@V?$allocator@Uwhisper_segment@@@std@@@std@@YAXPEAUwhisper_segment@@QEAU1@AEAV?$allocator@Uwhisper_segment@@@0@@Z
	??$_Destroy_range@V?$allocator@Uwhisper_token_data@@@std@@@std@@YAXPEAUwhisper_token_data@@QEAU1@AEAV?$allocator@Uwhisper_token_data@@@0@@Z
	??$_Destroy_range@V?$allocator@Uwhisper_vad_segment@@@std@@@std@@YAXPEAUwhisper_vad_segment@@QEAU1@AEAV?$allocator@Uwhisper_vad_segment@@@0@@Z
	??$_Destroy_range@V?$allocator@V?$_Tgt_state_t@PEBD@std@@@std@@@std@@YAXPEAV?$_Tgt_state_t@PEBD@0@QEAV10@AEAV?$allocator@V?$_Tgt_state_t@PEBD@std@@@0@@Z
	??$_Destroy_range@V?$allocator@V?$_Tgt_state_t@V?$_String_const_iterator@V?$_String_val@U?$_Simple_types@D@std@@@std@@@std@@@std@@@std@@@std@@YAXPEAV?$_Tgt_state_t@V?$_String_const_iterator@V?$_String_val@U?$_Simple_types@D@std@@@std@@@std@@@0@QEAV10@AEAV?$allocator@V?$_Tgt_state_t@V?$_String_const_iterator@V?$_String_val@U?$_Simple_types@D@std@@@std@@@std@@@std@@@0@@Z
	??$_Destroy_range@V?$allocator@V?$basic_string@DU?$char_traits@D@std@@V?$allocator@D@2@@std@@@std@@@std@@YAXPEAV?$basic_string@DU?$char_traits@D@std@@V?$allocator@D@2@@0@QEAV10@AEAV?$allocator@V?$basic_string@DU?$char_traits@D@std@@V?$allocator@D@2@@std@@@0@@Z
	??$_Destroy_range@V?$allocator@V?$sub_match@PEBD@std@@@std@@@std@@YAXPEAV?$sub_match@PEBD@0@QEAV10@AEAV?$allocator@V?$sub_match@PEBD@std@@@0@@Z
	??$_Destroy_range@V?$allocator@V?$sub_match@V?$_String_const_iterator@V?$_String_val@U?$_Simple_types@D@std@@@std@@@std@@@std@@@std@@@std@@YAXPEAV?$sub_match@V?$_String_const_iterator@V?$_String_val@U?$_Simple_types@D@std@@@std@@@std@@@0@QEAV10@AEAV?$allocator@V?$sub_match@V?$_String_const_iterator@V?$_String_val@U?$_Simple_types@D@std@@@std@@@std@@@std@@@0@@Z
	??$_Destroy_range@V?$allocator@V?$vector@PEBUwhisper_grammar_element@@V?$allocator@PEBUwhisper_grammar_element@@@std@@@std@@@std@@@std@@YAXPEAV?$vector@PEBUwhisper_grammar_element@@V?$allocator@PEBUwhisper_grammar_element@@@std@@@0@QEAV10@AEAV?$allocator@V?$vector@PEBUwhisper_grammar_element@@V?$allocator@PEBUwhisper_grammar_element@@@std@@@std@@@0@@Z
	??$_Destroy_range@V?$allocator@V?$vector@Uwhisper_grammar_element@@V?$allocator@Uwhisper_grammar_element@@@std@@@std@@@std@@@std@@YAXPEAV?$vector@Uwhisper_grammar_element@@V?$allocator@Uwhisper_grammar_element@@@std@@@0@QEAV10@AEAV?$allocator@V?$vector@Uwhisper_grammar_element@@V?$allocator@Uwhisper_grammar_element@@@std@@@std@@@0@@Z
	??$_Destroy_range@V?$allocator@Vthread@std@@@std@@@std@@YAXPEAVthread@0@QEAV10@AEAV?$allocator@Vthread@std@@@0@@Z
	??$_Destroy_range@V?$allocator@_K@std@@@std@@YAXPEA_KQEA_KAEAV?$allocator@_K@0@@Z
	??$_Emplace@AEBH@?$_Tree@V?$_Tset_traits@HU?$less@H@std@@V?$allocator@H@2@$0A@@std@@@std@@IEAA?AU?$pair@PEAU?$_Tree_node@HPEAX@std@@_N@1@AEBH@Z
	??$_Emplace_back@$$V@?$_Uninitialized_backout_al@V?$allocator@D@std@@@std@@QEAAXXZ
	??$_Emplace_back@$$V@?$_Uninitialized_backout_al@V?$allocator@E@std@@@std@@QEAAXXZ
	??$_Emplace_back@$$V@?$_Uninitialized_backout_al@V?$allocator@H@std@@@std@@QEAAXXZ
	??$_Emplace_back@$$V@?$_Uninitialized_backout_al@V?$allocator@M@std@@@std@@QEAAXXZ
	??$_Emplace_back@$$V@?$_Uninitialized_backout_al@V?$allocator@U?$whisper_pair@NH@@@std@@@std@@QEAAXXZ
	??$_Emplace_back@$$V@?$_Uninitialized_backout_al@V?$allocator@U_Grp_t@?$_Tgt_state_t@PEBD@std@@@std@@@std@@QEAAXXZ
	??$_Emplace_back@$$V@?$_Uninitialized_backout_al@V?$allocator@U_Grp_t@?$_Tgt_state_t@V?$_String_const_iterator@V?$_String_val@U?$_Simple_types@D@std@@@std@@@std@@@std@@@std@@@std@@QEAAXXZ
	??$_Emplace_back@$$V@?$_Uninitialized_backout_al@V?$allocator@U_Loop_vals_v2_t@std@@@std@@@std@@QEAAXXZ
	??$_Emplace_back@$$V@?$_Uninitialized_backout_al@V?$allocator@Uwhisper_kv_cell@@@std@@@std@@QEAAXXZ
	??$_Emplace_back@$$V@?$_Uninitialized_backout_al@V?$allocator@Uwhisper_layer_decoder@@@std@@@std@@QEAAXXZ
	??$_Emplace_back@$$V@?$_Uninitialized_backout_al@V?$allocator@Uwhisper_layer_encoder@@@std@@@std@@QEAAXXZ
	??$_Emplace_back@$$V@?$_Uninitialized_backout_al@V?$allocator@Uwhisper_token_data@@@std@@@std@@QEAAXXZ
	??$_Emplace_back@$$V@?$_Uninitialized_backout_al@V?$allocator@Uwhisper_vad_segment@@@std@@@std@@QEAAXXZ
	??$_Emplace_back@$$V@?$_Uninitialized_backout_al@V?$allocator@V?$sub_match@PEBD@std@@@std@@@std@@QEAAXXZ
	??$_Emplace_back@$$V@?$_Uninitialized_backout_al@V?$allocator@V?$sub_match@V?$_String_const_iterator@V?$_String_val@U?$_Simple_types@D@std@@@std@@@std@@@std@@@std@@@std@@QEAAXXZ
	??$_Emplace_back@$$V@?$_Uninitialized_backout_al@V?$allocator@V?$vector@Uwhisper_grammar_element@@V?$allocator@Uwhisper_grammar_element@@@std@@@std@@@std@@@std@@QEAAXXZ
	??$_Emplace_back@$$V@?$_Uninitialized_backout_al@V?$allocator@Vthread@std@@@std@@@std@@QEAAXXZ
	??$_Emplace_back@AEAH@?$_Uninitialized_backout_al@V?$allocator@H@std@@@std@@QEAAXAEAH@Z
	??$_Emplace_back@AEAI@?$_Uninitialized_backout_al@V?$allocator@I@std@@@std@@QEAAXAEAI@Z
	??$_Emplace_back@AEAPEAUggml_backend@@@?$_Uninitialized_backout_al@V?$allocator@PEAUggml_backend@@@std@@@std@@QEAAXAEAPEAUggml_backend@@@Z
	??$_Emplace_back@AEAPEBUwhisper_grammar_element@@@?$_Uninitialized_backout_al@V?$allocator@PEBUwhisper_grammar_element@@@std@@@std@@QEAAXAEAPEBUwhisper_grammar_element@@@Z
	??$_Emplace_back@AEAU?$pair@PEAUggml_backend_device@@PEAUggml_backend_buffer_type@@@std@@@?$_Uninitialized_backout_al@V?$allocator@U?$pair@PEAUggml_backend_device@@PEAUggml_backend_buffer_type@@@std@@@std@@@std@@QEAAXAEAU?$pair@PEAUggml_backend_device@@PEAUggml_backend_buffer_type@@@1@@Z
	??$_Emplace_back@AEAU_Grp_t@?$_Tgt_state_t@PEBD@std@@@?$_Uninitialized_backout_al@V?$allocator@U_Grp_t@?$_Tgt_state_t@PEBD@std@@@std@@@std@@QEAAXAEAU_Grp_t@?$_Tgt_state_t@PEBD@1@@Z
	??$_Emplace_back@AEAU_Grp_t@?$_Tgt_state_t@V?$_String_const_iterator@V?$_String_val@U?$_Simple_types@D@std@@@std@@@std@@@std@@@?$_Uninitialized_backout_al@V?$allocator@U_Grp_t@?$_Tgt_state_t@V?$_String_const_iterator@V?$_String_val@U?$_Simple_types@D@std@@@std@@@std@@@std@@@std@@@std@@QEAAXAEAU_Grp_t@?$_Tgt_state_t@V?$_String_const_iterator@V?$_String_val@U?$_Simple_types@D@std@@@std@@@std@@@1@@Z
	??$_Emplace_back@AEAUwhisper_grammar_element@@@?$_Uninitialized_backout_al@V?$allocator@Uwhisper_grammar_element@@@std@@@std@@QEAAXAEAUwhisper_grammar_element@@@Z
	??$_Emplace_back@AEAUwhisper_kv_cell@@@?$_Uninitialized_backout_al@V?$allocator@Uwhisper_kv_cell@@@std@@@std@@QEAAXAEAUwhisper_kv_cell@@@Z
	??$_Emplace_back@AEAUwhisper_token_data@@@?$_Uninitialized_backout_al@V?$allocator@Uwhisper_token_data@@@std@@@std@@QEAAXAEAUwhisper_token_data@@@Z
	??$_Emplace_back@AEAV?$vector@PEBUwhisper_grammar_element@@V?$allocator@PEBUwhisper_grammar_element@@@std@@@std@@@?$_Uninitialized_backout_al@V?$allocator@V?$vector@PEBUwhisper_grammar_element@@V?$allocator@PEBUwhisper_grammar_element@@@std@@@std@@@std@@@std@@QEAAXAEAV?$vector@PEBUwhisper_grammar_element@@V?$allocator@PEBUwhisper_grammar_element@@@std@@@1@@Z
	??$_Emplace_back@AEAV?$vector@Uwhisper_grammar_element@@V?$allocator@Uwhisper_grammar_element@@@std@@@std@@@?$_Uninitialized_backout_al@V?$allocator@V?$vector@Uwhisper_grammar_element@@V?$allocator@Uwhisper_grammar_element@@@std@@@std@@@std@@@std@@QEAAXAEAV?$vector@Uwhisper_grammar_element@@V?$allocator@Uwhisper_grammar_element@@@std@@@1@@Z
	??$_Emplace_back@AEBD@?$_Uninitialized_backout_al@V?$allocator@D@std@@@std@@QEAAXAEBD@Z
	??$_Emplace_back@AEBH@?$_Uninitialized_backout_al@V?$allocator@H@std@@@std@@QEAAXAEBH@Z
	??$_Emplace_back@AEBI@?$_Uninitialized_backout_al@V?$allocator@I@std@@@std@@QEAAXAEBI@Z
	??$_Emplace_back@AEBM@?$_Uninitialized_backout_al@V?$allocator@M@std@@@std@@QEAAXAEBM@Z
	??$_Emplace_back@AEBM@?$_Uninitialized_backout_al@V?$allocator@N@std@@@std@@QEAAXAEBM@Z
	??$_Emplace_back@AEBN@?$_Uninitialized_backout_al@V?$allocator@N@std@@@std@@QEAAXAEBN@Z
	??$_Emplace_back@AEBQEBUwhisper_grammar_element@@@?$_Uninitialized_backout_al@V?$allocator@PEBUwhisper_grammar_element@@@std@@@std@@QEAAXAEBQEBUwhisper_grammar_element@@@Z
	??$_Emplace_back@AEBV?$basic_string@DU?$char_traits@D@std@@V?$allocator@D@2@@std@@@?$_Uninitialized_backout_al@V?$allocator@V?$basic_string@DU?$char_traits@D@std@@V?$allocator@D@2@@std@@@std@@@std@@QEAAXAEBV?$basic_string@DU?$char_traits@D@std@@V?$allocator@D@2@@1@@Z
	??$_Emplace_back@AEB_K@?$_Uninitialized_backout_al@V?$allocator@_K@std@@@std@@QEAAXAEB_K@Z
	??$_Emplace_back@D@?$_Uninitialized_backout_al@V?$allocator@D@std@@@std@@QEAAX$$QEAD@Z
	??$_Emplace_back@E@?$_Uninitialized_backout_al@V?$allocator@E@std@@@std@@QEAAX$$QEAE@Z
	??$_Emplace_back@H@?$_Uninitialized_backout_al@V?$allocator@H@std@@@std@@QEAAX$$QEAH@Z
	??$_Emplace_back@I@?$_Uninitialized_backout_al@V?$allocator@I@std@@@std@@QEAAX$$QEAI@Z
	??$_Emplace_back@M@?$_Uninitialized_backout_al@V?$allocator@M@std@@@std@@QEAAX$$QEAM@Z
	??$_Emplace_back@N@?$_Uninitialized_backout_al@V?$allocator@N@std@@@std@@QEAAX$$QEAN@Z
	??$_Emplace_back@PEAUggml_backend@@@?$_Uninitialized_backout_al@V?$allocator@PEAUggml_backend@@@std@@@std@@QEAAX$$QEAPEAUggml_backend@@@Z
	??$_Emplace_back@PEAUggml_backend_buffer@@@?$_Uninitialized_backout_al@V?$allocator@PEAUggml_backend_buffer@@@std@@@std@@QEAAX$$QEAPEAUggml_backend_buffer@@@Z
	??$_Emplace_back@PEAUggml_context@@@?$_Uninitialized_backout_al@V?$allocator@PEAUggml_context@@@std@@@std@@QEAAX$$QEAPEAUggml_context@@@Z
	??$_Emplace_back@PEAUggml_tensor@@@?$_Uninitialized_backout_al@V?$allocator@PEAUggml_tensor@@@std@@@std@@QEAAX$$QEAPEAUggml_tensor@@@Z
	??$_Emplace_back@PEAUwhisper_state@@@?$_Uninitialized_backout_al@V?$allocator@PEAUwhisper_state@@@std@@@std@@QEAAX$$QEAPEAUwhisper_state@@@Z
	??$_Emplace_back@PEBUwhisper_grammar_element@@@?$_Uninitialized_backout_al@V?$allocator@PEBUwhisper_grammar_element@@@std@@@std@@QEAAX$$QEAPEBUwhisper_grammar_element@@@Z
	??$_Emplace_back@U?$pair@PEAUggml_backend_device@@PEAUggml_backend_buffer_type@@@std@@@?$_Uninitialized_backout_al@V?$allocator@U?$pair@PEAUggml_backend_device@@PEAUggml_backend_buffer_type@@@std@@@std@@@std@@QEAAX$$QEAU?$pair@PEAUggml_backend_device@@PEAUggml_backend_buffer_type@@@1@@Z
	??$_Emplace_back@U?$pair@V?$vector@IV?$allocator@I@std@@@std@@Uwhisper_partial_utf8@@@std@@@?$_Uninitialized_backout_al@V?$allocator@U?$pair@V?$vector@IV?$allocator@I@std@@@std@@Uwhisper_partial_utf8@@@std@@@std@@@std@@QEAAX$$QEAU?$pair@V?$vector@IV?$allocator@I@std@@@std@@Uwhisper_partial_utf8@@@1@@Z
	??$_Emplace_back@U?$whisper_pair@NH@@@?$_Uninitialized_backout_al@V?$allocator@U?$whisper_pair@NH@@@std@@@std@@QEAAX$$QEAU?$whisper_pair@NH@@@Z
	??$_Emplace_back@U_Grp_t@?$_Tgt_state_t@PEBD@std@@@?$_Uninitialized_backout_al@V?$allocator@U_Grp_t@?$_Tgt_state_t@PEBD@std@@@std@@@std@@QEAAX$$QEAU_Grp_t@?$_Tgt_state_t@PEBD@1@@Z
	??$_Emplace_back@U_Grp_t@?$_Tgt_state_t@V?$_String_const_iterator@V?$_String_val@U?$_Simple_types@D@std@@@std@@@std@@@std@@@?$_Uninitialized_backout_al@V?$allocator@U_Grp_t@?$_Tgt_state_t@V?$_String_const_iterator@V?$_String_val@U?$_Simple_types@D@std@@@std@@@std@@@std@@@std@@@std@@QEAAX$$QEAU_Grp_t@?$_Tgt_state_t@V?$_String_const_iterator@V?$_String_val@U?$_Simple_types@D@std@@@std@@@std@@@1@@Z
	??$_Emplace_back@U_Loop_vals_v2_t@std@@@?$_Uninitialized_backout_al@V?$allocator@U_Loop_vals_v2_t@std@@@std@@@std@@QEAAX$$QEAU_Loop_vals_v2_t@1@@Z
	??$_Emplace_back@Uvad_segment_info@whisper_state@@@?$_Uninitialized_backout_al@V?$allocator@Uvad_segment_info@whisper_state@@@std@@@std@@QEAAX$$QEAUvad_segment_info@whisper_state@@@Z
	??$_Emplace_back@Uvad_time_mapping@@@?$_Uninitialized_backout_al@V?$allocator@Uvad_time_mapping@@@std@@@std@@QEAAX$$QEAUvad_time_mapping@@@Z
	??$_Emplace_back@Uwhisper_grammar_candidate@@@?$_Uninitialized_backout_al@V?$allocator@Uwhisper_grammar_candidate@@@std@@@std@@QEAAX$$QEAUwhisper_grammar_candidate@@@Z
	??$_Emplace_back@Uwhisper_grammar_element@@@?$_Uninitialized_backout_al@V?$allocator@Uwhisper_grammar_element@@@std@@@std@@QEAAX$$QEAUwhisper_grammar_element@@@Z
	??$_Emplace_back@Uwhisper_layer_decoder@@@?$_Uninitialized_backout_al@V?$allocator@Uwhisper_layer_decoder@@@std@@@std@@QEAAX$$QEAUwhisper_layer_decoder@@@Z
	??$_Emplace_back@Uwhisper_layer_encoder@@@?$_Uninitialized_backout_al@V?$allocator@Uwhisper_layer_encoder@@@std@@@std@@QEAAX$$QEAUwhisper_layer_encoder@@@Z
	??$_Emplace_back@Uwhisper_segment@@@?$_Uninitialized_backout_al@V?$allocator@Uwhisper_segment@@@std@@@std@@QEAAX$$QEAUwhisper_segment@@@Z
	??$_Emplace_back@Uwhisper_token_data@@@?$_Uninitialized_backout_al@V?$allocator@Uwhisper_token_data@@@std@@@std@@QEAAX$$QEAUwhisper_token_data@@@Z
	??$_Emplace_back@Uwhisper_vad_segment@@@?$_Uninitialized_backout_al@V?$allocator@Uwhisper_vad_segment@@@std@@@std@@QEAAX$$QEAUwhisper_vad_segment@@@Z
	??$_Emplace_back@V?$_Tgt_state_t@PEBD@std@@@?$_Uninitialized_backout_al@V?$allocator@V?$_Tgt_state_t@PEBD@std@@@std@@@std@@QEAAX$$QEAV?$_Tgt_state_t@PEBD@1@@Z
	??$_Emplace_back@V?$_Tgt_state_t@V?$_String_const_iterator@V?$_String_val@U?$_Simple_types@D@std@@@std@@@std@@@std@@@?$_Uninitialized_backout_al@V?$allocator@V?$_Tgt_state_t@V?$_String_const_iterator@V?$_String_val@U?$_Simple_types@D@std@@@std@@@std@@@std@@@std@@@std@@QEAAX$$QEAV?$_Tgt_state_t@V?$_String_const_iterator@V?$_String_val@U?$_Simple_types@D@std@@@std@@@std@@@1@@Z
	??$_Emplace_back@V?$basic_string@DU?$char_traits@D@std@@V?$allocator@D@2@@std@@@?$_Uninitialized_backout_al@V?$allocator@V?$basic_string@DU?$char_traits@D@std@@V?$allocator@D@2@@std@@@std@@@std@@QEAAX$$QEAV?$basic_string@DU?$char_traits@D@std@@V?$allocator@D@2@@1@@Z
	??$_Emplace_back@V?$sub_match@PEBD@std@@@?$_Uninitialized_backout_al@V?$allocator@V?$sub_match@PEBD@std@@@std@@@std@@QEAAX$$QEAV?$sub_match@PEBD@1@@Z
	??$_Emplace_back@V?$sub_match@V?$_String_const_iterator@V?$_String_val@U?$_Simple_types@D@std@@@std@@@std@@@std@@@?$_Uninitialized_backout_al@V?$allocator@V?$sub_match@V?$_String_const_iterator@V?$_String_val@U?$_Simple_types@D@std@@@std@@@std@@@std@@@std@@@std@@QEAAX$$QEAV?$sub_match@V?$_String_const_iterator@V?$_String_val@U?$_Simple_types@D@std@@@std@@@std@@@1@@Z
	??$_Emplace_back@V?$vector@PEBUwhisper_grammar_element@@V?$allocator@PEBUwhisper_grammar_element@@@std@@@std@@@?$_Uninitialized_backout_al@V?$allocator@V?$vector@PEBUwhisper_grammar_element@@V?$allocator@PEBUwhisper_grammar_element@@@std@@@std@@@std@@@std@@QEAAX$$QEAV?$vector@PEBUwhisper_grammar_element@@V?$allocator@PEBUwhisper_grammar_element@@@std@@@1@@Z
	??$_Emplace_back_with_unused_capacity@$$V@?$vector@V?$vector@PEBUwhisper_grammar_element@@V?$allocator@PEBUwhisper_grammar_element@@@std@@@std@@V?$allocator@V?$vector@PEBUwhisper_grammar_element@@V?$allocator@PEBUwhisper_grammar_element@@@std@@@std@@@2@@std@@AEAAAEAV?$vector@PEBUwhisper_grammar_element@@V?$allocator@PEBUwhisper_grammar_element@@@std@@@1@XZ
	??$_Emplace_back_with_unused_capacity@AEAMAEBH@?$vector@U?$whisper_pair@NH@@V?$allocator@U?$whisper_pair@NH@@@std@@@std@@AEAAAEAU?$whisper_pair@NH@@AEAMAEBH@Z
	??$_Emplace_back_with_unused_capacity@AEAPEAUggml_backend_buffer@@@?$vector@PEAUggml_backend_buffer@@V?$allocator@PEAUggml_backend_buffer@@@std@@@std@@AEAAAEAPEAUggml_backend_buffer@@AEAPEAU2@@Z
	??$_Emplace_back_with_unused_capacity@AEAPEAUggml_backend_device@@AEAPEAUggml_backend_buffer_type@@@?$vector@U?$pair@PEAUggml_backend_device@@PEAUggml_backend_buffer_type@@@std@@V?$allocator@U?$pair@PEAUggml_backend_device@@PEAUggml_backend_buffer_type@@@std@@@2@@std@@AEAAAEAU?$pair@PEAUggml_backend_device@@PEAUggml_backend_buffer_type@@@1@AEAPEAUggml_backend_device@@AEAPEAUggml_backend_buffer_type@@@Z
	??$_Emplace_back_with_unused_capacity@AEAPEAUggml_backend_device@@PEAUggml_backend_buffer_type@@@?$vector@U?$pair@PEAUggml_backend_device@@PEAUggml_backend_buffer_type@@@std@@V?$allocator@U?$pair@PEAUggml_backend_device@@PEAUggml_backend_buffer_type@@@std@@@2@@std@@AEAAAEAU?$pair@PEAUggml_backend_device@@PEAUggml_backend_buffer_type@@@1@AEAPEAUggml_backend_device@@$$QEAPEAUggml_backend_buffer_type@@@Z
	??$_Emplace_back_with_unused_capacity@AEAPEAUggml_context@@@?$vector@PEAUggml_context@@V?$allocator@PEAUggml_context@@@std@@@std@@AEAAAEAPEAUggml_context@@AEAPEAU2@@Z
	??$_Emplace_back_with_unused_capacity@AEBH@?$vector@HV?$allocator@H@std@@@std@@AEAAAEAHAEBH@Z
	??$_Emplace_back_with_unused_capacity@AEBI@?$vector@IV?$allocator@I@std@@@std@@AEAAAEAIAEBI@Z
	??$_Emplace_back_with_unused_capacity@AEBM@?$vector@MV?$allocator@M@std@@@std@@AEAAAEAMAEBM@Z
	??$_Emplace_back_with_unused_capacity@AEBQEAUggml_backend@@@?$vector@PEAUggml_backend@@V?$allocator@PEAUggml_backend@@@std@@@std@@AEAAAEAPEAUggml_backend@@AEBQEAU2@@Z
	??$_Emplace_back_with_unused_capacity@AEBQEBUwhisper_grammar_element@@@?$vector@PEBUwhisper_grammar_element@@V?$allocator@PEBUwhisper_grammar_element@@@std@@@std@@AEAAAEAPEBUwhisper_grammar_element@@AEBQEBU2@@Z
	??$_Emplace_back_with_unused_capacity@AEBUvad_segment_info@whisper_state@@@?$vector@Uvad_segment_info@whisper_state@@V?$allocator@Uvad_segment_info@whisper_state@@@std@@@std@@AEAAAEAUvad_segment_info@whisper_state@@AEBU23@@Z
	??$_Emplace_back_with_unused_capacity@AEBUvad_time_mapping@@@?$vector@Uvad_time_mapping@@V?$allocator@Uvad_time_mapping@@@std@@@std@@AEAAAEAUvad_time_mapping@@AEBU2@@Z
	??$_Emplace_back_with_unused_capacity@AEBUwhisper_grammar_candidate@@@?$vector@Uwhisper_grammar_candidate@@V?$allocator@Uwhisper_grammar_candidate@@@std@@@std@@AEAAAEAUwhisper_grammar_candidate@@AEBU2@@Z
	??$_Emplace_back_with_unused_capacity@AEBUwhisper_grammar_element@@@?$vector@Uwhisper_grammar_element@@V?$allocator@Uwhisper_grammar_element@@@std@@@std@@AEAAAEAUwhisper_grammar_element@@AEBU2@@Z
	??$_Emplace_back_with_unused_capacity@AEBUwhisper_token_data@@@?$vector@Uwhisper_token_data@@V?$allocator@Uwhisper_token_data@@@std@@@std@@AEAAAEAUwhisper_token_data@@AEBU2@@Z
	??$_Emplace_back_with_unused_capacity@AEBV?$_Tgt_state_t@PEBD@std@@@?$vector@V?$_Tgt_state_t@PEBD@std@@V?$allocator@V?$_Tgt_state_t@PEBD@std@@@2@@std@@AEAAAEAV?$_Tgt_state_t@PEBD@1@AEBV21@@Z
	??$_Emplace_back_with_unused_capacity@AEBV?$_Tgt_state_t@V?$_String_const_iterator@V?$_String_val@U?$_Simple_types@D@std@@@std@@@std@@@std@@@?$vector@V?$_Tgt_state_t@V?$_String_const_iterator@V?$_String_val@U?$_Simple_types@D@std@@@std@@@std@@@std@@V?$allocator@V?$_Tgt_state_t@V?$_String_const_iterator@V?$_String_val@U?$_Simple_types@D@std@@@std@@@std@@@std@@@2@@std@@AEAAAEAV?$_Tgt_state_t@V?$_String_const_iterator@V?$_String_val@U?$_Simple_types@D@std@@@std@@@std@@@1@AEBV21@@Z
	??$_Emplace_back_with_unused_capacity@AEBV?$vector@PEBUwhisper_grammar_element@@V?$allocator@PEBUwhisper_grammar_element@@@std@@@std@@@?$vector@V?$vector@PEBUwhisper_grammar_element@@V?$allocator@PEBUwhisper_grammar_element@@@std@@@std@@V?$allocator@V?$vector@PEBUwhisper_grammar_element@@V?$allocator@PEBUwhisper_grammar_element@@@std@@@std@@@2@@std@@AEAAAEAV?$vector@PEBUwhisper_grammar_element@@V?$allocator@PEBUwhisper_grammar_element@@@std@@@1@AEBV21@@Z
	??$_Emplace_back_with_unused_capacity@H@?$vector@HV?$allocator@H@std@@@std@@AEAAAEAH$$QEAH@Z
	??$_Emplace_back_with_unused_capacity@I@?$vector@IV?$allocator@I@std@@@std@@AEAAAEAI$$QEAI@Z
	??$_Emplace_back_with_unused_capacity@M@?$vector@MV?$allocator@M@std@@@std@@AEAAAEAM$$QEAM@Z
	??$_Emplace_back_with_unused_capacity@N@?$vector@NV?$allocator@N@std@@@std@@AEAAAEAN$$QEAN@Z
	??$_Emplace_back_with_unused_capacity@PEAUggml_tensor@@@?$vector@PEAUggml_tensor@@V?$allocator@PEAUggml_tensor@@@std@@@std@@AEAAAEAPEAUggml_tensor@@$$QEAPEAU2@@Z
	??$_Emplace_back_with_unused_capacity@PEAUwhisper_state@@@?$vector@PEAUwhisper_state@@V?$allocator@PEAUwhisper_state@@@std@@@std@@AEAAAEAPEAUwhisper_state@@$$QEAPEAU2@@Z
	??$_Emplace_back_with_unused_capacity@PEBUwhisper_grammar_element@@@?$vector@PEBUwhisper_grammar_element@@V?$allocator@PEBUwhisper_grammar_element@@@std@@@std@@AEAAAEAPEBUwhisper_grammar_element@@$$QEAPEBU2@@Z
	??$_Emplace_back_with_unused_capacity@U?$pair@V?$vector@IV?$allocator@I@std@@@std@@Uwhisper_partial_utf8@@@std@@@?$vector@U?$pair@V?$vector@IV?$allocator@I@std@@@std@@Uwhisper_partial_utf8@@@std@@V?$allocator@U?$pair@V?$vector@IV?$allocator@I@std@@@std@@Uwhisper_partial_utf8@@@std@@@2@@std@@AEAAAEAU?$pair@V?$vector@IV?$allocator@I@std@@@std@@Uwhisper_partial_utf8@@@1@$$QEAU21@@Z
	??$_Emplace_back_with_unused_capacity@Uvad_time_mapping@@@?$vector@Uvad_time_mapping@@V?$allocator@Uvad_time_mapping@@@std@@@std@@AEAAAEAUvad_time_mapping@@$$QEAU2@@Z
	??$_Emplace_back_with_unused_capacity@Uwhisper_grammar_candidate@@@?$vector@Uwhisper_grammar_candidate@@V?$allocator@Uwhisper_grammar_candidate@@@std@@@std@@AEAAAEAUwhisper_grammar_candidate@@$$QEAU2@@Z
	??$_Emplace_back_with_unused_capacity@Uwhisper_grammar_element@@@?$vector@Uwhisper_grammar_element@@V?$allocator@Uwhisper_grammar_element@@@std@@@std@@AEAAAEAUwhisper_grammar_element@@$$QEAU2@@Z
	??$_Emplace_back_with_unused_capacity@Uwhisper_segment@@@?$vector@Uwhisper_segment@@V?$allocator@Uwhisper_segment@@@std@@@std@@AEAAAEAUwhisper_segment@@$$QEAU2@@Z
	??$_Emplace_back_with_unused_capacity@Uwhisper_token_data@@@?$vector@Uwhisper_token_data@@V?$allocator@Uwhisper_token_data@@@std@@@std@@AEAAAEAUwhisper_token_data@@$$QEAU2@@Z
	??$_Emplace_back_with_unused_capacity@V?$basic_string@DU?$char_traits@D@std@@V?$allocator@D@2@@std@@@?$vector@V?$basic_string@DU?$char_traits@D@std@@V?$allocator@D@2@@std@@V?$allocator@V?$basic_string@DU?$char_traits@D@std@@V?$allocator@D@2@@std@@@2@@std@@AEAAAEAV?$basic_string@DU?$char_traits@D@std@@V?$allocator@D@2@@1@$$QEAV21@@Z
	??$_Emplace_hint@AEBU?$pair@$$CBV?$basic_string@DU?$char_traits@D@std@@V?$allocator@D@2@@std@@U?$pair@HV?$basic_string@DU?$char_traits@D@std@@V?$allocator@D@2@@std@@@2@@std@@@?$_Tree@V?$_Tmap_traits@V?$basic_string@DU?$char_traits@D@std@@V?$allocator@D@2@@std@@U?$pair@HV?$basic_string@DU?$char_traits@D@std@@V?$allocator@D@2@@std@@@2@U?$less@V?$basic_string@DU?$char_traits@D@std@@V?$allocator@D@2@@std@@@2@V?$allocator@U?$pair@$$CBV?$basic_string@DU?$char_traits@D@std@@V?$allocator@D@2@@std@@U?$pair@HV?$basic_string@DU?$char_traits@D@std@@V?$allocator@D@2@@std@@@2@@std@@@2@$0A@@std@@@std@@IEAAPEAU?$_Tree_node@U?$pair@$$CBV?$basic_string@DU?$char_traits@D@std@@V?$allocator@D@2@@std@@U?$pair@HV?$basic_string@DU?$char_traits@D@std@@V?$allocator@D@2@@std@@@2@@std@@PEAX@1@QEAU21@AEBU?$pair@$$CBV?$basic_string@DU?$char_traits@D@std@@V?$allocator@D@2@@std@@U?$pair@HV?$basic_string@DU?$char_traits@D@std@@V?$allocator@D@2@@std@@@2@@1@@Z
	??$_Emplace_hint@AEBU?$pair@$$CBW4asr_system@@V?$map@W4asr_tensor@@PEBDU?$less@W4asr_tensor@@@std@@V?$allocator@U?$pair@$$CBW4asr_tensor@@PEBD@std@@@3@@std@@@std@@@?$_Tree@V?$_Tmap_traits@W4asr_system@@V?$map@W4asr_tensor@@PEBDU?$less@W4asr_tensor@@@std@@V?$allocator@U?$pair@$$CBW4asr_tensor@@PEBD@std@@@3@@std@@U?$less@W4asr_system@@@3@V?$allocator@U?$pair@$$CBW4asr_system@@V?$map@W4asr_tensor@@PEBDU?$less@W4asr_tensor@@@std@@V?$allocator@U?$pair@$$CBW4asr_tensor@@PEBD@std@@@3@@std@@@std@@@3@$0A@@std@@@std@@IEAAPEAU?$_Tree_node@U?$pair@$$CBW4asr_system@@V?$map@W4asr_tensor@@PEBDU?$less@W4asr_tensor@@@std@@V?$allocator@U?$pair@$$CBW4asr_tensor@@PEBD@std@@@3@@std@@@std@@PEAX@1@QEAU21@AEBU?$pair@$$CBW4asr_system@@V?$map@W4asr_tensor@@PEBDU?$less@W4asr_tensor@@@std@@V?$allocator@U?$pair@$$CBW4asr_tensor@@PEBD@std@@@3@@std@@@1@@Z
	??$_Emplace_hint@AEBU?$pair@$$CBW4asr_tensor@@PEBD@std@@@?$_Tree@V?$_Tmap_traits@W4asr_tensor@@PEBDU?$less@W4asr_tensor@@@std@@V?$allocator@U?$pair@$$CBW4asr_tensor@@PEBD@std@@@3@$0A@@std@@@std@@IEAAPEAU?$_Tree_node@U?$pair@$$CBW4asr_tensor@@PEBD@std@@PEAX@1@QEAU21@AEBU?$pair@$$CBW4asr_tensor@@PEBD@1@@Z
	??$_Emplace_hint@AEBU?$pair@$$CBW4asr_tensor@@W4ggml_op@@@std@@@?$_Tree@V?$_Tmap_traits@W4asr_tensor@@W4ggml_op@@U?$less@W4asr_tensor@@@std@@V?$allocator@U?$pair@$$CBW4asr_tensor@@W4ggml_op@@@std@@@4@$0A@@std@@@std@@IEAAPEAU?$_Tree_node@U?$pair@$$CBW4asr_tensor@@W4ggml_op@@@std@@PEAX@1@QEAU21@AEBU?$pair@$$CBW4asr_tensor@@W4ggml_op@@@1@@Z
	??$_Emplace_hint@AEBU?$pair@$$CBW4e_model@@V?$basic_string@DU?$char_traits@D@std@@V?$allocator@D@2@@std@@@std@@@?$_Tree@V?$_Tmap_traits@W4e_model@@V?$basic_string@DU?$char_traits@D@std@@V?$allocator@D@2@@std@@U?$less@W4e_model@@@3@V?$allocator@U?$pair@$$CBW4e_model@@V?$basic_string@DU?$char_traits@D@std@@V?$allocator@D@2@@std@@@std@@@3@$0A@@std@@@std@@IEAAPEAU?$_Tree_node@U?$pair@$$CBW4e_model@@V?$basic_string@DU?$char_traits@D@std@@V?$allocator@D@2@@std@@@std@@PEAX@1@QEAU21@AEBU?$pair@$$CBW4e_model@@V?$basic_string@DU?$char_traits@D@std@@V?$allocator@D@2@@std@@@1@@Z
	??$_Emplace_hint@AEBU?$pair@$$CBW4vad_tensor@@PEBD@std@@@?$_Tree@V?$_Tmap_traits@W4vad_tensor@@PEBDU?$less@W4vad_tensor@@@std@@V?$allocator@U?$pair@$$CBW4vad_tensor@@PEBD@std@@@3@$0A@@std@@@std@@IEAAPEAU?$_Tree_node@U?$pair@$$CBW4vad_tensor@@PEBD@std@@PEAX@1@QEAU21@AEBU?$pair@$$CBW4vad_tensor@@PEBD@1@@Z
	??$_Emplace_hint@AEBU?$pair@$$CBW4vad_tensor@@W4ggml_op@@@std@@@?$_Tree@V?$_Tmap_traits@W4vad_tensor@@W4ggml_op@@U?$less@W4vad_tensor@@@std@@V?$allocator@U?$pair@$$CBW4vad_tensor@@W4ggml_op@@@std@@@4@$0A@@std@@@std@@IEAAPEAU?$_Tree_node@U?$pair@$$CBW4vad_tensor@@W4ggml_op@@@std@@PEAX@1@QEAU21@AEBU?$pair@$$CBW4vad_tensor@@W4ggml_op@@@1@@Z
	??$_Emplace_hint@AEBU?$pair@$$CBW4whisper_alignment_heads_preset@@Uwhisper_aheads@@@std@@@?$_Tree@V?$_Tmap_traits@W4whisper_alignment_heads_preset@@Uwhisper_aheads@@U?$less@W4whisper_alignment_heads_preset@@@std@@V?$allocator@U?$pair@$$CBW4whisper_alignment_heads_preset@@Uwhisper_aheads@@@std@@@4@$0A@@std@@@std@@IEAAPEAU?$_Tree_node@U?$pair@$$CBW4whisper_alignment_heads_preset@@Uwhisper_aheads@@@std@@PEAX@1@QEAU21@AEBU?$pair@$$CBW4whisper_alignment_heads_preset@@Uwhisper_aheads@@@1@@Z
	??$_Emplace_one_at_back@$$V@?$vector@V?$vector@PEBUwhisper_grammar_element@@V?$allocator@PEBUwhisper_grammar_element@@@std@@@std@@V?$allocator@V?$vector@PEBUwhisper_grammar_element@@V?$allocator@PEBUwhisper_grammar_element@@@std@@@std@@@2@@std@@AEAAAEAV?$vector@PEBUwhisper_grammar_element@@V?$allocator@PEBUwhisper_grammar_element@@@std@@@1@XZ
	??$_Emplace_one_at_back@AEAMAEBH@?$vector@U?$whisper_pair@NH@@V?$allocator@U?$whisper_pair@NH@@@std@@@std@@AEAAAEAU?$whisper_pair@NH@@AEAMAEBH@Z
	??$_Emplace_one_at_back@AEAPEAUggml_backend_buffer@@@?$vector@PEAUggml_backend_buffer@@V?$allocator@PEAUggml_backend_buffer@@@std@@@std@@AEAAAEAPEAUggml_backend_buffer@@AEAPEAU2@@Z
	??$_Emplace_one_at_back@AEAPEAUggml_backend_device@@AEAPEAUggml_backend_buffer_type@@@?$vector@U?$pair@PEAUggml_backend_device@@PEAUggml_backend_buffer_type@@@std@@V?$allocator@U?$pair@PEAUggml_backend_device@@PEAUggml_backend_buffer_type@@@std@@@2@@std@@AEAAAEAU?$pair@PEAUggml_backend_device@@PEAUggml_backend_buffer_type@@@1@AEAPEAUggml_backend_device@@AEAPEAUggml_backend_buffer_type@@@Z
	??$_Emplace_one_at_back@AEAPEAUggml_backend_device@@PEAUggml_backend_buffer_type@@@?$vector@U?$pair@PEAUggml_backend_device@@PEAUggml_backend_buffer_type@@@std@@V?$allocator@U?$pair@PEAUggml_backend_device@@PEAUggml_backend_buffer_type@@@std@@@2@@std@@AEAAAEAU?$pair@PEAUggml_backend_device@@PEAUggml_backend_buffer_type@@@1@AEAPEAUggml_backend_device@@$$QEAPEAUggml_backend_buffer_type@@@Z
	??$_Emplace_one_at_back@AEAPEAUggml_context@@@?$vector@PEAUggml_context@@V?$allocator@PEAUggml_context@@@std@@@std@@AEAAAEAPEAUggml_context@@AEAPEAU2@@Z
	??$_Emplace_one_at_back@AEBH@?$vector@HV?$allocator@H@std@@@std@@AEAAAEAHAEBH@Z
	??$_Emplace_one_at_back@AEBI@?$vector@IV?$allocator@I@std@@@std@@AEAAAEAIAEBI@Z
	??$_Emplace_one_at_back@AEBM@?$vector@MV?$allocator@M@std@@@std@@AEAAAEAMAEBM@Z
	??$_Emplace_one_at_back@AEBQEAUggml_backend@@@?$vector@PEAUggml_backend@@V?$allocator@PEAUggml_backend@@@std@@@std@@AEAAAEAPEAUggml_backend@@AEBQEAU2@@Z
	??$_Emplace_one_at_back@AEBQEBUwhisper_grammar_element@@@?$vector@PEBUwhisper_grammar_element@@V?$allocator@PEBUwhisper_grammar_element@@@std@@@std@@AEAAAEAPEBUwhisper_grammar_element@@AEBQEBU2@@Z
	??$_Emplace_one_at_back@AEBUvad_segment_info@whisper_state@@@?$vector@Uvad_segment_info@whisper_state@@V?$allocator@Uvad_segment_info@whisper_state@@@std@@@std@@AEAAAEAUvad_segment_info@whisper_state@@AEBU23@@Z
	??$_Emplace_one_at_back@AEBUvad_time_mapping@@@?$vector@Uvad_time_mapping@@V?$allocator@Uvad_time_mapping@@@std@@@std@@AEAAAEAUvad_time_mapping@@AEBU2@@Z
	??$_Emplace_one_at_back@AEBUwhisper_grammar_candidate@@@?$vector@Uwhisper_grammar_candidate@@V?$allocator@Uwhisper_grammar_candidate@@@std@@@std@@AEAAAEAUwhisper_grammar_candidate@@AEBU2@@Z
	??$_Emplace_one_at_back@AEBUwhisper_grammar_element@@@?$vector@Uwhisper_grammar_element@@V?$allocator@Uwhisper_grammar_element@@@std@@@std@@AEAAAEAUwhisper_grammar_element@@AEBU2@@Z
	??$_Emplace_one_at_back@AEBUwhisper_token_data@@@?$vector@Uwhisper_token_data@@V?$allocator@Uwhisper_token_data@@@std@@@std@@AEAAAEAUwhisper_token_data@@AEBU2@@Z
	??$_Emplace_one_at_back@AEBV?$_Tgt_state_t@PEBD@std@@@?$vector@V?$_Tgt_state_t@PEBD@std@@V?$allocator@V?$_Tgt_state_t@PEBD@std@@@2@@std@@AEAAAEAV?$_Tgt_state_t@PEBD@1@AEBV21@@Z
	??$_Emplace_one_at_back@AEBV?$_Tgt_state_t@V?$_String_const_iterator@V?$_String_val@U?$_Simple_types@D@std@@@std@@@std@@@std@@@?$vector@V?$_Tgt_state_t@V?$_String_const_iterator@V?$_String_val@U?$_Simple_types@D@std@@@std@@@std@@@std@@V?$allocator@V?$_Tgt_state_t@V?$_String_const_iterator@V?$_String_val@U?$_Simple_types@D@std@@@std@@@std@@@std@@@2@@std@@AEAAAEAV?$_Tgt_state_t@V?$_String_const_iterator@V?$_String_val@U?$_Simple_types@D@std@@@std@@@std@@@1@AEBV21@@Z
	??$_Emplace_one_at_back@AEBV?$vector@PEBUwhisper_grammar_element@@V?$allocator@PEBUwhisper_grammar_element@@@std@@@std@@@?$vector@V?$vector@PEBUwhisper_grammar_element@@V?$allocator@PEBUwhisper_grammar_element@@@std@@@std@@V?$allocator@V?$vector@PEBUwhisper_grammar_element@@V?$allocator@PEBUwhisper_grammar_element@@@std@@@std@@@2@@std@@AEAAAEAV?$vector@PEBUwhisper_grammar_element@@V?$allocator@PEBUwhisper_grammar_element@@@std@@@1@AEBV21@@Z
	??$_Emplace_one_at_back@H@?$vector@HV?$allocator@H@std@@@std@@AEAAAEAH$$QEAH@Z
	??$_Emplace_one_at_back@I@?$vector@IV?$allocator@I@std@@@std@@AEAAAEAI$$QEAI@Z
	??$_Emplace_one_at_back@M@?$vector@MV?$allocator@M@std@@@std@@AEAAAEAM$$QEAM@Z
	??$_Emplace_one_at_back@N@?$vector@NV?$allocator@N@std@@@std@@AEAAAEAN$$QEAN@Z
	??$_Emplace_one_at_back@PEAUggml_tensor@@@?$vector@PEAUggml_tensor@@V?$allocator@PEAUggml_tensor@@@std@@@std@@AEAAAEAPEAUggml_tensor@@$$QEAPEAU2@@Z
	??$_Emplace_one_at_back@PEAUwhisper_state@@@?$vector@PEAUwhisper_state@@V?$allocator@PEAUwhisper_state@@@std@@@std@@AEAAAEAPEAUwhisper_state@@$$QEAPEAU2@@Z
	??$_Emplace_one_at_back@PEBUwhisper_grammar_element@@@?$vector@PEBUwhisper_grammar_element@@V?$allocator@PEBUwhisper_grammar_element@@@std@@@std@@AEAAAEAPEBUwhisper_grammar_element@@$$QEAPEBU2@@Z
	??$_Emplace_one_at_back@U?$pair@V?$vector@IV?$allocator@I@std@@@std@@Uwhisper_partial_utf8@@@std@@@?$vector@U?$pair@V?$vector@IV?$allocator@I@std@@@std@@Uwhisper_partial_utf8@@@std@@V?$allocator@U?$pair@V?$vector@IV?$allocator@I@std@@@std@@Uwhisper_partial_utf8@@@std@@@2@@std@@AEAAAEAU?$pair@V?$vector@IV?$allocator@I@std@@@std@@Uwhisper_partial_utf8@@@1@$$QEAU21@@Z
	??$_Emplace_one_at_back@Uvad_time_mapping@@@?$vector@Uvad_time_mapping@@V?$allocator@Uvad_time_mapping@@@std@@@std@@AEAAAEAUvad_time_mapping@@$$QEAU2@@Z
	??$_Emplace_one_at_back@Uwhisper_grammar_candidate@@@?$vector@Uwhisper_grammar_candidate@@V?$allocator@Uwhisper_grammar_candidate@@@std@@@std@@AEAAAEAUwhisper_grammar_candidate@@$$QEAU2@@Z
	??$_Emplace_one_at_back@Uwhisper_grammar_element@@@?$vector@Uwhisper_grammar_element@@V?$allocator@Uwhisper_grammar_element@@@std@@@std@@AEAAAEAUwhisper_grammar_element@@$$QEAU2@@Z
	??$_Emplace_one_at_back@Uwhisper_segment@@@?$vector@Uwhisper_segment@@V?$allocator@Uwhisper_segment@@@std@@@std@@AEAAAEAUwhisper_segment@@$$QEAU2@@Z
	??$_Emplace_one_at_back@Uwhisper_token_data@@@?$vector@Uwhisper_token_data@@V?$allocator@Uwhisper_token_data@@@std@@@std@@AEAAAEAUwhisper_token_data@@$$QEAU2@@Z
	??$_Emplace_one_at_back@V?$basic_string@DU?$char_traits@D@std@@V?$allocator@D@2@@std@@@?$vector@V?$basic_string@DU?$char_traits@D@std@@V?$allocator@D@2@@std@@V?$allocator@V?$basic_string@DU?$char_traits@D@std@@V?$allocator@D@2@@std@@@2@@std@@AEAAAEAV?$basic_string@DU?$char_traits@D@std@@V?$allocator@D@2@@1@$$QEAV21@@Z
	??$_Emplace_reallocate@$$V@?$vector@V?$vector@PEBUwhisper_grammar_element@@V?$allocator@PEBUwhisper_grammar_element@@@std@@@std@@V?$allocator@V?$vector@PEBUwhisper_grammar_element@@V?$allocator@PEBUwhisper_grammar_element@@@std@@@std@@@2@@std@@AEAAPEAV?$vector@PEBUwhisper_grammar_element@@V?$allocator@PEBUwhisper_grammar_element@@@std@@@1@QEAV21@@Z
	??$_Emplace_reallocate@AEAMAEBH@?$vector@U?$whisper_pair@NH@@V?$allocator@U?$whisper_pair@NH@@@std@@@std@@AEAAPEAU?$whisper_pair@NH@@QEAU2@AEAMAEBH@Z
	??$_Emplace_reallocate@AEAPEAUggml_backend_buffer@@@?$vector@PEAUggml_backend_buffer@@V?$allocator@PEAUggml_backend_buffer@@@std@@@std@@AEAAPEAPEAUggml_backend_buffer@@QEAPEAU2@AEAPEAU2@@Z
	??$_Emplace_reallocate@AEAPEAUggml_backend_device@@AEAPEAUggml_backend_buffer_type@@@?$vector@U?$pair@PEAUggml_backend_device@@PEAUggml_backend_buffer_type@@@std@@V?$allocator@U?$pair@PEAUggml_backend_device@@PEAUggml_backend_buffer_type@@@std@@@2@@std@@AEAAPEAU?$pair@PEAUggml_backend_device@@PEAUggml_backend_buffer_type@@@1@QEAU21@AEAPEAUggml_backend_device@@AEAPEAUggml_backend_buffer_type@@@Z
	??$_Emplace_reallocate@AEAPEAUggml_backend_device@@PEAUggml_backend_buffer_type@@@?$vector@U?$pair@PEAUggml_backend_device@@PEAUggml_backend_buffer_type@@@std@@V?$allocator@U?$pair@PEAUggml_backend_device@@PEAUggml_backend_buffer_type@@@std@@@2@@std@@AEAAPEAU?$pair@PEAUggml_backend_device@@PEAUggml_backend_buffer_type@@@1@QEAU21@AEAPEAUggml_backend_device@@$$QEAPEAUggml_backend_buffer_type@@@Z
	??$_Emplace_reallocate@AEAPEAUggml_context@@@?$vector@PEAUggml_context@@V?$allocator@PEAUggml_context@@@std@@@std@@AEAAPEAPEAUggml_context@@QEAPEAU2@AEAPEAU2@@Z
	??$_Emplace_reallocate@AEBH@?$vector@HV?$allocator@H@std@@@std@@AEAAPEAHQEAHAEBH@Z
	??$_Emplace_reallocate@AEBI@?$vector@IV?$allocator@I@std@@@std@@AEAAPEAIQEAIAEBI@Z
	??$_Emplace_reallocate@AEBM@?$vector@MV?$allocator@M@std@@@std@@AEAAPEAMQEAMAEBM@Z
	??$_Emplace_reallocate@AEBQEAUggml_backend@@@?$vector@PEAUggml_backend@@V?$allocator@PEAUggml_backend@@@std@@@std@@AEAAPEAPEAUggml_backend@@QEAPEAU2@AEBQEAU2@@Z
	??$_Emplace_reallocate@AEBQEBUwhisper_grammar_element@@@?$vector@PEBUwhisper_grammar_element@@V?$allocator@PEBUwhisper_grammar_element@@@std@@@std@@AEAAPEAPEBUwhisper_grammar_element@@QEAPEBU2@AEBQEBU2@@Z
	??$_Emplace_reallocate@AEBUvad_segment_info@whisper_state@@@?$vector@Uvad_segment_info@whisper_state@@V?$allocator@Uvad_segment_info@whisper_state@@@std@@@std@@AEAAPEAUvad_segment_info@whisper_state@@QEAU23@AEBU23@@Z
	??$_Emplace_reallocate@AEBUvad_time_mapping@@@?$vector@Uvad_time_mapping@@V?$allocator@Uvad_time_mapping@@@std@@@std@@AEAAPEAUvad_time_mapping@@QEAU2@AEBU2@@Z
	??$_Emplace_reallocate@AEBUwhisper_grammar_candidate@@@?$vector@Uwhisper_grammar_candidate@@V?$allocator@Uwhisper_grammar_candidate@@@std@@@std@@AEAAPEAUwhisper_grammar_candidate@@QEAU2@AEBU2@@Z
	??$_Emplace_reallocate@AEBUwhisper_grammar_element@@@?$vector@Uwhisper_grammar_element@@V?$allocator@Uwhisper_grammar_element@@@std@@@std@@AEAAPEAUwhisper_grammar_element@@QEAU2@AEBU2@@Z
	??$_Emplace_reallocate@AEBUwhisper_token_data@@@?$vector@Uwhisper_token_data@@V?$allocator@Uwhisper_token_data@@@std@@@std@@AEAAPEAUwhisper_token_data@@QEAU2@AEBU2@@Z
	??$_Emplace_reallocate@AEBV?$_Tgt_state_t@PEBD@std@@@?$vector@V?$_Tgt_state_t@PEBD@std@@V?$allocator@V?$_Tgt_state_t@PEBD@std@@@2@@std@@AEAAPEAV?$_Tgt_state_t@PEBD@1@QEAV21@AEBV21@@Z
	??$_Emplace_reallocate@AEBV?$_Tgt_state_t@V?$_String_const_iterator@V?$_String_val@U?$_Simple_types@D@std@@@std@@@std@@@std@@@?$vector@V?$_Tgt_state_t@V?$_String_const_iterator@V?$_String_val@U?$_Simple_types@D@std@@@std@@@std@@@std@@V?$allocator@V?$_Tgt_state_t@V?$_String_const_iterator@V?$_String_val@U?$_Simple_types@D@std@@@std@@@std@@@std@@@2@@std@@AEAAPEAV?$_Tgt_state_t@V?$_String_const_iterator@V?$_String_val@U?$_Simple_types@D@std@@@std@@@std@@@1@QEAV21@AEBV21@@Z
	??$_Emplace_reallocate@AEBV?$vector@PEBUwhisper_grammar_element@@V?$allocator@PEBUwhisper_grammar_element@@@std@@@std@@@?$vector@V?$vector@PEBUwhisper_grammar_element@@V?$allocator@PEBUwhisper_grammar_element@@@std@@@std@@V?$allocator@V?$vector@PEBUwhisper_grammar_element@@V?$allocator@PEBUwhisper_grammar_element@@@std@@@std@@@2@@std@@AEAAPEAV?$vector@PEBUwhisper_grammar_element@@V?$allocator@PEBUwhisper_grammar_element@@@std@@@1@QEAV21@AEBV21@@Z
	??$_Emplace_reallocate@H@?$vector@HV?$allocator@H@std@@@std@@AEAAPEAHQEAH$$QEAH@Z
	??$_Emplace_reallocate@I@?$vector@IV?$allocator@I@std@@@std@@AEAAPEAIQEAI$$QEAI@Z
	??$_Emplace_reallocate@M@?$vector@MV?$allocator@M@std@@@std@@AEAAPEAMQEAM$$QEAM@Z
	??$_Emplace_reallocate@N@?$vector@NV?$allocator@N@std@@@std@@AEAAPEANQEAN$$QEAN@Z
	??$_Emplace_reallocate@PEAUggml_tensor@@@?$vector@PEAUggml_tensor@@V?$allocator@PEAUggml_tensor@@@std@@@std@@AEAAPEAPEAUggml_tensor@@QEAPEAU2@$$QEAPEAU2@@Z
	??$_Emplace_reallocate@PEAUwhisper_state@@@?$vector@PEAUwhisper_state@@V?$allocator@PEAUwhisper_state@@@std@@@std@@AEAAPEAPEAUwhisper_state@@QEAPEAU2@$$QEAPEAU2@@Z
	??$_Emplace_reallocate@PEBUwhisper_grammar_element@@@?$vector@PEBUwhisper_grammar_element@@V?$allocator@PEBUwhisper_grammar_element@@@std@@@std@@AEAAPEAPEBUwhisper_grammar_element@@QEAPEBU2@$$QEAPEBU2@@Z
	??$_Emplace_reallocate@U?$pair@V?$vector@IV?$allocator@I@std@@@std@@Uwhisper_partial_utf8@@@std@@@?$vector@U?$pair@V?$vector@IV?$allocator@I@std@@@std@@Uwhisper_partial_utf8@@@std@@V?$allocator@U?$pair@V?$vector@IV?$allocator@I@std@@@std@@Uwhisper_partial_utf8@@@std@@@2@@std@@AEAAPEAU?$pair@V?$vector@IV?$allocator@I@std@@@std@@Uwhisper_partial_utf8@@@1@QEAU21@$$QEAU21@@Z
	??$_Emplace_reallocate@Uvad_time_mapping@@@?$vector@Uvad_time_mapping@@V?$allocator@Uvad_time_mapping@@@std@@@std@@AEAAPEAUvad_time_mapping@@QEAU2@$$QEAU2@@Z
	??$_Emplace_reallocate@Uwhisper_grammar_candidate@@@?$vector@Uwhisper_grammar_candidate@@V?$allocator@Uwhisper_grammar_candidate@@@std@@@std@@AEAAPEAUwhisper_grammar_candidate@@QEAU2@$$QEAU2@@Z
	??$_Emplace_reallocate@Uwhisper_grammar_element@@@?$vector@Uwhisper_grammar_element@@V?$allocator@Uwhisper_grammar_element@@@std@@@std@@AEAAPEAUwhisper_grammar_element@@QEAU2@$$QEAU2@@Z
	??$_Emplace_reallocate@Uwhisper_segment@@@?$vector@Uwhisper_segment@@V?$allocator@Uwhisper_segment@@@std@@@std@@AEAAPEAUwhisper_segment@@QEAU2@$$QEAU2@@Z
	??$_Emplace_reallocate@Uwhisper_token_data@@@?$vector@Uwhisper_token_data@@V?$allocator@Uwhisper_token_data@@@std@@@std@@AEAAPEAUwhisper_token_data@@QEAU2@$$QEAU2@@Z
	??$_Emplace_reallocate@V?$basic_string@DU?$char_traits@D@std@@V?$allocator@D@2@@std@@@?$vector@V?$basic_string@DU?$char_traits@D@std@@V?$allocator@D@2@@std@@V?$allocator@V?$basic_string@DU?$char_traits@D@std@@V?$allocator@D@2@@std@@@2@@std@@AEAAPEAV?$basic_string@DU?$char_traits@D@std@@V?$allocator@D@2@@1@QEAV21@$$QEAV21@@Z
	??$_Eqrange@H@?$_Tree@V?$_Tset_traits@HU?$less@H@std@@V?$allocator@H@2@$0A@@std@@@std@@IEBA?AU?$pair@PEAU?$_Tree_node@HPEAX@std@@PEAU12@@1@AEBH@Z
	??$_Equal_rev_pred_unchecked@PEBDPEBDU?$_Cmp_icase_translateleft@V?$regex_traits@D@std@@@std@@@std@@YA_NPEBD0QEBDU?$_Cmp_icase_translateleft@V?$regex_traits@D@std@@@0@@Z
	??$_Equal_rev_pred_unchecked@PEBDPEBDU?$equal_to@D@std@@@std@@YA_NPEBD0QEBDU?$equal_to@D@0@@Z
	??$_Erase_head@V?$allocator@U?$_Tree_node@HPEAX@std@@@std@@@?$_Tree_val@U?$_Tree_simple_types@H@std@@@std@@QEAAXAEAV?$allocator@U?$_Tree_node@HPEAX@std@@@1@@Z
	??$_Erase_head@V?$allocator@U?$_Tree_node@U?$pair@$$CBHH@std@@PEAX@std@@@std@@@?$_Tree_val@U?$_Tree_simple_types@U?$pair@$$CBHH@std@@@std@@@std@@QEAAXAEAV?$allocator@U?$_Tree_node@U?$pair@$$CBHH@std@@PEAX@std@@@1@@Z
	??$_Erase_head@V?$allocator@U?$_Tree_node@U?$pair@$$CBHV?$basic_string@DU?$char_traits@D@std@@V?$allocator@D@2@@std@@@std@@PEAX@std@@@std@@@?$_Tree_val@U?$_Tree_simple_types@U?$pair@$$CBHV?$basic_string@DU?$char_traits@D@std@@V?$allocator@D@2@@std@@@std@@@std@@@std@@QEAAXAEAV?$allocator@U?$_Tree_node@U?$pair@$$CBHV?$basic_string@DU?$char_traits@D@std@@V?$allocator@D@2@@std@@@std@@PEAX@std@@@1@@Z
	??$_Erase_head@V?$allocator@U?$_Tree_node@U?$pair@$$CBV?$basic_string@DU?$char_traits@D@std@@V?$allocator@D@2@@std@@H@std@@PEAX@std@@@std@@@?$_Tree_val@U?$_Tree_simple_types@U?$pair@$$CBV?$basic_string@DU?$char_traits@D@std@@V?$allocator@D@2@@std@@H@std@@@std@@@std@@QEAAXAEAV?$allocator@U?$_Tree_node@U?$pair@$$CBV?$basic_string@DU?$char_traits@D@std@@V?$allocator@D@2@@std@@H@std@@PEAX@std@@@1@@Z
	??$_Erase_head@V?$allocator@U?$_Tree_node@U?$pair@$$CBV?$basic_string@DU?$char_traits@D@std@@V?$allocator@D@2@@std@@PEAUggml_tensor@@@std@@PEAX@std@@@std@@@?$_Tree_val@U?$_Tree_simple_types@U?$pair@$$CBV?$basic_string@DU?$char_traits@D@std@@V?$allocator@D@2@@std@@PEAUggml_tensor@@@std@@@std@@@std@@QEAAXAEAV?$allocator@U?$_Tree_node@U?$pair@$$CBV?$basic_string@DU?$char_traits@D@std@@V?$allocator@D@2@@std@@PEAUggml_tensor@@@std@@PEAX@std@@@1@@Z
	??$_Erase_head@V?$allocator@U?$_Tree_node@U?$pair@$$CBV?$basic_string@DU?$char_traits@D@std@@V?$allocator@D@2@@std@@U?$pair@HV?$basic_string@DU?$char_traits@D@std@@V?$allocator@D@2@@std@@@2@@std@@PEAX@std@@@std@@@?$_Tree_val@U?$_Tree_simple_types@U?$pair@$$CBV?$basic_string@DU?$char_traits@D@std@@V?$allocator@D@2@@std@@U?$pair@HV?$basic_string@DU?$char_traits@D@std@@V?$allocator@D@2@@std@@@2@@std@@@std@@@std@@QEAAXAEAV?$allocator@U?$_Tree_node@U?$pair@$$CBV?$basic_string@DU?$char_traits@D@std@@V?$allocator@D@2@@std@@U?$pair@HV?$basic_string@DU?$char_traits@D@std@@V?$allocator@D@2@@std@@@2@@std@@PEAX@std@@@1@@Z
	??$_Erase_head@V?$allocator@U?$_Tree_node@U?$pair@$$CBW4asr_system@@V?$map@W4asr_tensor@@PEBDU?$less@W4asr_tensor@@@std@@V?$allocator@U?$pair@$$CBW4asr_tensor@@PEBD@std@@@3@@std@@@std@@PEAX@std@@@std@@@?$_Tree_val@U?$_Tree_simple_types@U?$pair@$$CBW4asr_system@@V?$map@W4asr_tensor@@PEBDU?$less@W4asr_tensor@@@std@@V?$allocator@U?$pair@$$CBW4asr_tensor@@PEBD@std@@@3@@std@@@std@@@std@@@std@@QEAAXAEAV?$allocator@U?$_Tree_node@U?$pair@$$CBW4asr_system@@V?$map@W4asr_tensor@@PEBDU?$less@W4asr_tensor@@@std@@V?$allocator@U?$pair@$$CBW4asr_tensor@@PEBD@std@@@3@@std@@@std@@PEAX@std@@@1@@Z
	??$_Erase_head@V?$allocator@U?$_Tree_node@U?$pair@$$CBW4asr_tensor@@PEBD@std@@PEAX@std@@@std@@@?$_Tree_val@U?$_Tree_simple_types@U?$pair@$$CBW4asr_tensor@@PEBD@std@@@std@@@std@@QEAAXAEAV?$allocator@U?$_Tree_node@U?$pair@$$CBW4asr_tensor@@PEBD@std@@PEAX@std@@@1@@Z
	??$_Erase_head@V?$allocator@U?$_Tree_node@U?$pair@$$CBW4asr_tensor@@W4ggml_op@@@std@@PEAX@std@@@std@@@?$_Tree_val@U?$_Tree_simple_types@U?$pair@$$CBW4asr_tensor@@W4ggml_op@@@std@@@std@@@std@@QEAAXAEAV?$allocator@U?$_Tree_node@U?$pair@$$CBW4asr_tensor@@W4ggml_op@@@std@@PEAX@std@@@1@@Z
	??$_Erase_head@V?$allocator@U?$_Tree_node@U?$pair@$$CBW4e_model@@V?$basic_string@DU?$char_traits@D@std@@V?$allocator@D@2@@std@@@std@@PEAX@std@@@std@@@?$_Tree_val@U?$_Tree_simple_types@U?$pair@$$CBW4e_model@@V?$basic_string@DU?$char_traits@D@std@@V?$allocator@D@2@@std@@@std@@@std@@@std@@QEAAXAEAV?$allocator@U?$_Tree_node@U?$pair@$$CBW4e_model@@V?$basic_string@DU?$char_traits@D@std@@V?$allocator@D@2@@std@@@std@@PEAX@std@@@1@@Z
	??$_Erase_head@V?$allocator@U?$_Tree_node@U?$pair@$$CBW4vad_tensor@@PEBD@std@@PEAX@std@@@std@@@?$_Tree_val@U?$_Tree_simple_types@U?$pair@$$CBW4vad_tensor@@PEBD@std@@@std@@@std@@QEAAXAEAV?$allocator@U?$_Tree_node@U?$pair@$$CBW4vad_tensor@@PEBD@std@@PEAX@std@@@1@@Z
	??$_Erase_head@V?$allocator@U?$_Tree_node@U?$pair@$$CBW4vad_tensor@@W4ggml_op@@@std@@PEAX@std@@@std@@@?$_Tree_val@U?$_Tree_simple_types@U?$pair@$$CBW4vad_tensor@@W4ggml_op@@@std@@@std@@@std@@QEAAXAEAV?$allocator@U?$_Tree_node@U?$pair@$$CBW4vad_tensor@@W4ggml_op@@@std@@PEAX@std@@@1@@Z
	??$_Erase_head@V?$allocator@U?$_Tree_node@U?$pair@$$CBW4whisper_alignment_heads_preset@@Uwhisper_aheads@@@std@@PEAX@std@@@std@@@?$_Tree_val@U?$_Tree_simple_types@U?$pair@$$CBW4whisper_alignment_heads_preset@@Uwhisper_aheads@@@std@@@std@@@std@@QEAAXAEAV?$allocator@U?$_Tree_node@U?$pair@$$CBW4whisper_alignment_heads_preset@@Uwhisper_aheads@@@std@@PEAX@std@@@1@@Z
	??$_Erase_head@V?$allocator@U?$_Tree_node@U?$pair@QEAUggml_backend_buffer_type@@PEAUggml_context@@@std@@PEAX@std@@@std@@@?$_Tree_val@U?$_Tree_simple_types@U?$pair@QEAUggml_backend_buffer_type@@PEAUggml_context@@@std@@@std@@@std@@QEAAXAEAV?$allocator@U?$_Tree_node@U?$pair@QEAUggml_backend_buffer_type@@PEAUggml_context@@@std@@PEAX@std@@@1@@Z
	??$_Erase_tree@V?$allocator@U?$_Tree_node@HPEAX@std@@@std@@@?$_Tree_val@U?$_Tree_simple_types@H@std@@@std@@QEAAXAEAV?$allocator@U?$_Tree_node@HPEAX@std@@@1@PEAU?$_Tree_node@HPEAX@1@@Z
	??$_Erase_tree@V?$allocator@U?$_Tree_node@U?$pair@$$CBHH@std@@PEAX@std@@@std@@@?$_Tree_val@U?$_Tree_simple_types@U?$pair@$$CBHH@std@@@std@@@std@@QEAAXAEAV?$allocator@U?$_Tree_node@U?$pair@$$CBHH@std@@PEAX@std@@@1@PEAU?$_Tree_node@U?$pair@$$CBHH@std@@PEAX@1@@Z
	??$_Erase_tree@V?$allocator@U?$_Tree_node@U?$pair@$$CBHV?$basic_string@DU?$char_traits@D@std@@V?$allocator@D@2@@std@@@std@@PEAX@std@@@std@@@?$_Tree_val@U?$_Tree_simple_types@U?$pair@$$CBHV?$basic_string@DU?$char_traits@D@std@@V?$allocator@D@2@@std@@@std@@@std@@@std@@QEAAXAEAV?$allocator@U?$_Tree_node@U?$pair@$$CBHV?$basic_string@DU?$char_traits@D@std@@V?$allocator@D@2@@std@@@std@@PEAX@std@@@1@PEAU?$_Tree_node@U?$pair@$$CBHV?$basic_string@DU?$char_traits@D@std@@V?$allocator@D@2@@std@@@std@@PEAX@1@@Z
	??$_Erase_tree@V?$allocator@U?$_Tree_node@U?$pair@$$CBV?$basic_string@DU?$char_traits@D@std@@V?$allocator@D@2@@std@@H@std@@PEAX@std@@@std@@@?$_Tree_val@U?$_Tree_simple_types@U?$pair@$$CBV?$basic_string@DU?$char_traits@D@std@@V?$allocator@D@2@@std@@H@std@@@std@@@std@@QEAAXAEAV?$allocator@U?$_Tree_node@U?$pair@$$CBV?$basic_string@DU?$char_traits@D@std@@V?$allocator@D@2@@std@@H@std@@PEAX@std@@@1@PEAU?$_Tree_node@U?$pair@$$CBV?$basic_string@DU?$char_traits@D@std@@V?$allocator@D@2@@std@@H@std@@PEAX@1@@Z
	??$_Erase_tree@V?$allocator@U?$_Tree_node@U?$pair@$$CBV?$basic_string@DU?$char_traits@D@std@@V?$allocator@D@2@@std@@PEAUggml_tensor@@@std@@PEAX@std@@@std@@@?$_Tree_val@U?$_Tree_simple_types@U?$pair@$$CBV?$basic_string@DU?$char_traits@D@std@@V?$allocator@D@2@@std@@PEAUggml_tensor@@@std@@@std@@@std@@QEAAXAEAV?$allocator@U?$_Tree_node@U?$pair@$$CBV?$basic_string@DU?$char_traits@D@std@@V?$allocator@D@2@@std@@PEAUggml_tensor@@@std@@PEAX@std@@@1@PEAU?$_Tree_node@U?$pair@$$CBV?$basic_string@DU?$char_traits@D@std@@V?$allocator@D@2@@std@@PEAUggml_tensor@@@std@@PEAX@1@@Z
	??$_Erase_tree@V?$allocator@U?$_Tree_node@U?$pair@$$CBV?$basic_string@DU?$char_traits@D@std@@V?$allocator@D@2@@std@@U?$pair@HV?$basic_string@DU?$char_traits@D@std@@V?$allocator@D@2@@std@@@2@@std@@PEAX@std@@@std@@@?$_Tree_val@U?$_Tree_simple_types@U?$pair@$$CBV?$basic_string@DU?$char_traits@D@std@@V?$allocator@D@2@@std@@U?$pair@HV?$basic_string@DU?$char_traits@D@std@@V?$allocator@D@2@@std@@@2@@std@@@std@@@std@@QEAAXAEAV?$allocator@U?$_Tree_node@U?$pair@$$CBV?$basic_string@DU?$char_traits@D@std@@V?$allocator@D@2@@std@@U?$pair@HV?$basic_string@DU?$char_traits@D@std@@V?$allocator@D@2@@std@@@2@@std@@PEAX@std@@@1@PEAU?$_Tree_node@U?$pair@$$CBV?$basic_string@DU?$char_traits@D@std@@V?$allocator@D@2@@std@@U?$pair@HV?$basic_string@DU?$char_traits@D@std@@V?$allocator@D@2@@std@@@2@@std@@PEAX@1@@Z
	??$_Erase_tree@V?$allocator@U?$_Tree_node@U?$pair@$$CBW4asr_system@@V?$map@W4asr_tensor@@PEBDU?$less@W4asr_tensor@@@std@@V?$allocator@U?$pair@$$CBW4asr_tensor@@PEBD@std@@@3@@std@@@std@@PEAX@std@@@std@@@?$_Tree_val@U?$_Tree_simple_types@U?$pair@$$CBW4asr_system@@V?$map@W4asr_tensor@@PEBDU?$less@W4asr_tensor@@@std@@V?$allocator@U?$pair@$$CBW4asr_tensor@@PEBD@std@@@3@@std@@@std@@@std@@@std@@QEAAXAEAV?$allocator@U?$_Tree_node@U?$pair@$$CBW4asr_system@@V?$map@W4asr_tensor@@PEBDU?$less@W4asr_tensor@@@std@@V?$allocator@U?$pair@$$CBW4asr_tensor@@PEBD@std@@@3@@std@@@std@@PEAX@std@@@1@PEAU?$_Tree_node@U?$pair@$$CBW4asr_system@@V?$map@W4asr_tensor@@PEBDU?$less@W4asr_tensor@@@std@@V?$allocator@U?$pair@$$CBW4asr_tensor@@PEBD@std@@@3@@std@@@std@@PEAX@1@@Z
	??$_Erase_tree@V?$allocator@U?$_Tree_node@U?$pair@$$CBW4asr_tensor@@PEBD@std@@PEAX@std@@@std@@@?$_Tree_val@U?$_Tree_simple_types@U?$pair@$$CBW4asr_tensor@@PEBD@std@@@std@@@std@@QEAAXAEAV?$allocator@U?$_Tree_node@U?$pair@$$CBW4asr_tensor@@PEBD@std@@PEAX@std@@@1@PEAU?$_Tree_node@U?$pair@$$CBW4asr_tensor@@PEBD@std@@PEAX@1@@Z
	??$_Erase_tree@V?$allocator@U?$_Tree_node@U?$pair@$$CBW4asr_tensor@@W4ggml_op@@@std@@PEAX@std@@@std@@@?$_Tree_val@U?$_Tree_simple_types@U?$pair@$$CBW4asr_tensor@@W4ggml_op@@@std@@@std@@@std@@QEAAXAEAV?$allocator@U?$_Tree_node@U?$pair@$$CBW4asr_tensor@@W4ggml_op@@@std@@PEAX@std@@@1@PEAU?$_Tree_node@U?$pair@$$CBW4asr_tensor@@W4ggml_op@@@std@@PEAX@1@@Z
	??$_Erase_tree@V?$allocator@U?$_Tree_node@U?$pair@$$CBW4e_model@@V?$basic_string@DU?$char_traits@D@std@@V?$allocator@D@2@@std@@@std@@PEAX@std@@@std@@@?$_Tree_val@U?$_Tree_simple_types@U?$pair@$$CBW4e_model@@V?$basic_string@DU?$char_traits@D@std@@V?$allocator@D@2@@std@@@std@@@std@@@std@@QEAAXAEAV?$allocator@U?$_Tree_node@U?$pair@$$CBW4e_model@@V?$basic_string@DU?$char_traits@D@std@@V?$allocator@D@2@@std@@@std@@PEAX@std@@@1@PEAU?$_Tree_node@U?$pair@$$CBW4e_model@@V?$basic_string@DU?$char_traits@D@std@@V?$allocator@D@2@@std@@@std@@PEAX@1@@Z
	??$_Erase_tree@V?$allocator@U?$_Tree_node@U?$pair@$$CBW4vad_tensor@@PEBD@std@@PEAX@std@@@std@@@?$_Tree_val@U?$_Tree_simple_types@U?$pair@$$CBW4vad_tensor@@PEBD@std@@@std@@@std@@QEAAXAEAV?$allocator@U?$_Tree_node@U?$pair@$$CBW4vad_tensor@@PEBD@std@@PEAX@std@@@1@PEAU?$_Tree_node@U?$pair@$$CBW4vad_tensor@@PEBD@std@@PEAX@1@@Z
	??$_Erase_tree@V?$allocator@U?$_Tree_node@U?$pair@$$CBW4vad_tensor@@W4ggml_op@@@std@@PEAX@std@@@std@@@?$_Tree_val@U?$_Tree_simple_types@U?$pair@$$CBW4vad_tensor@@W4ggml_op@@@std@@@std@@@std@@QEAAXAEAV?$allocator@U?$_Tree_node@U?$pair@$$CBW4vad_tensor@@W4ggml_op@@@std@@PEAX@std@@@1@PEAU?$_Tree_node@U?$pair@$$CBW4vad_tensor@@W4ggml_op@@@std@@PEAX@1@@Z
	??$_Erase_tree@V?$allocator@U?$_Tree_node@U?$pair@$$CBW4whisper_alignment_heads_preset@@Uwhisper_aheads@@@std@@PEAX@std@@@std@@@?$_Tree_val@U?$_Tree_simple_types@U?$pair@$$CBW4whisper_alignment_heads_preset@@Uwhisper_aheads@@@std@@@std@@@std@@QEAAXAEAV?$allocator@U?$_Tree_node@U?$pair@$$CBW4whisper_alignment_heads_preset@@Uwhisper_aheads@@@std@@PEAX@std@@@1@PEAU?$_Tree_node@U?$pair@$$CBW4whisper_alignment_heads_preset@@Uwhisper_aheads@@@std@@PEAX@1@@Z
	??$_Erase_tree@V?$allocator@U?$_Tree_node@U?$pair@QEAUggml_backend_buffer_type@@PEAUggml_context@@@std@@PEAX@std@@@std@@@?$_Tree_val@U?$_Tree_simple_types@U?$pair@QEAUggml_backend_buffer_type@@PEAUggml_context@@@std@@@std@@@std@@QEAAXAEAV?$allocator@U?$_Tree_node@U?$pair@QEAUggml_backend_buffer_type@@PEAUggml_context@@@std@@PEAX@std@@@1@PEAU?$_Tree_node@U?$pair@QEAUggml_backend_buffer_type@@PEAUggml_context@@@std@@PEAX@1@@Z
	??$_Erase_tree_and_orphan@V?$allocator@U?$_Tree_node@HPEAX@std@@@std@@@?$_Tree_val@U?$_Tree_simple_types@H@std@@@std@@QEAAXAEAV?$allocator@U?$_Tree_node@HPEAX@std@@@1@PEAU?$_Tree_node@HPEAX@1@@Z
	??$_Erase_tree_and_orphan@V?$allocator@U?$_Tree_node@U?$pair@$$CBW4asr_tensor@@PEBD@std@@PEAX@std@@@std@@@?$_Tree_val@U?$_Tree_simple_types@U?$pair@$$CBW4asr_tensor@@PEBD@std@@@std@@@std@@QEAAXAEAV?$allocator@U?$_Tree_node@U?$pair@$$CBW4asr_tensor@@PEBD@std@@PEAX@std@@@1@PEAU?$_Tree_node@U?$pair@$$CBW4asr_tensor@@PEBD@std@@PEAX@1@@Z
	??$_Eval@V?$mersenne_twister_engine@I$0CA@$0CHA@$0BIN@$0BP@$0JJAILANP@$0L@$0PPPPPPPP@$06$0JNCMFGIA@$0P@$0OPMGAAAA@$0BC@$0GMAHIJGF@@std@@@?$discrete_distribution@H@std@@AEBAHAEAV?$mersenne_twister_engine@I$0CA@$0CHA@$0BIN@$0BP@$0JJAILANP@$0L@$0PPPPPPPP@$06$0JNCMFGIA@$0P@$0OPMGAAAA@$0BC@$0GMAHIJGF@@1@AEBUparam_type@01@@Z
	??$_Fgetc@D@std@@YA_NAEADPEAU_iobuf@@@Z
	??$_Fill_memset@PEADD@std@@YAXPEADD_K@Z
	??$_Fill_vbool@V?$_Vb_iterator@U?$_Wrap_alloc@V?$allocator@I@std@@@std@@@std@@@std@@YAXV?$_Vb_iterator@U?$_Wrap_alloc@V?$allocator@I@std@@@std@@@0@V10@_N@Z
	??$_Fill_zero_memset@PEAI@std@@YAXPEAI_K@Z
	??$_Fill_zero_memset@PEAM@std@@YAXPEAM_K@Z
	??$_Fill_zero_memset@PEAN@std@@YAXPEAN_K@Z
	??$_Find@E@_Bitmap@std@@QEBA_NE@Z
	??$_Find@H@?$_Tree@V?$_Tset_traits@HU?$less@H@std@@V?$allocator@H@2@$0A@@std@@@std@@AEBAPEAU?$_Tree_node@HPEAX@1@AEBH@Z
	??$_Find@PEAUggml_backend_buffer_type@@@?$_Tree@V?$_Tmap_traits@PEAUggml_backend_buffer_type@@PEAUggml_context@@U?$less@PEAUggml_backend_buffer_type@@@std@@V?$allocator@U?$pair@QEAUggml_backend_buffer_type@@PEAUggml_context@@@std@@@4@$0A@@std@@@std@@AEBAPEAU?$_Tree_node@U?$pair@QEAUggml_backend_buffer_type@@PEAUggml_context@@@std@@PEAX@1@AEBQEAUggml_backend_buffer_type@@@Z
	??$_Find@V?$basic_string@DU?$char_traits@D@std@@V?$allocator@D@2@@std@@@?$_Tree@V?$_Tmap_traits@V?$basic_string@DU?$char_traits@D@std@@V?$allocator@D@2@@std@@HU?$less@V?$basic_string@DU?$char_traits@D@std@@V?$allocator@D@2@@std@@@2@V?$allocator@U?$pair@$$CBV?$basic_string@DU?$char_traits@D@std@@V?$allocator@D@2@@std@@H@std@@@2@$0A@@std@@@std@@AEBAPEAU?$_Tree_node@U?$pair@$$CBV?$basic_string@DU?$char_traits@D@std@@V?$allocator@D@2@@std@@H@std@@PEAX@1@AEBV?$basic_string@DU?$char_traits@D@std@@V?$allocator@D@2@@1@@Z
	??$_Find@V?$basic_string@DU?$char_traits@D@std@@V?$allocator@D@2@@std@@@?$_Tree@V?$_Tmap_traits@V?$basic_string@DU?$char_traits@D@std@@V?$allocator@D@2@@std@@PEAUggml_tensor@@U?$less@V?$basic_string@DU?$char_traits@D@std@@V?$allocator@D@2@@std@@@2@V?$allocator@U?$pair@$$CBV?$basic_string@DU?$char_traits@D@std@@V?$allocator@D@2@@std@@PEAUggml_tensor@@@std@@@2@$0A@@std@@@std@@AEBAPEAU?$_Tree_node@U?$pair@$$CBV?$basic_string@DU?$char_traits@D@std@@V?$allocator@D@2@@std@@PEAUggml_tensor@@@std@@PEAX@1@AEBV?$basic_string@DU?$char_traits@D@std@@V?$allocator@D@2@@1@@Z
	??$_Find_end_vectorized@$$CBD$$CBD@std@@YAPEBDQEBD00_K@Z
	??$_Find_first_of_vectorized@$$CBD$$CBD@std@@YAPEBDQEBD000@Z
	??$_Find_hint@V?$basic_string@DU?$char_traits@D@std@@V?$allocator@D@2@@std@@@?$_Tree@V?$_Tmap_traits@V?$basic_string@DU?$char_traits@D@std@@V?$allocator@D@2@@std@@U?$pair@HV?$basic_string@DU?$char_traits@D@std@@V?$allocator@D@2@@std@@@2@U?$less@V?$basic_string@DU?$char_traits@D@std@@V?$allocator@D@2@@std@@@2@V?$allocator@U?$pair@$$CBV?$basic_string@DU?$char_traits@D@std@@V?$allocator@D@2@@std@@U?$pair@HV?$basic_string@DU?$char_traits@D@std@@V?$allocator@D@2@@std@@@2@@std@@@2@$0A@@std@@@std@@IEBA?AU?$_Tree_find_hint_result@PEAU?$_Tree_node@U?$pair@$$CBV?$basic_string@DU?$char_traits@D@std@@V?$allocator@D@2@@std@@U?$pair@HV?$basic_string@DU?$char_traits@D@std@@V?$allocator@D@2@@std@@@2@@std@@PEAX@std@@@1@QEAU?$_Tree_node@U?$pair@$$CBV?$basic_string@DU?$char_traits@D@std@@V?$allocator@D@2@@std@@U?$pair@HV?$basic_string@DU?$char_traits@D@std@@V?$allocator@D@2@@std@@@2@@std@@PEAX@1@AEBV?$basic_string@DU?$char_traits@D@std@@V?$allocator@D@2@@1@@Z
	??$_Find_hint@W4asr_system@@@?$_Tree@V?$_Tmap_traits@W4asr_system@@V?$map@W4asr_tensor@@PEBDU?$less@W4asr_tensor@@@std@@V?$allocator@U?$pair@$$CBW4asr_tensor@@PEBD@std@@@3@@std@@U?$less@W4asr_system@@@3@V?$allocator@U?$pair@$$CBW4asr_system@@V?$map@W4asr_tensor@@PEBDU?$less@W4asr_tensor@@@std@@V?$allocator@U?$pair@$$CBW4asr_tensor@@PEBD@std@@@3@@std@@@std@@@3@$0A@@std@@@std@@IEBA?AU?$_Tree_find_hint_result@PEAU?$_Tree_node@U?$pair@$$CBW4asr_system@@V?$map@W4asr_tensor@@PEBDU?$less@W4asr_tensor@@@std@@V?$allocator@U?$pair@$$CBW4asr_tensor@@PEBD@std@@@3@@std@@@std@@PEAX@std@@@1@QEAU?$_Tree_node@U?$pair@$$CBW4asr_system@@V?$map@W4asr_tensor@@PEBDU?$less@W4asr_tensor@@@std@@V?$allocator@U?$pair@$$CBW4asr_tensor@@PEBD@std@@@3@@std@@@std@@PEAX@1@AEBW4asr_system@@@Z
	??$_Find_hint@W4asr_tensor@@@?$_Tree@V?$_Tmap_traits@W4asr_tensor@@PEBDU?$less@W4asr_tensor@@@std@@V?$allocator@U?$pair@$$CBW4asr_tensor@@PEBD@std@@@3@$0A@@std@@@std@@IEBA?AU?$_Tree_find_hint_result@PEAU?$_Tree_node@U?$pair@$$CBW4asr_tensor@@PEBD@std@@PEAX@std@@@1@QEAU?$_Tree_node@U?$pair@$$CBW4asr_tensor@@PEBD@std@@PEAX@1@AEBW4asr_tensor@@@Z
	??$_Find_hint@W4asr_tensor@@@?$_Tree@V?$_Tmap_traits@W4asr_tensor@@W4ggml_op@@U?$less@W4asr_tensor@@@std@@V?$allocator@U?$pair@$$CBW4asr_tensor@@W4ggml_op@@@std@@@4@$0A@@std@@@std@@IEBA?AU?$_Tree_find_hint_result@PEAU?$_Tree_node@U?$pair@$$CBW4asr_tensor@@W4ggml_op@@@std@@PEAX@std@@@1@QEAU?$_Tree_node@U?$pair@$$CBW4asr_tensor@@W4ggml_op@@@std@@PEAX@1@AEBW4asr_tensor@@@Z
	??$_Find_hint@W4e_model@@@?$_Tree@V?$_Tmap_traits@W4e_model@@V?$basic_string@DU?$char_traits@D@std@@V?$allocator@D@2@@std@@U?$less@W4e_model@@@3@V?$allocator@U?$pair@$$CBW4e_model@@V?$basic_string@DU?$char_traits@D@std@@V?$allocator@D@2@@std@@@std@@@3@$0A@@std@@@std@@IEBA?AU?$_Tree_find_hint_result@PEAU?$_Tree_node@U?$pair@$$CBW4e_model@@V?$basic_string@DU?$char_traits@D@std@@V?$allocator@D@2@@std@@@std@@PEAX@std@@@1@QEAU?$_Tree_node@U?$pair@$$CBW4e_model@@V?$basic_string@DU?$char_traits@D@std@@V?$allocator@D@2@@std@@@std@@PEAX@1@AEBW4e_model@@@Z
	??$_Find_hint@W4vad_tensor@@@?$_Tree@V?$_Tmap_traits@W4vad_tensor@@PEBDU?$less@W4vad_tensor@@@std@@V?$allocator@U?$pair@$$CBW4vad_tensor@@PEBD@std@@@3@$0A@@std@@@std@@IEBA?AU?$_Tree_find_hint_result@PEAU?$_Tree_node@U?$pair@$$CBW4vad_tensor@@PEBD@std@@PEAX@std@@@1@QEAU?$_Tree_node@U?$pair@$$CBW4vad_tensor@@PEBD@std@@PEAX@1@AEBW4vad_tensor@@@Z
	??$_Find_hint@W4vad_tensor@@@?$_Tree@V?$_Tmap_traits@W4vad_tensor@@W4ggml_op@@U?$less@W4vad_tensor@@@std@@V?$allocator@U?$pair@$$CBW4vad_tensor@@W4ggml_op@@@std@@@4@$0A@@std@@@std@@IEBA?AU?$_Tree_find_hint_result@PEAU?$_Tree_node@U?$pair@$$CBW4vad_tensor@@W4ggml_op@@@std@@PEAX@std@@@1@QEAU?$_Tree_node@U?$pair@$$CBW4vad_tensor@@W4ggml_op@@@std@@PEAX@1@AEBW4vad_tensor@@@Z
	??$_Find_hint@W4whisper_alignment_heads_preset@@@?$_Tree@V?$_Tmap_traits@W4whisper_alignment_heads_preset@@Uwhisper_aheads@@U?$less@W4whisper_alignment_heads_preset@@@std@@V?$allocator@U?$pair@$$CBW4whisper_alignment_heads_preset@@Uwhisper_aheads@@@std@@@4@$0A@@std@@@std@@IEBA?AU?$_Tree_find_hint_result@PEAU?$_Tree_node@U?$pair@$$CBW4whisper_alignment_heads_preset@@Uwhisper_aheads@@@std@@PEAX@std@@@1@QEAU?$_Tree_node@U?$pair@$$CBW4whisper_alignment_heads_preset@@Uwhisper_aheads@@@std@@PEAX@1@AEBW4whisper_alignment_heads_preset@@@Z
	??$_Find_lower_bound@H@?$_Tree@V?$_Tmap_traits@HHU?$less@H@std@@V?$allocator@U?$pair@$$CBHH@std@@@2@$0A@@std@@@std@@IEBA?AU?$_Tree_find_result@PEAU?$_Tree_node@U?$pair@$$CBHH@std@@PEAX@std@@@1@AEBH@Z
	??$_Find_lower_bound@H@?$_Tree@V?$_Tmap_traits@HV?$basic_string@DU?$char_traits@D@std@@V?$allocator@D@2@@std@@U?$less@H@2@V?$allocator@U?$pair@$$CBHV?$basic_string@DU?$char_traits@D@std@@V?$allocator@D@2@@std@@@std@@@2@$0A@@std@@@std@@IEBA?AU?$_Tree_find_result@PEAU?$_Tree_node@U?$pair@$$CBHV?$basic_string@DU?$char_traits@D@std@@V?$allocator@D@2@@std@@@std@@PEAX@std@@@1@AEBH@Z
	??$_Find_lower_bound@H@?$_Tree@V?$_Tset_traits@HU?$less@H@std@@V?$allocator@H@2@$0A@@std@@@std@@IEBA?AU?$_Tree_find_result@PEAU?$_Tree_node@HPEAX@std@@@1@AEBH@Z
	??$_Find_lower_bound@PEAUggml_backend_buffer_type@@@?$_Tree@V?$_Tmap_traits@PEAUggml_backend_buffer_type@@PEAUggml_context@@U?$less@PEAUggml_backend_buffer_type@@@std@@V?$allocator@U?$pair@QEAUggml_backend_buffer_type@@PEAUggml_context@@@std@@@4@$0A@@std@@@std@@IEBA?AU?$_Tree_find_result@PEAU?$_Tree_node@U?$pair@QEAUggml_backend_buffer_type@@PEAUggml_context@@@std@@PEAX@std@@@1@AEBQEAUggml_backend_buffer_type@@@Z
	??$_Find_lower_bound@V?$basic_string@DU?$char_traits@D@std@@V?$allocator@D@2@@std@@@?$_Tree@V?$_Tmap_traits@V?$basic_string@DU?$char_traits@D@std@@V?$allocator@D@2@@std@@HU?$less@V?$basic_string@DU?$char_traits@D@std@@V?$allocator@D@2@@std@@@2@V?$allocator@U?$pair@$$CBV?$basic_string@DU?$char_traits@D@std@@V?$allocator@D@2@@std@@H@std@@@2@$0A@@std@@@std@@IEBA?AU?$_Tree_find_result@PEAU?$_Tree_node@U?$pair@$$CBV?$basic_string@DU?$char_traits@D@std@@V?$allocator@D@2@@std@@H@std@@PEAX@std@@@1@AEBV?$basic_string@DU?$char_traits@D@std@@V?$allocator@D@2@@1@@Z
	??$_Find_lower_bound@V?$basic_string@DU?$char_traits@D@std@@V?$allocator@D@2@@std@@@?$_Tree@V?$_Tmap_traits@V?$basic_string@DU?$char_traits@D@std@@V?$allocator@D@2@@std@@PEAUggml_tensor@@U?$less@V?$basic_string@DU?$char_traits@D@std@@V?$allocator@D@2@@std@@@2@V?$allocator@U?$pair@$$CBV?$basic_string@DU?$char_traits@D@std@@V?$allocator@D@2@@std@@PEAUggml_tensor@@@std@@@2@$0A@@std@@@std@@IEBA?AU?$_Tree_find_result@PEAU?$_Tree_node@U?$pair@$$CBV?$basic_string@DU?$char_traits@D@std@@V?$allocator@D@2@@std@@PEAUggml_tensor@@@std@@PEAX@std@@@1@AEBV?$basic_string@DU?$char_traits@D@std@@V?$allocator@D@2@@1@@Z
	??$_Find_lower_bound@V?$basic_string@DU?$char_traits@D@std@@V?$allocator@D@2@@std@@@?$_Tree@V?$_Tmap_traits@V?$basic_string@DU?$char_traits@D@std@@V?$allocator@D@2@@std@@U?$pair@HV?$basic_string@DU?$char_traits@D@std@@V?$allocator@D@2@@std@@@2@U?$less@V?$basic_string@DU?$char_traits@D@std@@V?$allocator@D@2@@std@@@2@V?$allocator@U?$pair@$$CBV?$basic_string@DU?$char_traits@D@std@@V?$allocator@D@2@@std@@U?$pair@HV?$basic_string@DU?$char_traits@D@std@@V?$allocator@D@2@@std@@@2@@std@@@2@$0A@@std@@@std@@IEBA?AU?$_Tree_find_result@PEAU?$_Tree_node@U?$pair@$$CBV?$basic_string@DU?$char_traits@D@std@@V?$allocator@D@2@@std@@U?$pair@HV?$basic_string@DU?$char_traits@D@std@@V?$allocator@D@2@@std@@@2@@std@@PEAX@std@@@1@AEBV?$basic_string@DU?$char_traits@D@std@@V?$allocator@D@2@@1@@Z
	??$_Find_lower_bound@W4asr_system@@@?$_Tree@V?$_Tmap_traits@W4asr_system@@V?$map@W4asr_tensor@@PEBDU?$less@W4asr_tensor@@@std@@V?$allocator@U?$pair@$$CBW4asr_tensor@@PEBD@std@@@3@@std@@U?$less@W4asr_system@@@3@V?$allocator@U?$pair@$$CBW4asr_system@@V?$map@W4asr_tensor@@PEBDU?$less@W4asr_tensor@@@std@@V?$allocator@U?$pair@$$CBW4asr_tensor@@PEBD@std@@@3@@std@@@std@@@3@$0A@@std@@@std@@IEBA?AU?$_Tree_find_result@PEAU?$_Tree_node@U?$pair@$$CBW4asr_system@@V?$map@W4asr_tensor@@PEBDU?$less@W4asr_tensor@@@std@@V?$allocator@U?$pair@$$CBW4asr_tensor@@PEBD@std@@@3@@std@@@std@@PEAX@std@@@1@AEBW4asr_system@@@Z
	??$_Find_lower_bound@W4asr_tensor@@@?$_Tree@V?$_Tmap_traits@W4asr_tensor@@PEBDU?$less@W4asr_tensor@@@std@@V?$allocator@U?$pair@$$CBW4asr_tensor@@PEBD@std@@@3@$0A@@std@@@std@@IEBA?AU?$_Tree_find_result@PEAU?$_Tree_node@U?$pair@$$CBW4asr_tensor@@PEBD@std@@PEAX@std@@@1@AEBW4asr_tensor@@@Z
	??$_Find_lower_bound@W4asr_tensor@@@?$_Tree@V?$_Tmap_traits@W4asr_tensor@@W4ggml_op@@U?$less@W4asr_tensor@@@std@@V?$allocator@U?$pair@$$CBW4asr_tensor@@W4ggml_op@@@std@@@4@$0A@@std@@@std@@IEBA?AU?$_Tree_find_result@PEAU?$_Tree_node@U?$pair@$$CBW4asr_tensor@@W4ggml_op@@@std@@PEAX@std@@@1@AEBW4asr_tensor@@@Z
	??$_Find_lower_bound@W4e_model@@@?$_Tree@V?$_Tmap_traits@W4e_model@@V?$basic_string@DU?$char_traits@D@std@@V?$allocator@D@2@@std@@U?$less@W4e_model@@@3@V?$allocator@U?$pair@$$CBW4e_model@@V?$basic_string@DU?$char_traits@D@std@@V?$allocator@D@2@@std@@@std@@@3@$0A@@std@@@std@@IEBA?AU?$_Tree_find_result@PEAU?$_Tree_node@U?$pair@$$CBW4e_model@@V?$basic_string@DU?$char_traits@D@std@@V?$allocator@D@2@@std@@@std@@PEAX@std@@@1@AEBW4e_model@@@Z
	??$_Find_lower_bound@W4vad_tensor@@@?$_Tree@V?$_Tmap_traits@W4vad_tensor@@PEBDU?$less@W4vad_tensor@@@std@@V?$allocator@U?$pair@$$CBW4vad_tensor@@PEBD@std@@@3@$0A@@std@@@std@@IEBA?AU?$_Tree_find_result@PEAU?$_Tree_node@U?$pair@$$CBW4vad_tensor@@PEBD@std@@PEAX@std@@@1@AEBW4vad_tensor@@@Z
	??$_Find_lower_bound@W4vad_tensor@@@?$_Tree@V?$_Tmap_traits@W4vad_tensor@@W4ggml_op@@U?$less@W4vad_tensor@@@std@@V?$allocator@U?$pair@$$CBW4vad_tensor@@W4ggml_op@@@std@@@4@$0A@@std@@@std@@IEBA?AU?$_Tree_find_result@PEAU?$_Tree_node@U?$pair@$$CBW4vad_tensor@@W4ggml_op@@@std@@PEAX@std@@@1@AEBW4vad_tensor@@@Z
	??$_Find_lower_bound@W4whisper_alignment_heads_preset@@@?$_Tree@V?$_Tmap_traits@W4whisper_alignment_heads_preset@@Uwhisper_aheads@@U?$less@W4whisper_alignment_heads_preset@@@std@@V?$allocator@U?$pair@$$CBW4whisper_alignment_heads_preset@@Uwhisper_aheads@@@std@@@4@$0A@@std@@@std@@IEBA?AU?$_Tree_find_result@PEAU?$_Tree_node@U?$pair@$$CBW4whisper_alignment_heads_preset@@Uwhisper_aheads@@@std@@PEAX@std@@@1@AEBW4whisper_alignment_heads_preset@@@Z
	??$_Find_unchecked@PEBDD@std@@YAPEBDPEBDQEBDAEBD@Z
	??$_Find_vectorized@$$CBDD@std@@YAPEBDQEBD0D@Z
	??$_Fputc@D@std@@YA_NDPEAU_iobuf@@@Z
	??$_Freenode0@V?$allocator@U?$_Tree_node@HPEAX@std@@@std@@@?$_Tree_node@HPEAX@std@@SAXAEAV?$allocator@U?$_Tree_node@HPEAX@std@@@1@PEAU01@@Z
	??$_Freenode0@V?$allocator@U?$_Tree_node@U?$pair@$$CBHH@std@@PEAX@std@@@std@@@?$_Tree_node@U?$pair@$$CBHH@std@@PEAX@std@@SAXAEAV?$allocator@U?$_Tree_node@U?$pair@$$CBHH@std@@PEAX@std@@@1@PEAU01@@Z
	??$_Freenode0@V?$allocator@U?$_Tree_node@U?$pair@$$CBHV?$basic_string@DU?$char_traits@D@std@@V?$allocator@D@2@@std@@@std@@PEAX@std@@@std@@@?$_Tree_node@U?$pair@$$CBHV?$basic_string@DU?$char_traits@D@std@@V?$allocator@D@2@@std@@@std@@PEAX@std@@SAXAEAV?$allocator@U?$_Tree_node@U?$pair@$$CBHV?$basic_string@DU?$char_traits@D@std@@V?$allocator@D@2@@std@@@std@@PEAX@std@@@1@PEAU01@@Z
	??$_Freenode0@V?$allocator@U?$_Tree_node@U?$pair@$$CBV?$basic_string@DU?$char_traits@D@std@@V?$allocator@D@2@@std@@H@std@@PEAX@std@@@std@@@?$_Tree_node@U?$pair@$$CBV?$basic_string@DU?$char_traits@D@std@@V?$allocator@D@2@@std@@H@std@@PEAX@std@@SAXAEAV?$allocator@U?$_Tree_node@U?$pair@$$CBV?$basic_string@DU?$char_traits@D@std@@V?$allocator@D@2@@std@@H@std@@PEAX@std@@@1@PEAU01@@Z
	??$_Freenode0@V?$allocator@U?$_Tree_node@U?$pair@$$CBV?$basic_string@DU?$char_traits@D@std@@V?$allocator@D@2@@std@@PEAUggml_tensor@@@std@@PEAX@std@@@std@@@?$_Tree_node@U?$pair@$$CBV?$basic_string@DU?$char_traits@D@std@@V?$allocator@D@2@@std@@PEAUggml_tensor@@@std@@PEAX@std@@SAXAEAV?$allocator@U?$_Tree_node@U?$pair@$$CBV?$basic_string@DU?$char_traits@D@std@@V?$allocator@D@2@@std@@PEAUggml_tensor@@@std@@PEAX@std@@@1@PEAU01@@Z
	??$_Freenode0@V?$allocator@U?$_Tree_node@U?$pair@$$CBV?$basic_string@DU?$char_traits@D@std@@V?$allocator@D@2@@std@@U?$pair@HV?$basic_string@DU?$char_traits@D@std@@V?$allocator@D@2@@std@@@2@@std@@PEAX@std@@@std@@@?$_Tree_node@U?$pair@$$CBV?$basic_string@DU?$char_traits@D@std@@V?$allocator@D@2@@std@@U?$pair@HV?$basic_string@DU?$char_traits@D@std@@V?$allocator@D@2@@std@@@2@@std@@PEAX@std@@SAXAEAV?$allocator@U?$_Tree_node@U?$pair@$$CBV?$basic_string@DU?$char_traits@D@std@@V?$allocator@D@2@@std@@U?$pair@HV?$basic_string@DU?$char_traits@D@std@@V?$allocator@D@2@@std@@@2@@std@@PEAX@std@@@1@PEAU01@@Z
	??$_Freenode0@V?$allocator@U?$_Tree_node@U?$pair@$$CBW4asr_system@@V?$map@W4asr_tensor@@PEBDU?$less@W4asr_tensor@@@std@@V?$allocator@U?$pair@$$CBW4asr_tensor@@PEBD@std@@@3@@std@@@std@@PEAX@std@@@std@@@?$_Tree_node@U?$pair@$$CBW4asr_system@@V?$map@W4asr_tensor@@PEBDU?$less@W4asr_tensor@@@std@@V?$allocator@U?$pair@$$CBW4asr_tensor@@PEBD@std@@@3@@std@@@std@@PEAX@std@@SAXAEAV?$allocator@U?$_Tree_node@U?$pair@$$CBW4asr_system@@V?$map@W4asr_tensor@@PEBDU?$less@W4asr_tensor@@@std@@V?$allocator@U?$pair@$$CBW4asr_tensor@@PEBD@std@@@3@@std@@@std@@PEAX@std@@@1@PEAU01@@Z
	??$_Freenode0@V?$allocator@U?$_Tree_node@U?$pair@$$CBW4asr_tensor@@PEBD@std@@PEAX@std@@@std@@@?$_Tree_node@U?$pair@$$CBW4asr_tensor@@PEBD@std@@PEAX@std@@SAXAEAV?$allocator@U?$_Tree_node@U?$pair@$$CBW4asr_tensor@@PEBD@std@@PEAX@std@@@1@PEAU01@@Z
	??$_Freenode0@V?$allocator@U?$_Tree_node@U?$pair@$$CBW4asr_tensor@@W4ggml_op@@@std@@PEAX@std@@@std@@@?$_Tree_node@U?$pair@$$CBW4asr_tensor@@W4ggml_op@@@std@@PEAX@std@@SAXAEAV?$allocator@U?$_Tree_node@U?$pair@$$CBW4asr_tensor@@W4ggml_op@@@std@@PEAX@std@@@1@PEAU01@@Z
	??$_Freenode0@V?$allocator@U?$_Tree_node@U?$pair@$$CBW4e_model@@V?$basic_string@DU?$char_traits@D@std@@V?$allocator@D@2@@std@@@std@@PEAX@std@@@std@@@?$_Tree_node@U?$pair@$$CBW4e_model@@V?$basic_string@DU?$char_traits@D@std@@V?$allocator@D@2@@std@@@std@@PEAX@std@@SAXAEAV?$allocator@U?$_Tree_node@U?$pair@$$CBW4e_model@@V?$basic_string@DU?$char_traits@D@std@@V?$allocator@D@2@@std@@@std@@PEAX@std@@@1@PEAU01@@Z
	??$_Freenode0@V?$allocator@U?$_Tree_node@U?$pair@$$CBW4vad_tensor@@PEBD@std@@PEAX@std@@@std@@@?$_Tree_node@U?$pair@$$CBW4vad_tensor@@PEBD@std@@PEAX@std@@SAXAEAV?$allocator@U?$_Tree_node@U?$pair@$$CBW4vad_tensor@@PEBD@std@@PEAX@std@@@1@PEAU01@@Z
	??$_Freenode0@V?$allocator@U?$_Tree_node@U?$pair@$$CBW4vad_tensor@@W4ggml_op@@@std@@PEAX@std@@@std@@@?$_Tree_node@U?$pair@$$CBW4vad_tensor@@W4ggml_op@@@std@@PEAX@std@@SAXAEAV?$allocator@U?$_Tree_node@U?$pair@$$CBW4vad_tensor@@W4ggml_op@@@std@@PEAX@std@@@1@PEAU01@@Z
	??$_Freenode0@V?$allocator@U?$_Tree_node@U?$pair@$$CBW4whisper_alignment_heads_preset@@Uwhisper_aheads@@@std@@PEAX@std@@@std@@@?$_Tree_node@U?$pair@$$CBW4whisper_alignment_heads_preset@@Uwhisper_aheads@@@std@@PEAX@std@@SAXAEAV?$allocator@U?$_Tree_node@U?$pair@$$CBW4whisper_alignment_heads_preset@@Uwhisper_aheads@@@std@@PEAX@std@@@1@PEAU01@@Z
	??$_Freenode0@V?$allocator@U?$_Tree_node@U?$pair@QEAUggml_backend_buffer_type@@PEAUggml_context@@@std@@PEAX@std@@@std@@@?$_Tree_node@U?$pair@QEAUggml_backend_buffer_type@@PEAUggml_context@@@std@@PEAX@std@@SAXAEAV?$allocator@U?$_Tree_node@U?$pair@QEAUggml_backend_buffer_type@@PEAUggml_context@@@std@@PEAX@std@@@1@PEAU01@@Z
	??$_Freenode@V?$allocator@U?$_Tree_node@HPEAX@std@@@std@@@?$_Tree_node@HPEAX@std@@SAXAEAV?$allocator@U?$_Tree_node@HPEAX@std@@@1@PEAU01@@Z
	??$_Freenode@V?$allocator@U?$_Tree_node@U?$pair@$$CBHH@std@@PEAX@std@@@std@@@?$_Tree_node@U?$pair@$$CBHH@std@@PEAX@std@@SAXAEAV?$allocator@U?$_Tree_node@U?$pair@$$CBHH@std@@PEAX@std@@@1@PEAU01@@Z
	??$_Freenode@V?$allocator@U?$_Tree_node@U?$pair@$$CBHV?$basic_string@DU?$char_traits@D@std@@V?$allocator@D@2@@std@@@std@@PEAX@std@@@std@@@?$_Tree_node@U?$pair@$$CBHV?$basic_string@DU?$char_traits@D@std@@V?$allocator@D@2@@std@@@std@@PEAX@std@@SAXAEAV?$allocator@U?$_Tree_node@U?$pair@$$CBHV?$basic_string@DU?$char_traits@D@std@@V?$allocator@D@2@@std@@@std@@PEAX@std@@@1@PEAU01@@Z
	??$_Freenode@V?$allocator@U?$_Tree_node@U?$pair@$$CBV?$basic_string@DU?$char_traits@D@std@@V?$allocator@D@2@@std@@H@std@@PEAX@std@@@std@@@?$_Tree_node@U?$pair@$$CBV?$basic_string@DU?$char_traits@D@std@@V?$allocator@D@2@@std@@H@std@@PEAX@std@@SAXAEAV?$allocator@U?$_Tree_node@U?$pair@$$CBV?$basic_string@DU?$char_traits@D@std@@V?$allocator@D@2@@std@@H@std@@PEAX@std@@@1@PEAU01@@Z
	??$_Freenode@V?$allocator@U?$_Tree_node@U?$pair@$$CBV?$basic_string@DU?$char_traits@D@std@@V?$allocator@D@2@@std@@PEAUggml_tensor@@@std@@PEAX@std@@@std@@@?$_Tree_node@U?$pair@$$CBV?$basic_string@DU?$char_traits@D@std@@V?$allocator@D@2@@std@@PEAUggml_tensor@@@std@@PEAX@std@@SAXAEAV?$allocator@U?$_Tree_node@U?$pair@$$CBV?$basic_string@DU?$char_traits@D@std@@V?$allocator@D@2@@std@@PEAUggml_tensor@@@std@@PEAX@std@@@1@PEAU01@@Z
	??$_Freenode@V?$allocator@U?$_Tree_node@U?$pair@$$CBV?$basic_string@DU?$char_traits@D@std@@V?$allocator@D@2@@std@@U?$pair@HV?$basic_string@DU?$char_traits@D@std@@V?$allocator@D@2@@std@@@2@@std@@PEAX@std@@@std@@@?$_Tree_node@U?$pair@$$CBV?$basic_string@DU?$char_traits@D@std@@V?$allocator@D@2@@std@@U?$pair@HV?$basic_string@DU?$char_traits@D@std@@V?$allocator@D@2@@std@@@2@@std@@PEAX@std@@SAXAEAV?$allocator@U?$_Tree_node@U?$pair@$$CBV?$basic_string@DU?$char_traits@D@std@@V?$allocator@D@2@@std@@U?$pair@HV?$basic_string@DU?$char_traits@D@std@@V?$allocator@D@2@@std@@@2@@std@@PEAX@std@@@1@PEAU01@@Z
	??$_Freenode@V?$allocator@U?$_Tree_node@U?$pair@$$CBW4asr_system@@V?$map@W4asr_tensor@@PEBDU?$less@W4asr_tensor@@@std@@V?$allocator@U?$pair@$$CBW4asr_tensor@@PEBD@std@@@3@@std@@@std@@PEAX@std@@@std@@@?$_Tree_node@U?$pair@$$CBW4asr_system@@V?$map@W4asr_tensor@@PEBDU?$less@W4asr_tensor@@@std@@V?$allocator@U?$pair@$$CBW4asr_tensor@@PEBD@std@@@3@@std@@@std@@PEAX@std@@SAXAEAV?$allocator@U?$_Tree_node@U?$pair@$$CBW4asr_system@@V?$map@W4asr_tensor@@PEBDU?$less@W4asr_tensor@@@std@@V?$allocator@U?$pair@$$CBW4asr_tensor@@PEBD@std@@@3@@std@@@std@@PEAX@std@@@1@PEAU01@@Z
	??$_Freenode@V?$allocator@U?$_Tree_node@U?$pair@$$CBW4asr_tensor@@PEBD@std@@PEAX@std@@@std@@@?$_Tree_node@U?$pair@$$CBW4asr_tensor@@PEBD@std@@PEAX@std@@SAXAEAV?$allocator@U?$_Tree_node@U?$pair@$$CBW4asr_tensor@@PEBD@std@@PEAX@std@@@1@PEAU01@@Z
	??$_Freenode@V?$allocator@U?$_Tree_node@U?$pair@$$CBW4asr_tensor@@W4ggml_op@@@std@@PEAX@std@@@std@@@?$_Tree_node@U?$pair@$$CBW4asr_tensor@@W4ggml_op@@@std@@PEAX@std@@SAXAEAV?$allocator@U?$_Tree_node@U?$pair@$$CBW4asr_tensor@@W4ggml_op@@@std@@PEAX@std@@@1@PEAU01@@Z
	??$_Freenode@V?$allocator@U?$_Tree_node@U?$pair@$$CBW4e_model@@V?$basic_string@DU?$char_traits@D@std@@V?$allocator@D@2@@std@@@std@@PEAX@std@@@std@@@?$_Tree_node@U?$pair@$$CBW4e_model@@V?$basic_string@DU?$char_traits@D@std@@V?$allocator@D@2@@std@@@std@@PEAX@std@@SAXAEAV?$allocator@U?$_Tree_node@U?$pair@$$CBW4e_model@@V?$basic_string@DU?$char_traits@D@std@@V?$allocator@D@2@@std@@@std@@PEAX@std@@@1@PEAU01@@Z
	??$_Freenode@V?$allocator@U?$_Tree_node@U?$pair@$$CBW4vad_tensor@@PEBD@std@@PEAX@std@@@std@@@?$_Tree_node@U?$pair@$$CBW4vad_tensor@@PEBD@std@@PEAX@std@@SAXAEAV?$allocator@U?$_Tree_node@U?$pair@$$CBW4vad_tensor@@PEBD@std@@PEAX@std@@@1@PEAU01@@Z
	??$_Freenode@V?$allocator@U?$_Tree_node@U?$pair@$$CBW4vad_tensor@@W4ggml_op@@@std@@PEAX@std@@@std@@@?$_Tree_node@U?$pair@$$CBW4vad_tensor@@W4ggml_op@@@std@@PEAX@std@@SAXAEAV?$allocator@U?$_Tree_node@U?$pair@$$CBW4vad_tensor@@W4ggml_op@@@std@@PEAX@std@@@1@PEAU01@@Z
	??$_Freenode@V?$allocator@U?$_Tree_node@U?$pair@$$CBW4whisper_alignment_heads_preset@@Uwhisper_aheads@@@std@@PEAX@std@@@std@@@?$_Tree_node@U?$pair@$$CBW4whisper_alignment_heads_preset@@Uwhisper_aheads@@@std@@PEAX@std@@SAXAEAV?$allocator@U?$_Tree_node@U?$pair@$$CBW4whisper_alignment_heads_preset@@Uwhisper_aheads@@@std@@PEAX@std@@@1@PEAU01@@Z
	??$_Freenode@V?$allocator@U?$_Tree_node@U?$pair@QEAUggml_backend_buffer_type@@PEAUggml_context@@@std@@PEAX@std@@@std@@@?$_Tree_node@U?$pair@QEAUggml_backend_buffer_type@@PEAUggml_context@@@std@@PEAX@std@@SAXAEAV?$allocator@U?$_Tree_node@U?$pair@QEAUggml_backend_buffer_type@@PEAUggml_context@@@std@@PEAX@std@@@1@PEAU01@@Z
	??$_Get@D@_Cl_names@std@@QEBAPEBDXZ
	??$_Get_index@$0A@@id@locale@std@@QEAA_KXZ
	??$_Get_proxy_allocator@V?$allocator@D@std@@@std@@YA?AU_Fake_allocator@0@AEBV?$allocator@D@0@@Z
	??$_Get_proxy_allocator@V?$allocator@E@std@@@std@@YA?AU_Fake_allocator@0@AEBV?$allocator@E@0@@Z
	??$_Get_proxy_allocator@V?$allocator@H@std@@@std@@YA?AU_Fake_allocator@0@AEBV?$allocator@H@0@@Z
	??$_Get_proxy_allocator@V?$allocator@I@std@@@std@@YA?AU_Fake_allocator@0@AEBV?$allocator@I@0@@Z
	??$_Get_proxy_allocator@V?$allocator@M@std@@@std@@YA?AU_Fake_allocator@0@AEBV?$allocator@M@0@@Z
	??$_Get_proxy_allocator@V?$allocator@N@std@@@std@@YA?AU_Fake_allocator@0@AEBV?$allocator@N@0@@Z
	??$_Get_proxy_allocator@V?$allocator@PEAUggml_backend@@@std@@@std@@YA?AU_Fake_allocator@0@AEBV?$allocator@PEAUggml_backend@@@0@@Z
	??$_Get_proxy_allocator@V?$allocator@PEAUggml_backend_buffer@@@std@@@std@@YA?AU_Fake_allocator@0@AEBV?$allocator@PEAUggml_backend_buffer@@@0@@Z
	??$_Get_proxy_allocator@V?$allocator@PEAUggml_context@@@std@@@std@@YA?AU_Fake_allocator@0@AEBV?$allocator@PEAUggml_context@@@0@@Z
	??$_Get_proxy_allocator@V?$allocator@PEAUggml_tensor@@@std@@@std@@YA?AU_Fake_allocator@0@AEBV?$allocator@PEAUggml_tensor@@@0@@Z
	??$_Get_proxy_allocator@V?$allocator@PEAUwhisper_state@@@std@@@std@@YA?AU_Fake_allocator@0@AEBV?$allocator@PEAUwhisper_state@@@0@@Z
	??$_Get_proxy_allocator@V?$allocator@PEBUwhisper_grammar_element@@@std@@@std@@YA?AU_Fake_allocator@0@AEBV?$allocator@PEBUwhisper_grammar_element@@@0@@Z
	??$_Get_proxy_allocator@V?$allocator@U?$_Tree_node@HPEAX@std@@@std@@@std@@YA?AU_Fake_allocator@0@AEBV?$allocator@U?$_Tree_node@HPEAX@std@@@0@@Z
	??$_Get_proxy_allocator@V?$allocator@U?$_Tree_node@U?$pair@$$CBHH@std@@PEAX@std@@@std@@@std@@YA?AU_Fake_allocator@0@AEBV?$allocator@U?$_Tree_node@U?$pair@$$CBHH@std@@PEAX@std@@@0@@Z
	??$_Get_proxy_allocator@V?$allocator@U?$_Tree_node@U?$pair@$$CBHV?$basic_string@DU?$char_traits@D@std@@V?$allocator@D@2@@std@@@std@@PEAX@std@@@std@@@std@@YA?AU_Fake_allocator@0@AEBV?$allocator@U?$_Tree_node@U?$pair@$$CBHV?$basic_string@DU?$char_traits@D@std@@V?$allocator@D@2@@std@@@std@@PEAX@std@@@0@@Z
	??$_Get_proxy_allocator@V?$allocator@U?$_Tree_node@U?$pair@$$CBV?$basic_string@DU?$char_traits@D@std@@V?$allocator@D@2@@std@@H@std@@PEAX@std@@@std@@@std@@YA?AU_Fake_allocator@0@AEBV?$allocator@U?$_Tree_node@U?$pair@$$CBV?$basic_string@DU?$char_traits@D@std@@V?$allocator@D@2@@std@@H@std@@PEAX@std@@@0@@Z
	??$_Get_proxy_allocator@V?$allocator@U?$_Tree_node@U?$pair@$$CBV?$basic_string@DU?$char_traits@D@std@@V?$allocator@D@2@@std@@PEAUggml_tensor@@@std@@PEAX@std@@@std@@@std@@YA?AU_Fake_allocator@0@AEBV?$allocator@U?$_Tree_node@U?$pair@$$CBV?$basic_string@DU?$char_traits@D@std@@V?$allocator@D@2@@std@@PEAUggml_tensor@@@std@@PEAX@std@@@0@@Z
	??$_Get_proxy_allocator@V?$allocator@U?$_Tree_node@U?$pair@$$CBV?$basic_string@DU?$char_traits@D@std@@V?$allocator@D@2@@std@@U?$pair@HV?$basic_string@DU?$char_traits@D@std@@V?$allocator@D@2@@std@@@2@@std@@PEAX@std@@@std@@@std@@YA?AU_Fake_allocator@0@AEBV?$allocator@U?$_Tree_node@U?$pair@$$CBV?$basic_string@DU?$char_traits@D@std@@V?$allocator@D@2@@std@@U?$pair@HV?$basic_string@DU?$char_traits@D@std@@V?$allocator@D@2@@std@@@2@@std@@PEAX@std@@@0@@Z
	??$_Get_proxy_allocator@V?$allocator@U?$_Tree_node@U?$pair@$$CBW4asr_system@@V?$map@W4asr_tensor@@PEBDU?$less@W4asr_tensor@@@std@@V?$allocator@U?$pair@$$CBW4asr_tensor@@PEBD@std@@@3@@std@@@std@@PEAX@std@@@std@@@std@@YA?AU_Fake_allocator@0@AEBV?$allocator@U?$_Tree_node@U?$pair@$$CBW4asr_system@@V?$map@W4asr_tensor@@PEBDU?$less@W4asr_tensor@@@std@@V?$allocator@U?$pair@$$CBW4asr_tensor@@PEBD@std@@@3@@std@@@std@@PEAX@std@@@0@@Z
	??$_Get_proxy_allocator@V?$allocator@U?$_Tree_node@U?$pair@$$CBW4asr_tensor@@PEBD@std@@PEAX@std@@@std@@@std@@YA?AU_Fake_allocator@0@AEBV?$allocator@U?$_Tree_node@U?$pair@$$CBW4asr_tensor@@PEBD@std@@PEAX@std@@@0@@Z
	??$_Get_proxy_allocator@V?$allocator@U?$_Tree_node@U?$pair@$$CBW4asr_tensor@@W4ggml_op@@@std@@PEAX@std@@@std@@@std@@YA?AU_Fake_allocator@0@AEBV?$allocator@U?$_Tree_node@U?$pair@$$CBW4asr_tensor@@W4ggml_op@@@std@@PEAX@std@@@0@@Z
	??$_Get_proxy_allocator@V?$allocator@U?$_Tree_node@U?$pair@$$CBW4e_model@@V?$basic_string@DU?$char_traits@D@std@@V?$allocator@D@2@@std@@@std@@PEAX@std@@@std@@@std@@YA?AU_Fake_allocator@0@AEBV?$allocator@U?$_Tree_node@U?$pair@$$CBW4e_model@@V?$basic_string@DU?$char_traits@D@std@@V?$allocator@D@2@@std@@@std@@PEAX@std@@@0@@Z
	??$_Get_proxy_allocator@V?$allocator@U?$_Tree_node@U?$pair@$$CBW4vad_tensor@@PEBD@std@@PEAX@std@@@std@@@std@@YA?AU_Fake_allocator@0@AEBV?$allocator@U?$_Tree_node@U?$pair@$$CBW4vad_tensor@@PEBD@std@@PEAX@std@@@0@@Z
	??$_Get_proxy_allocator@V?$allocator@U?$_Tree_node@U?$pair@$$CBW4vad_tensor@@W4ggml_op@@@std@@PEAX@std@@@std@@@std@@YA?AU_Fake_allocator@0@AEBV?$allocator@U?$_Tree_node@U?$pair@$$CBW4vad_tensor@@W4ggml_op@@@std@@PEAX@std@@@0@@Z
	??$_Get_proxy_allocator@V?$allocator@U?$_Tree_node@U?$pair@$$CBW4whisper_alignment_heads_preset@@Uwhisper_aheads@@@std@@PEAX@std@@@std@@@std@@YA?AU_Fake_allocator@0@AEBV?$allocator@U?$_Tree_node@U?$pair@$$CBW4whisper_alignment_heads_preset@@Uwhisper_aheads@@@std@@PEAX@std@@@0@@Z
	??$_Get_proxy_allocator@V?$allocator@U?$_Tree_node@U?$pair@QEAUggml_backend_buffer_type@@PEAUggml_context@@@std@@PEAX@std@@@std@@@std@@YA?AU_Fake_allocator@0@AEBV?$allocator@U?$_Tree_node@U?$pair@QEAUggml_backend_buffer_type@@PEAUggml_context@@@std@@PEAX@std@@@0@@Z
	??$_Get_proxy_allocator@V?$allocator@U?$pair@PEAUggml_backend_device@@PEAUggml_backend_buffer_type@@@std@@@std@@@std@@YA?AU_Fake_allocator@0@AEBV?$allocator@U?$pair@PEAUggml_backend_device@@PEAUggml_backend_buffer_type@@@std@@@0@@Z
	??$_Get_proxy_allocator@V?$allocator@U?$pair@V?$vector@IV?$allocator@I@std@@@std@@Uwhisper_partial_utf8@@@std@@@std@@@std@@YA?AU_Fake_allocator@0@AEBV?$allocator@U?$pair@V?$vector@IV?$allocator@I@std@@@std@@Uwhisper_partial_utf8@@@std@@@0@@Z
	??$_Get_proxy_allocator@V?$allocator@U?$whisper_pair@NH@@@std@@@std@@YA?AU_Fake_allocator@0@AEBV?$allocator@U?$whisper_pair@NH@@@0@@Z
	??$_Get_proxy_allocator@V?$allocator@U_Grp_t@?$_Tgt_state_t@PEBD@std@@@std@@@std@@YA?AU_Fake_allocator@0@AEBV?$allocator@U_Grp_t@?$_Tgt_state_t@PEBD@std@@@0@@Z
	??$_Get_proxy_allocator@V?$allocator@U_Grp_t@?$_Tgt_state_t@V?$_String_const_iterator@V?$_String_val@U?$_Simple_types@D@std@@@std@@@std@@@std@@@std@@@std@@YA?AU_Fake_allocator@0@AEBV?$allocator@U_Grp_t@?$_Tgt_state_t@V?$_String_const_iterator@V?$_String_val@U?$_Simple_types@D@std@@@std@@@std@@@std@@@0@@Z
	??$_Get_proxy_allocator@V?$allocator@U_Loop_vals_v2_t@std@@@std@@@std@@YA?AU_Fake_allocator@0@AEBV?$allocator@U_Loop_vals_v2_t@std@@@0@@Z
	??$_Get_proxy_allocator@V?$allocator@Uvad_segment_info@whisper_state@@@std@@@std@@YA?AU_Fake_allocator@0@AEBV?$allocator@Uvad_segment_info@whisper_state@@@0@@Z
	??$_Get_proxy_allocator@V?$allocator@Uvad_time_mapping@@@std@@@std@@YA?AU_Fake_allocator@0@AEBV?$allocator@Uvad_time_mapping@@@0@@Z
	??$_Get_proxy_allocator@V?$allocator@Uwhisper_grammar_candidate@@@std@@@std@@YA?AU_Fake_allocator@0@AEBV?$allocator@Uwhisper_grammar_candidate@@@0@@Z
	??$_Get_proxy_allocator@V?$allocator@Uwhisper_grammar_element@@@std@@@std@@YA?AU_Fake_allocator@0@AEBV?$allocator@Uwhisper_grammar_element@@@0@@Z
	??$_Get_proxy_allocator@V?$allocator@Uwhisper_kv_cell@@@std@@@std@@YA?AU_Fake_allocator@0@AEBV?$allocator@Uwhisper_kv_cell@@@0@@Z
	??$_Get_proxy_allocator@V?$allocator@Uwhisper_layer_decoder@@@std@@@std@@YA?AU_Fake_allocator@0@AEBV?$allocator@Uwhisper_layer_decoder@@@0@@Z
	??$_Get_proxy_allocator@V?$allocator@Uwhisper_layer_encoder@@@std@@@std@@YA?AU_Fake_allocator@0@AEBV?$allocator@Uwhisper_layer_encoder@@@0@@Z
	??$_Get_proxy_allocator@V?$allocator@Uwhisper_segment@@@std@@@std@@YA?AU_Fake_allocator@0@AEBV?$allocator@Uwhisper_segment@@@0@@Z
	??$_Get_proxy_allocator@V?$allocator@Uwhisper_token_data@@@std@@@std@@YA?AU_Fake_allocator@0@AEBV?$allocator@Uwhisper_token_data@@@0@@Z
	??$_Get_proxy_allocator@V?$allocator@Uwhisper_vad_segment@@@std@@@std@@YA?AU_Fake_allocator@0@AEBV?$allocator@Uwhisper_vad_segment@@@0@@Z
	??$_Get_proxy_allocator@V?$allocator@V?$_Tgt_state_t@PEBD@std@@@std@@@std@@YA?AU_Fake_allocator@0@AEBV?$allocator@V?$_Tgt_state_t@PEBD@std@@@0@@Z
	??$_Get_proxy_allocator@V?$allocator@V?$_Tgt_state_t@V?$_String_const_iterator@V?$_String_val@U?$_Simple_types@D@std@@@std@@@std@@@std@@@std@@@std@@YA?AU_Fake_allocator@0@AEBV?$allocator@V?$_Tgt_state_t@V?$_String_const_iterator@V?$_String_val@U?$_Simple_types@D@std@@@std@@@std@@@std@@@0@@Z
	??$_Get_proxy_allocator@V?$allocator@V?$basic_string@DU?$char_traits@D@std@@V?$allocator@D@2@@std@@@std@@@std@@YA?AU_Fake_allocator@0@AEBV?$allocator@V?$basic_string@DU?$char_traits@D@std@@V?$allocator@D@2@@std@@@0@@Z
	??$_Get_proxy_allocator@V?$allocator@V?$sub_match@V?$_String_const_iterator@V?$_String_val@U?$_Simple_types@D@std@@@std@@@std@@@std@@@std@@@std@@YA?AU_Fake_allocator@0@AEBV?$allocator@V?$sub_match@V?$_String_const_iterator@V?$_String_val@U?$_Simple_types@D@std@@@std@@@std@@@std@@@0@@Z
	??$_Get_proxy_allocator@V?$allocator@V?$vector@PEBUwhisper_grammar_element@@V?$allocator@PEBUwhisper_grammar_element@@@std@@@std@@@std@@@std@@YA?AU_Fake_allocator@0@AEBV?$allocator@V?$vector@PEBUwhisper_grammar_element@@V?$allocator@PEBUwhisper_grammar_element@@@std@@@std@@@0@@Z
	??$_Get_proxy_allocator@V?$allocator@V?$vector@Uwhisper_grammar_element@@V?$allocator@Uwhisper_grammar_element@@@std@@@std@@@std@@@std@@YA?AU_Fake_allocator@0@AEBV?$allocator@V?$vector@Uwhisper_grammar_element@@V?$allocator@Uwhisper_grammar_element@@@std@@@std@@@0@@Z
	??$_Get_proxy_allocator@V?$allocator@Vthread@std@@@std@@@std@@YA?AU_Fake_allocator@0@AEBV?$allocator@Vthread@std@@@0@@Z
	??$_Get_proxy_allocator@V?$allocator@_K@std@@@std@@YA?AU_Fake_allocator@0@AEBV?$allocator@_K@0@@Z
	??$_Get_proxy_allocator@V?$allocator@_W@std@@@std@@YA?AU_Fake_allocator@0@AEBV?$allocator@_W@0@@Z
	??$_Get_size_of_n@$00@std@@YA_K_K@Z
	??$_Get_size_of_n@$01@std@@YA_K_K@Z
	??$_Get_size_of_n@$03@std@@YA_K_K@Z
	??$_Get_size_of_n@$07@std@@YA_K_K@Z
	??$_Get_size_of_n@$0BA@@std@@YA_K_K@Z
	??$_Get_size_of_n@$0BI@@std@@YA_K_K@Z
	??$_Get_size_of_n@$0CA@@std@@YA_K_K@Z
	??$_Get_size_of_n@$0CI@@std@@YA_K_K@Z
	??$_Get_size_of_n@$0DA@@std@@YA_K_K@Z
	??$_Get_size_of_n@$0DI@@std@@YA_K_K@Z
	??$_Get_size_of_n@$0EA@@std@@YA_K_K@Z
	??$_Get_size_of_n@$0EI@@std@@YA_K_K@Z
	??$_Get_size_of_n@$0FI@@std@@YA_K_K@Z
	??$_Get_size_of_n@$0GI@@std@@YA_K_K@Z
	??$_Get_size_of_n@$0HI@@std@@YA_K_K@Z
	??$_Get_size_of_n@$0JA@@std@@YA_K_K@Z
	??$_Get_size_of_n@$0MA@@std@@YA_K_K@Z
	??$_Get_unwrapped@AEAPEAD@std@@YA?A_TAEAPEAD@Z
	??$_Get_unwrapped@AEAPEBD@std@@YA?A_TAEAPEBD@Z
	??$_Get_unwrapped@AEAPEBH@std@@YA?A_TAEAPEBH@Z
	??$_Get_unwrapped@AEAPEBM@std@@YA?A_TAEAPEBM@Z
	??$_Get_unwrapped@AEAV?$_String_const_iterator@V?$_String_val@U?$_Simple_types@D@std@@@std@@@std@@@std@@YA?A_TAEAV?$_String_const_iterator@V?$_String_val@U?$_Simple_types@D@std@@@std@@@0@@Z
	??$_Get_unwrapped@AEAV?$_String_iterator@V?$_String_val@U?$_Simple_types@D@std@@@std@@@std@@@std@@YA?A_TAEAV?$_String_iterator@V?$_String_val@U?$_Simple_types@D@std@@@std@@@0@@Z
	??$_Get_unwrapped@AEAV?$_Tree_unchecked_const_iterator@V?$_Tree_val@U?$_Tree_simple_types@H@std@@@std@@U_Iterator_base0@2@@std@@@std@@YA?A_TAEAV?$_Tree_unchecked_const_iterator@V?$_Tree_val@U?$_Tree_simple_types@H@std@@@std@@U_Iterator_base0@2@@0@@Z
	??$_Get_unwrapped@AEAV?$_Vb_iterator@U?$_Wrap_alloc@V?$allocator@I@std@@@std@@@std@@@std@@YA?A_TAEAV?$_Vb_iterator@U?$_Wrap_alloc@V?$allocator@I@std@@@std@@@0@@Z
	??$_Get_unwrapped@AEAV?$_Vector_const_iterator@V?$_Vector_val@U?$_Simple_types@M@std@@@std@@@std@@@std@@YA?A_TAEAV?$_Vector_const_iterator@V?$_Vector_val@U?$_Simple_types@M@std@@@std@@@0@@Z
	??$_Get_unwrapped@AEAV?$_Vector_const_iterator@V?$_Vector_val@U?$_Simple_types@N@std@@@std@@@std@@@std@@YA?A_TAEAV?$_Vector_const_iterator@V?$_Vector_val@U?$_Simple_types@N@std@@@std@@@0@@Z
	??$_Get_unwrapped@AEAV?$_Vector_const_iterator@V?$_Vector_val@U?$_Simple_types@PEBUwhisper_grammar_element@@@std@@@std@@@std@@@std@@YA?A_TAEAV?$_Vector_const_iterator@V?$_Vector_val@U?$_Simple_types@PEBUwhisper_grammar_element@@@std@@@std@@@0@@Z
	??$_Get_unwrapped@AEAV?$_Vector_const_iterator@V?$_Vector_val@U?$_Simple_types@Uvad_time_mapping@@@std@@@std@@@std@@@std@@YA?A_TAEAV?$_Vector_const_iterator@V?$_Vector_val@U?$_Simple_types@Uvad_time_mapping@@@std@@@std@@@0@@Z
	??$_Get_unwrapped@AEAV?$_Vector_iterator@V?$_Vector_val@U?$_Simple_types@H@std@@@std@@@std@@@std@@YA?A_TAEAV?$_Vector_iterator@V?$_Vector_val@U?$_Simple_types@H@std@@@std@@@0@@Z
	??$_Get_unwrapped@AEAV?$_Vector_iterator@V?$_Vector_val@U?$_Simple_types@M@std@@@std@@@std@@@std@@YA?A_TAEAV?$_Vector_iterator@V?$_Vector_val@U?$_Simple_types@M@std@@@std@@@0@@Z
	??$_Get_unwrapped@AEAV?$_Vector_iterator@V?$_Vector_val@U?$_Simple_types@U?$whisper_pair@NH@@@std@@@std@@@std@@@std@@YA?A_TAEAV?$_Vector_iterator@V?$_Vector_val@U?$_Simple_types@U?$whisper_pair@NH@@@std@@@std@@@0@@Z
	??$_Get_unwrapped@AEAV?$_Vector_iterator@V?$_Vector_val@U?$_Simple_types@Uvad_time_mapping@@@std@@@std@@@std@@@std@@YA?A_TAEAV?$_Vector_iterator@V?$_Vector_val@U?$_Simple_types@Uvad_time_mapping@@@std@@@std@@@0@@Z
	??$_Get_unwrapped@AEAV?$_Vector_iterator@V?$_Vector_val@U?$_Simple_types@Uwhisper_token_data@@@std@@@std@@@std@@@std@@YA?A_TAEAV?$_Vector_iterator@V?$_Vector_val@U?$_Simple_types@Uwhisper_token_data@@@std@@@std@@@0@@Z
	??$_Get_unwrapped@AEBQEAD@std@@YA?A_TAEBQEAD@Z
	??$_Get_unwrapped@AEBQEAE@std@@YA?A_TAEBQEAE@Z
	??$_Get_unwrapped@AEBQEAH@std@@YA?A_TAEBQEAH@Z
	??$_Get_unwrapped@AEBQEAI@std@@YA?A_TAEBQEAI@Z
	??$_Get_unwrapped@AEBQEAM@std@@YA?A_TAEBQEAM@Z
	??$_Get_unwrapped@AEBQEAN@std@@YA?A_TAEBQEAN@Z
	??$_Get_unwrapped@AEBQEAPEAUggml_backend@@@std@@YA?A_TAEBQEAPEAUggml_backend@@@Z
	??$_Get_unwrapped@AEBQEAPEAUggml_backend_buffer@@@std@@YA?A_TAEBQEAPEAUggml_backend_buffer@@@Z
	??$_Get_unwrapped@AEBQEAPEAUggml_context@@@std@@YA?A_TAEBQEAPEAUggml_context@@@Z
	??$_Get_unwrapped@AEBQEAPEAUggml_tensor@@@std@@YA?A_TAEBQEAPEAUggml_tensor@@@Z
	??$_Get_unwrapped@AEBQEAPEAUwhisper_state@@@std@@YA?A_TAEBQEAPEAUwhisper_state@@@Z
	??$_Get_unwrapped@AEBQEAPEBUwhisper_grammar_element@@@std@@YA?A_TAEBQEAPEBUwhisper_grammar_element@@@Z
	??$_Get_unwrapped@AEBQEAU?$pair@PEAUggml_backend_device@@PEAUggml_backend_buffer_type@@@std@@@std@@YA?A_TAEBQEAU?$pair@PEAUggml_backend_device@@PEAUggml_backend_buffer_type@@@0@@Z
	??$_Get_unwrapped@AEBQEAU?$pair@V?$vector@IV?$allocator@I@std@@@std@@Uwhisper_partial_utf8@@@std@@@std@@YA?A_TAEBQEAU?$pair@V?$vector@IV?$allocator@I@std@@@std@@Uwhisper_partial_utf8@@@0@@Z
	??$_Get_unwrapped@AEBQEAU?$whisper_pair@NH@@@std@@YA?A_TAEBQEAU?$whisper_pair@NH@@@Z
	??$_Get_unwrapped@AEBQEAU_Grp_t@?$_Tgt_state_t@PEBD@std@@@std@@YA?A_TAEBQEAU_Grp_t@?$_Tgt_state_t@PEBD@0@@Z
	??$_Get_unwrapped@AEBQEAU_Grp_t@?$_Tgt_state_t@V?$_String_const_iterator@V?$_String_val@U?$_Simple_types@D@std@@@std@@@std@@@std@@@std@@YA?A_TAEBQEAU_Grp_t@?$_Tgt_state_t@V?$_String_const_iterator@V?$_String_val@U?$_Simple_types@D@std@@@std@@@std@@@0@@Z
	??$_Get_unwrapped@AEBQEAU_Loop_vals_v2_t@std@@@std@@YA?A_TAEBQEAU_Loop_vals_v2_t@0@@Z
	??$_Get_unwrapped@AEBQEAUvad_segment_info@whisper_state@@@std@@YA?A_TAEBQEAUvad_segment_info@whisper_state@@@Z
	??$_Get_unwrapped@AEBQEAUvad_time_mapping@@@std@@YA?A_TAEBQEAUvad_time_mapping@@@Z
	??$_Get_unwrapped@AEBQEAUwhisper_grammar_candidate@@@std@@YA?A_TAEBQEAUwhisper_grammar_candidate@@@Z
	??$_Get_unwrapped@AEBQEAUwhisper_grammar_element@@@std@@YA?A_TAEBQEAUwhisper_grammar_element@@@Z
	??$_Get_unwrapped@AEBQEAUwhisper_layer_decoder@@@std@@YA?A_TAEBQEAUwhisper_layer_decoder@@@Z
	??$_Get_unwrapped@AEBQEAUwhisper_layer_encoder@@@std@@YA?A_TAEBQEAUwhisper_layer_encoder@@@Z
	??$_Get_unwrapped@AEBQEAUwhisper_segment@@@std@@YA?A_TAEBQEAUwhisper_segment@@@Z
	??$_Get_unwrapped@AEBQEAUwhisper_token_data@@@std@@YA?A_TAEBQEAUwhisper_token_data@@@Z
	??$_Get_unwrapped@AEBQEAUwhisper_vad_segment@@@std@@YA?A_TAEBQEAUwhisper_vad_segment@@@Z
	??$_Get_unwrapped@AEBQEAV?$_Tgt_state_t@PEBD@std@@@std@@YA?A_TAEBQEAV?$_Tgt_state_t@PEBD@0@@Z
	??$_Get_unwrapped@AEBQEAV?$_Tgt_state_t@V?$_String_const_iterator@V?$_String_val@U?$_Simple_types@D@std@@@std@@@std@@@std@@@std@@YA?A_TAEBQEAV?$_Tgt_state_t@V?$_String_const_iterator@V?$_String_val@U?$_Simple_types@D@std@@@std@@@std@@@0@@Z
	??$_Get_unwrapped@AEBQEAV?$basic_string@DU?$char_traits@D@std@@V?$allocator@D@2@@std@@@std@@YA?A_TAEBQEAV?$basic_string@DU?$char_traits@D@std@@V?$allocator@D@2@@0@@Z
	??$_Get_unwrapped@AEBQEAV?$sub_match@PEBD@std@@@std@@YA?A_TAEBQEAV?$sub_match@PEBD@0@@Z
	??$_Get_unwrapped@AEBQEAV?$sub_match@V?$_String_const_iterator@V?$_String_val@U?$_Simple_types@D@std@@@std@@@std@@@std@@@std@@YA?A_TAEBQEAV?$sub_match@V?$_String_const_iterator@V?$_String_val@U?$_Simple_types@D@std@@@std@@@std@@@0@@Z
	??$_Get_unwrapped@AEBQEAV?$vector@PEBUwhisper_grammar_element@@V?$allocator@PEBUwhisper_grammar_element@@@std@@@std@@@std@@YA?A_TAEBQEAV?$vector@PEBUwhisper_grammar_element@@V?$allocator@PEBUwhisper_grammar_element@@@std@@@0@@Z
	??$_Get_unwrapped@AEBQEBD@std@@YA?A_TAEBQEBD@Z
	??$_Get_unwrapped@AEBV?$_String_const_iterator@V?$_String_val@U?$_Simple_types@D@std@@@std@@@std@@@std@@YA?A_TAEBV?$_String_const_iterator@V?$_String_val@U?$_Simple_types@D@std@@@std@@@0@@Z
	??$_Get_unwrapped@AEBV?$_Vector_const_iterator@V?$_Vector_val@U?$_Simple_types@N@std@@@std@@@std@@@std@@YA?A_TAEBV?$_Vector_const_iterator@V?$_Vector_val@U?$_Simple_types@N@std@@@std@@@0@@Z
	??$_Get_unwrapped@AEBV?$_Vector_const_iterator@V?$_Vector_val@U?$_Simple_types@Uvad_time_mapping@@@std@@@std@@@std@@@std@@YA?A_TAEBV?$_Vector_const_iterator@V?$_Vector_val@U?$_Simple_types@Uvad_time_mapping@@@std@@@std@@@0@@Z
	??$_Get_unwrapped@AEBV?$_Vector_iterator@V?$_Vector_val@U?$_Simple_types@M@std@@@std@@@std@@@std@@YA?A_TAEBV?$_Vector_iterator@V?$_Vector_val@U?$_Simple_types@M@std@@@std@@@0@@Z
	??$_Get_unwrapped@AEBV?$_Vector_iterator@V?$_Vector_val@U?$_Simple_types@U?$whisper_pair@NH@@@std@@@std@@@std@@@std@@YA?A_TAEBV?$_Vector_iterator@V?$_Vector_val@U?$_Simple_types@U?$whisper_pair@NH@@@std@@@std@@@0@@Z
	??$_Get_unwrapped@AEBV?$_Vector_iterator@V?$_Vector_val@U?$_Simple_types@Uvad_time_mapping@@@std@@@std@@@std@@@std@@YA?A_TAEBV?$_Vector_iterator@V?$_Vector_val@U?$_Simple_types@Uvad_time_mapping@@@std@@@std@@@0@@Z
	??$_Get_unwrapped@PEAH@std@@YA?A_T$$QEAPEAH@Z
	??$_Get_unwrapped@PEAI@std@@YA?A_T$$QEAPEAI@Z
	??$_Get_unwrapped@PEAPEAUggml_backend@@@std@@YA?A_T$$QEAPEAPEAUggml_backend@@@Z
	??$_Get_unwrapped@PEAPEBUwhisper_grammar_element@@@std@@YA?A_T$$QEAPEAPEBUwhisper_grammar_element@@@Z
	??$_Get_unwrapped@PEAU?$pair@PEAUggml_backend_device@@PEAUggml_backend_buffer_type@@@std@@@std@@YA?A_T$$QEAPEAU?$pair@PEAUggml_backend_device@@PEAUggml_backend_buffer_type@@@0@@Z
	??$_Get_unwrapped@PEAU_Grp_t@?$_Tgt_state_t@PEBD@std@@@std@@YA?A_T$$QEAPEAU_Grp_t@?$_Tgt_state_t@PEBD@0@@Z
	??$_Get_unwrapped@PEAU_Grp_t@?$_Tgt_state_t@V?$_String_const_iterator@V?$_String_val@U?$_Simple_types@D@std@@@std@@@std@@@std@@@std@@YA?A_T$$QEAPEAU_Grp_t@?$_Tgt_state_t@V?$_String_const_iterator@V?$_String_val@U?$_Simple_types@D@std@@@std@@@std@@@0@@Z
	??$_Get_unwrapped@PEAUwhisper_grammar_element@@@std@@YA?A_T$$QEAPEAUwhisper_grammar_element@@@Z
	??$_Get_unwrapped@PEAUwhisper_kv_cell@@@std@@YA?A_T$$QEAPEAUwhisper_kv_cell@@@Z
	??$_Get_unwrapped@PEAUwhisper_token_data@@@std@@YA?A_T$$QEAPEAUwhisper_token_data@@@Z
	??$_Get_unwrapped@PEAV?$vector@PEBUwhisper_grammar_element@@V?$allocator@PEBUwhisper_grammar_element@@@std@@@std@@@std@@YA?A_T$$QEAPEAV?$vector@PEBUwhisper_grammar_element@@V?$allocator@PEBUwhisper_grammar_element@@@std@@@0@@Z
	??$_Get_unwrapped@PEAV?$vector@Uwhisper_grammar_element@@V?$allocator@Uwhisper_grammar_element@@@std@@@std@@@std@@YA?A_T$$QEAPEAV?$vector@Uwhisper_grammar_element@@V?$allocator@Uwhisper_grammar_element@@@std@@@0@@Z
	??$_Get_unwrapped@PEBH@std@@YA?A_T$$QEAPEBH@Z
	??$_Get_unwrapped@PEBM@std@@YA?A_T$$QEAPEBM@Z
	??$_Get_unwrapped@PEBQEBUwhisper_grammar_element@@@std@@YA?A_T$$QEAPEBQEBUwhisper_grammar_element@@@Z
	??$_Get_unwrapped@PEBV?$basic_string@DU?$char_traits@D@std@@V?$allocator@D@2@@std@@@std@@YA?A_T$$QEAPEBV?$basic_string@DU?$char_traits@D@std@@V?$allocator@D@2@@0@@Z
	??$_Get_unwrapped@PEB_K@std@@YA?A_T$$QEAPEB_K@Z
	??$_Get_unwrapped_n@AEAV?$_Vb_iterator@U?$_Wrap_alloc@V?$allocator@I@std@@@std@@@std@@_J@std@@YA?A_TAEAV?$_Vb_iterator@U?$_Wrap_alloc@V?$allocator@I@std@@@std@@@0@_J@Z
	??$_Get_unwrapped_n@AEAV?$_Vector_iterator@V?$_Vector_val@U?$_Simple_types@M@std@@@std@@@std@@_J@std@@YA?A_TAEAV?$_Vector_iterator@V?$_Vector_val@U?$_Simple_types@M@std@@@std@@@0@_J@Z
	??$_Get_unwrapped_n@AEBQEBD_J@std@@YA?A_TAEBQEBD_J@Z
	??$_Get_unwrapped_n@V?$_Vb_iterator@U?$_Wrap_alloc@V?$allocator@I@std@@@std@@@std@@_J@std@@YA?A_T$$QEAV?$_Vb_iterator@U?$_Wrap_alloc@V?$allocator@I@std@@@std@@@0@_J@Z
	??$_Get_unwrapped_n@V?$_Vector_iterator@V?$_Vector_val@U?$_Simple_types@M@std@@@std@@@std@@_J@std@@YA?A_T$$QEAV?$_Vector_iterator@V?$_Vector_val@U?$_Simple_types@M@std@@@std@@@0@_J@Z
	??$_Getvals@_W@?$time_get@DV?$istreambuf_iterator@DU?$char_traits@D@std@@@std@@@std@@IEAAX_WAEBV_Locinfo@1@@Z
	??$_Getvals@_W@?$time_get@_WV?$istreambuf_iterator@_WU?$char_traits@_W@std@@@std@@@std@@IEAAX_WAEBV_Locinfo@1@@Z
	??$_Guess_median_unchecked@PEAMU?$less@X@std@@@std@@YAXPEAM00U?$less@X@0@@Z
	??$_Hash_array_representation@D@std@@YA_KQEBD_K@Z
	??$_Idl_distance@PEBDPEBD@std@@YA?A_PAEBQEBD0@Z
	??$_Idl_distance@PEBMPEBM@std@@YA?A_PAEBQEBM0@Z
	??$_Idl_distance@V?$_Vb_iterator@U?$_Wrap_alloc@V?$allocator@I@std@@@std@@@std@@V12@@std@@YA?A_PAEBV?$_Vb_iterator@U?$_Wrap_alloc@V?$allocator@I@std@@@std@@@0@0@Z
	??$_Idl_distance@V?$_Vector_iterator@V?$_Vector_val@U?$_Simple_types@M@std@@@std@@@std@@PEAM@std@@YA?A_PAEBQEAM0@Z
	??$_Insert2@PEBD@?$_Buf@D@std@@QEAAXPEBD0@Z
	??$_Insert@D@?$basic_string@DU?$char_traits@D@std@@V?$allocator@D@2@@std@@AEAAAEAV01@_KQEBD0@Z
	??$_Insert_counted_range@PEAH@?$vector@HV?$allocator@H@std@@@std@@AEAAXV?$_Vector_const_iterator@V?$_Vector_val@U?$_Simple_types@H@std@@@std@@@1@PEAH_K@Z
	??$_Insert_counted_range@PEAUwhisper_token_data@@@?$vector@Uwhisper_token_data@@V?$allocator@Uwhisper_token_data@@@std@@@std@@AEAAXV?$_Vector_const_iterator@V?$_Vector_val@U?$_Simple_types@Uwhisper_token_data@@@std@@@std@@@1@PEAUwhisper_token_data@@_K@Z
	??$_Insert_range_unchecked@PEBU?$pair@$$CBV?$basic_string@DU?$char_traits@D@std@@V?$allocator@D@2@@std@@U?$pair@HV?$basic_string@DU?$char_traits@D@std@@V?$allocator@D@2@@std@@@2@@std@@PEBU12@@?$_Tree@V?$_Tmap_traits@V?$basic_string@DU?$char_traits@D@std@@V?$allocator@D@2@@std@@U?$pair@HV?$basic_string@DU?$char_traits@D@std@@V?$allocator@D@2@@std@@@2@U?$less@V?$basic_string@DU?$char_traits@D@std@@V?$allocator@D@2@@std@@@2@V?$allocator@U?$pair@$$CBV?$basic_string@DU?$char_traits@D@std@@V?$allocator@D@2@@std@@U?$pair@HV?$basic_string@DU?$char_traits@D@std@@V?$allocator@D@2@@std@@@2@@std@@@2@$0A@@std@@@std@@IEAAXPEBU?$pair@$$CBV?$basic_string@DU?$char_traits@D@std@@V?$allocator@D@2@@std@@U?$pair@HV?$basic_string@DU?$char_traits@D@std@@V?$allocator@D@2@@std@@@2@@1@QEBU21@@Z
	??$_Insert_range_unchecked@PEBU?$pair@$$CBW4asr_system@@V?$map@W4asr_tensor@@PEBDU?$less@W4asr_tensor@@@std@@V?$allocator@U?$pair@$$CBW4asr_tensor@@PEBD@std@@@3@@std@@@std@@PEBU12@@?$_Tree@V?$_Tmap_traits@W4asr_system@@V?$map@W4asr_tensor@@PEBDU?$less@W4asr_tensor@@@std@@V?$allocator@U?$pair@$$CBW4asr_tensor@@PEBD@std@@@3@@std@@U?$less@W4asr_system@@@3@V?$allocator@U?$pair@$$CBW4asr_system@@V?$map@W4asr_tensor@@PEBDU?$less@W4asr_tensor@@@std@@V?$allocator@U?$pair@$$CBW4asr_tensor@@PEBD@std@@@3@@std@@@std@@@3@$0A@@std@@@std@@IEAAXPEBU?$pair@$$CBW4asr_system@@V?$map@W4asr_tensor@@PEBDU?$less@W4asr_tensor@@@std@@V?$allocator@U?$pair@$$CBW4asr_tensor@@PEBD@std@@@3@@std@@@1@QEBU21@@Z
	??$_Insert_range_unchecked@PEBU?$pair@$$CBW4asr_tensor@@PEBD@std@@PEBU12@@?$_Tree@V?$_Tmap_traits@W4asr_tensor@@PEBDU?$less@W4asr_tensor@@@std@@V?$allocator@U?$pair@$$CBW4asr_tensor@@PEBD@std@@@3@$0A@@std@@@std@@IEAAXPEBU?$pair@$$CBW4asr_tensor@@PEBD@1@QEBU21@@Z
	??$_Insert_range_unchecked@PEBU?$pair@$$CBW4asr_tensor@@W4ggml_op@@@std@@PEBU12@@?$_Tree@V?$_Tmap_traits@W4asr_tensor@@W4ggml_op@@U?$less@W4asr_tensor@@@std@@V?$allocator@U?$pair@$$CBW4asr_tensor@@W4ggml_op@@@std@@@4@$0A@@std@@@std@@IEAAXPEBU?$pair@$$CBW4asr_tensor@@W4ggml_op@@@1@QEBU21@@Z
	??$_Insert_range_unchecked@PEBU?$pair@$$CBW4e_model@@V?$basic_string@DU?$char_traits@D@std@@V?$allocator@D@2@@std@@@std@@PEBU12@@?$_Tree@V?$_Tmap_traits@W4e_model@@V?$basic_string@DU?$char_traits@D@std@@V?$allocator@D@2@@std@@U?$less@W4e_model@@@3@V?$allocator@U?$pair@$$CBW4e_model@@V?$basic_string@DU?$char_traits@D@std@@V?$allocator@D@2@@std@@@std@@@3@$0A@@std@@@std@@IEAAXPEBU?$pair@$$CBW4e_model@@V?$basic_string@DU?$char_traits@D@std@@V?$allocator@D@2@@std@@@1@QEBU21@@Z
	??$_Insert_range_unchecked@PEBU?$pair@$$CBW4vad_tensor@@PEBD@std@@PEBU12@@?$_Tree@V?$_Tmap_traits@W4vad_tensor@@PEBDU?$less@W4vad_tensor@@@std@@V?$allocator@U?$pair@$$CBW4vad_tensor@@PEBD@std@@@3@$0A@@std@@@std@@IEAAXPEBU?$pair@$$CBW4vad_tensor@@PEBD@1@QEBU21@@Z
	??$_Insert_range_unchecked@PEBU?$pair@$$CBW4vad_tensor@@W4ggml_op@@@std@@PEBU12@@?$_Tree@V?$_Tmap_traits@W4vad_tensor@@W4ggml_op@@U?$less@W4vad_tensor@@@std@@V?$allocator@U?$pair@$$CBW4vad_tensor@@W4ggml_op@@@std@@@4@$0A@@std@@@std@@IEAAXPEBU?$pair@$$CBW4vad_tensor@@W4ggml_op@@@1@QEBU21@@Z
	??$_Insert_range_unchecked@PEBU?$pair@$$CBW4whisper_alignment_heads_preset@@Uwhisper_aheads@@@std@@PEBU12@@?$_Tree@V?$_Tmap_traits@W4whisper_alignment_heads_preset@@Uwhisper_aheads@@U?$less@W4whisper_alignment_heads_preset@@@std@@V?$allocator@U?$pair@$$CBW4whisper_alignment_heads_preset@@Uwhisper_aheads@@@std@@@4@$0A@@std@@@std@@IEAAXPEBU?$pair@$$CBW4whisper_alignment_heads_preset@@Uwhisper_aheads@@@1@QEBU21@@Z
	??$_Insertion_sort_unchecked@PEAMU?$less@X@std@@@std@@YAPEAMQEAM0U?$less@X@0@@Z
	??$_Integral_to_string@DH@std@@YA?AV?$basic_string@DU?$char_traits@D@std@@V?$allocator@D@2@@0@H@Z
	??$_Invoke@V?$tuple@P6AHPEAUwhisper_context@@PEAUwhisper_state@@Uwhisper_full_params@@PEBMH@ZPEAU1@PEAU2@U3@PEBMH@std@@$0A@$00$01$02$03$04@thread@std@@CAIPEAX@Z
	??$_Invoke@V?$tuple@P6AXHPEBMAEBV?$vector@MV?$allocator@M@std@@@std@@HHHHAEBUwhisper_filters@@AEAUwhisper_mel@@@ZHPEBMV?$reference_wrapper@$$CBV?$vector@MV?$allocator@M@std@@@std@@@2@_JHHHV?$reference_wrapper@$$CBUwhisper_filters@@@2@V?$reference_wrapper@Uwhisper_mel@@@2@@std@@$0A@$00$01$02$03$04$05$06$07$08@thread@std@@CAIPEAX@Z
	??$_Is_all_bits_zero@H@std@@YA_NAEBH@Z
	??$_Is_all_bits_zero@I@std@@YA_NAEBI@Z
	??$_Is_all_bits_zero@M@std@@YA_NAEBM@Z
	??$_Is_all_bits_zero@N@std@@YA_NAEBN@Z
	??$_Is_ecmascript_line_terminator@D@std@@YA_ND@Z
	??$_Kfn@$$CBHH@?$_Tmap_traits@HHU?$less@H@std@@V?$allocator@U?$pair@$$CBHH@std@@@2@$0A@@std@@SAAEBHAEBU?$pair@$$CBHH@1@@Z
	??$_Kfn@$$CBHV?$basic_string@DU?$char_traits@D@std@@V?$allocator@D@2@@std@@@?$_Tmap_traits@HV?$basic_string@DU?$char_traits@D@std@@V?$allocator@D@2@@std@@U?$less@H@2@V?$allocator@U?$pair@$$CBHV?$basic_string@DU?$char_traits@D@std@@V?$allocator@D@2@@std@@@std@@@2@$0A@@std@@SAAEBHAEBU?$pair@$$CBHV?$basic_string@DU?$char_traits@D@std@@V?$allocator@D@2@@std@@@1@@Z
	??$_Kfn@$$CBV?$basic_string@DU?$char_traits@D@std@@V?$allocator@D@2@@std@@H@?$_Tmap_traits@V?$basic_string@DU?$char_traits@D@std@@V?$allocator@D@2@@std@@HU?$less@V?$basic_string@DU?$char_traits@D@std@@V?$allocator@D@2@@std@@@2@V?$allocator@U?$pair@$$CBV?$basic_string@DU?$char_traits@D@std@@V?$allocator@D@2@@std@@H@std@@@2@$0A@@std@@SAAEBV?$basic_string@DU?$char_traits@D@std@@V?$allocator@D@2@@1@AEBU?$pair@$$CBV?$basic_string@DU?$char_traits@D@std@@V?$allocator@D@2@@std@@H@1@@Z
	??$_Kfn@$$CBV?$basic_string@DU?$char_traits@D@std@@V?$allocator@D@2@@std@@PEAUggml_tensor@@@?$_Tmap_traits@V?$basic_string@DU?$char_traits@D@std@@V?$allocator@D@2@@std@@PEAUggml_tensor@@U?$less@V?$basic_string@DU?$char_traits@D@std@@V?$allocator@D@2@@std@@@2@V?$allocator@U?$pair@$$CBV?$basic_string@DU?$char_traits@D@std@@V?$allocator@D@2@@std@@PEAUggml_tensor@@@std@@@2@$0A@@std@@SAAEBV?$basic_string@DU?$char_traits@D@std@@V?$allocator@D@2@@1@AEBU?$pair@$$CBV?$basic_string@DU?$char_traits@D@std@@V?$allocator@D@2@@std@@PEAUggml_tensor@@@1@@Z
	??$_Kfn@$$CBV?$basic_string@DU?$char_traits@D@std@@V?$allocator@D@2@@std@@U?$pair@HV?$basic_string@DU?$char_traits@D@std@@V?$allocator@D@2@@std@@@2@@?$_Tmap_traits@V?$basic_string@DU?$char_traits@D@std@@V?$allocator@D@2@@std@@U?$pair@HV?$basic_string@DU?$char_traits@D@std@@V?$allocator@D@2@@std@@@2@U?$less@V?$basic_string@DU?$char_traits@D@std@@V?$allocator@D@2@@std@@@2@V?$allocator@U?$pair@$$CBV?$basic_string@DU?$char_traits@D@std@@V?$allocator@D@2@@std@@U?$pair@HV?$basic_string@DU?$char_traits@D@std@@V?$allocator@D@2@@std@@@2@@std@@@2@$0A@@std@@SAAEBV?$basic_string@DU?$char_traits@D@std@@V?$allocator@D@2@@1@AEBU?$pair@$$CBV?$basic_string@DU?$char_traits@D@std@@V?$allocator@D@2@@std@@U?$pair@HV?$basic_string@DU?$char_traits@D@std@@V?$allocator@D@2@@std@@@2@@1@@Z
	??$_Kfn@$$CBW4asr_system@@V?$map@W4asr_tensor@@PEBDU?$less@W4asr_tensor@@@std@@V?$allocator@U?$pair@$$CBW4asr_tensor@@PEBD@std@@@3@@std@@@?$_Tmap_traits@W4asr_system@@V?$map@W4asr_tensor@@PEBDU?$less@W4asr_tensor@@@std@@V?$allocator@U?$pair@$$CBW4asr_tensor@@PEBD@std@@@3@@std@@U?$less@W4asr_system@@@3@V?$allocator@U?$pair@$$CBW4asr_system@@V?$map@W4asr_tensor@@PEBDU?$less@W4asr_tensor@@@std@@V?$allocator@U?$pair@$$CBW4asr_tensor@@PEBD@std@@@3@@std@@@std@@@3@$0A@@std@@SAAEBW4asr_system@@AEBU?$pair@$$CBW4asr_system@@V?$map@W4asr_tensor@@PEBDU?$less@W4asr_tensor@@@std@@V?$allocator@U?$pair@$$CBW4asr_tensor@@PEBD@std@@@3@@std@@@1@@Z
	??$_Kfn@$$CBW4asr_tensor@@PEBD@?$_Tmap_traits@W4asr_tensor@@PEBDU?$less@W4asr_tensor@@@std@@V?$allocator@U?$pair@$$CBW4asr_tensor@@PEBD@std@@@3@$0A@@std@@SAAEBW4asr_tensor@@AEBU?$pair@$$CBW4asr_tensor@@PEBD@1@@Z
	??$_Kfn@$$CBW4asr_tensor@@W4ggml_op@@@?$_Tmap_traits@W4asr_tensor@@W4ggml_op@@U?$less@W4asr_tensor@@@std@@V?$allocator@U?$pair@$$CBW4asr_tensor@@W4ggml_op@@@std@@@4@$0A@@std@@SAAEBW4asr_tensor@@AEBU?$pair@$$CBW4asr_tensor@@W4ggml_op@@@1@@Z
	??$_Kfn@$$CBW4e_model@@V?$basic_string@DU?$char_traits@D@std@@V?$allocator@D@2@@std@@@?$_Tmap_traits@W4e_model@@V?$basic_string@DU?$char_traits@D@std@@V?$allocator@D@2@@std@@U?$less@W4e_model@@@3@V?$allocator@U?$pair@$$CBW4e_model@@V?$basic_string@DU?$char_traits@D@std@@V?$allocator@D@2@@std@@@std@@@3@$0A@@std@@SAAEBW4e_model@@AEBU?$pair@$$CBW4e_model@@V?$basic_string@DU?$char_traits@D@std@@V?$allocator@D@2@@std@@@1@@Z
	??$_Kfn@$$CBW4vad_tensor@@PEBD@?$_Tmap_traits@W4vad_tensor@@PEBDU?$less@W4vad_tensor@@@std@@V?$allocator@U?$pair@$$CBW4vad_tensor@@PEBD@std@@@3@$0A@@std@@SAAEBW4vad_tensor@@AEBU?$pair@$$CBW4vad_tensor@@PEBD@1@@Z
	??$_Kfn@$$CBW4vad_tensor@@W4ggml_op@@@?$_Tmap_traits@W4vad_tensor@@W4ggml_op@@U?$less@W4vad_tensor@@@std@@V?$allocator@U?$pair@$$CBW4vad_tensor@@W4ggml_op@@@std@@@4@$0A@@std@@SAAEBW4vad_tensor@@AEBU?$pair@$$CBW4vad_tensor@@W4ggml_op@@@1@@Z
	??$_Kfn@$$CBW4whisper_alignment_heads_preset@@Uwhisper_aheads@@@?$_Tmap_traits@W4whisper_alignment_heads_preset@@Uwhisper_aheads@@U?$less@W4whisper_alignment_heads_preset@@@std@@V?$allocator@U?$pair@$$CBW4whisper_alignment_heads_preset@@Uwhisper_aheads@@@std@@@4@$0A@@std@@SAAEBW4whisper_alignment_heads_preset@@AEBU?$pair@$$CBW4whisper_alignment_heads_preset@@Uwhisper_aheads@@@1@@Z
	??$_Kfn@QEAUggml_backend_buffer_type@@PEAUggml_context@@@?$_Tmap_traits@PEAUggml_backend_buffer_type@@PEAUggml_context@@U?$less@PEAUggml_backend_buffer_type@@@std@@V?$allocator@U?$pair@QEAUggml_backend_buffer_type@@PEAUggml_context@@@std@@@4@$0A@@std@@SAAEBQEAUggml_backend_buffer_type@@AEBU?$pair@QEAUggml_backend_buffer_type@@PEAUggml_context@@@1@@Z
	??$_LStrcoll@D@std@@YAHPEBD000PEBU_Collvec@@@Z
	??$_LStrxfrm@D@std@@YA_KPEAD0PEBD1PEBU_Collvec@@@Z
	??$_Lookup_coll2@PEBDDV?$regex_traits@D@std@@@std@@YAPEBDDPEBDQEBDPEBU?$_Sequence@D@0@AEBV?$regex_traits@D@0@W4syntax_option_type@regex_constants@0@@Z
	??$_Lookup_coll2@V?$_String_const_iterator@V?$_String_val@U?$_Simple_types@D@std@@@std@@@std@@DV?$regex_traits@D@2@@std@@YA?AV?$_String_const_iterator@V?$_String_val@U?$_Simple_types@D@std@@@std@@@0@DV10@V10@PEBU?$_Sequence@D@0@AEBV?$regex_traits@D@0@W4syntax_option_type@regex_constants@0@@Z
	??$_Lookup_collating_range@DV?$regex_traits@D@std@@@std@@YA_NDQEBU?$_Buf@D@0@AEBV?$regex_traits@D@0@@Z
	??$_Lookup_equiv2@DV?$regex_traits@D@std@@@std@@YA_NDPEBU?$_Sequence@D@0@AEBV?$regex_traits@D@0@@Z
	??$_Lookup_range@U?$char_traits@D@std@@D@std@@YA_NDQEBU?$_Buf@D@0@@Z
	??$_Lower_bound_duplicate@H@?$_Tree@V?$_Tmap_traits@HHU?$less@H@std@@V?$allocator@U?$pair@$$CBHH@std@@@2@$0A@@std@@@std@@IEBA_NQEAU?$_Tree_node@U?$pair@$$CBHH@std@@PEAX@1@AEBH@Z
	??$_Lower_bound_duplicate@H@?$_Tree@V?$_Tmap_traits@HV?$basic_string@DU?$char_traits@D@std@@V?$allocator@D@2@@std@@U?$less@H@2@V?$allocator@U?$pair@$$CBHV?$basic_string@DU?$char_traits@D@std@@V?$allocator@D@2@@std@@@std@@@2@$0A@@std@@@std@@IEBA_NQEAU?$_Tree_node@U?$pair@$$CBHV?$basic_string@DU?$char_traits@D@std@@V?$allocator@D@2@@std@@@std@@PEAX@1@AEBH@Z
	??$_Lower_bound_duplicate@H@?$_Tree@V?$_Tset_traits@HU?$less@H@std@@V?$allocator@H@2@$0A@@std@@@std@@IEBA_NQEAU?$_Tree_node@HPEAX@1@AEBH@Z
	??$_Lower_bound_duplicate@PEAUggml_backend_buffer_type@@@?$_Tree@V?$_Tmap_traits@PEAUggml_backend_buffer_type@@PEAUggml_context@@U?$less@PEAUggml_backend_buffer_type@@@std@@V?$allocator@U?$pair@QEAUggml_backend_buffer_type@@PEAUggml_context@@@std@@@4@$0A@@std@@@std@@IEBA_NQEAU?$_Tree_node@U?$pair@QEAUggml_backend_buffer_type@@PEAUggml_context@@@std@@PEAX@1@AEBQEAUggml_backend_buffer_type@@@Z
	??$_Lower_bound_duplicate@V?$basic_string@DU?$char_traits@D@std@@V?$allocator@D@2@@std@@@?$_Tree@V?$_Tmap_traits@V?$basic_string@DU?$char_traits@D@std@@V?$allocator@D@2@@std@@HU?$less@V?$basic_string@DU?$char_traits@D@std@@V?$allocator@D@2@@std@@@2@V?$allocator@U?$pair@$$CBV?$basic_string@DU?$char_traits@D@std@@V?$allocator@D@2@@std@@H@std@@@2@$0A@@std@@@std@@IEBA_NQEAU?$_Tree_node@U?$pair@$$CBV?$basic_string@DU?$char_traits@D@std@@V?$allocator@D@2@@std@@H@std@@PEAX@1@AEBV?$basic_string@DU?$char_traits@D@std@@V?$allocator@D@2@@1@@Z
	??$_Lower_bound_duplicate@V?$basic_string@DU?$char_traits@D@std@@V?$allocator@D@2@@std@@@?$_Tree@V?$_Tmap_traits@V?$basic_string@DU?$char_traits@D@std@@V?$allocator@D@2@@std@@PEAUggml_tensor@@U?$less@V?$basic_string@DU?$char_traits@D@std@@V?$allocator@D@2@@std@@@2@V?$allocator@U?$pair@$$CBV?$basic_string@DU?$char_traits@D@std@@V?$allocator@D@2@@std@@PEAUggml_tensor@@@std@@@2@$0A@@std@@@std@@IEBA_NQEAU?$_Tree_node@U?$pair@$$CBV?$basic_string@DU?$char_traits@D@std@@V?$allocator@D@2@@std@@PEAUggml_tensor@@@std@@PEAX@1@AEBV?$basic_string@DU?$char_traits@D@std@@V?$allocator@D@2@@1@@Z
	??$_Lower_bound_duplicate@V?$basic_string@DU?$char_traits@D@std@@V?$allocator@D@2@@std@@@?$_Tree@V?$_Tmap_traits@V?$basic_string@DU?$char_traits@D@std@@V?$allocator@D@2@@std@@U?$pair@HV?$basic_string@DU?$char_traits@D@std@@V?$allocator@D@2@@std@@@2@U?$less@V?$basic_string@DU?$char_traits@D@std@@V?$allocator@D@2@@std@@@2@V?$allocator@U?$pair@$$CBV?$basic_string@DU?$char_traits@D@std@@V?$allocator@D@2@@std@@U?$pair@HV?$basic_string@DU?$char_traits@D@std@@V?$allocator@D@2@@std@@@2@@std@@@2@$0A@@std@@@std@@IEBA_NQEAU?$_Tree_node@U?$pair@$$CBV?$basic_string@DU?$char_traits@D@std@@V?$allocator@D@2@@std@@U?$pair@HV?$basic_string@DU?$char_traits@D@std@@V?$allocator@D@2@@std@@@2@@std@@PEAX@1@AEBV?$basic_string@DU?$char_traits@D@std@@V?$allocator@D@2@@1@@Z
	??$_Lower_bound_duplicate@W4asr_system@@@?$_Tree@V?$_Tmap_traits@W4asr_system@@V?$map@W4asr_tensor@@PEBDU?$less@W4asr_tensor@@@std@@V?$allocator@U?$pair@$$CBW4asr_tensor@@PEBD@std@@@3@@std@@U?$less@W4asr_system@@@3@V?$allocator@U?$pair@$$CBW4asr_system@@V?$map@W4asr_tensor@@PEBDU?$less@W4asr_tensor@@@std@@V?$allocator@U?$pair@$$CBW4asr_tensor@@PEBD@std@@@3@@std@@@std@@@3@$0A@@std@@@std@@IEBA_NQEAU?$_Tree_node@U?$pair@$$CBW4asr_system@@V?$map@W4asr_tensor@@PEBDU?$less@W4asr_tensor@@@std@@V?$allocator@U?$pair@$$CBW4asr_tensor@@PEBD@std@@@3@@std@@@std@@PEAX@1@AEBW4asr_system@@@Z
	??$_Lower_bound_duplicate@W4asr_tensor@@@?$_Tree@V?$_Tmap_traits@W4asr_tensor@@PEBDU?$less@W4asr_tensor@@@std@@V?$allocator@U?$pair@$$CBW4asr_tensor@@PEBD@std@@@3@$0A@@std@@@std@@IEBA_NQEAU?$_Tree_node@U?$pair@$$CBW4asr_tensor@@PEBD@std@@PEAX@1@AEBW4asr_tensor@@@Z
	??$_Lower_bound_duplicate@W4asr_tensor@@@?$_Tree@V?$_Tmap_traits@W4asr_tensor@@W4ggml_op@@U?$less@W4asr_tensor@@@std@@V?$allocator@U?$pair@$$CBW4asr_tensor@@W4ggml_op@@@std@@@4@$0A@@std@@@std@@IEBA_NQEAU?$_Tree_node@U?$pair@$$CBW4asr_tensor@@W4ggml_op@@@std@@PEAX@1@AEBW4asr_tensor@@@Z
	??$_Lower_bound_duplicate@W4e_model@@@?$_Tree@V?$_Tmap_traits@W4e_model@@V?$basic_string@DU?$char_traits@D@std@@V?$allocator@D@2@@std@@U?$less@W4e_model@@@3@V?$allocator@U?$pair@$$CBW4e_model@@V?$basic_string@DU?$char_traits@D@std@@V?$allocator@D@2@@std@@@std@@@3@$0A@@std@@@std@@IEBA_NQEAU?$_Tree_node@U?$pair@$$CBW4e_model@@V?$basic_string@DU?$char_traits@D@std@@V?$allocator@D@2@@std@@@std@@PEAX@1@AEBW4e_model@@@Z
	??$_Lower_bound_duplicate@W4vad_tensor@@@?$_Tree@V?$_Tmap_traits@W4vad_tensor@@PEBDU?$less@W4vad_tensor@@@std@@V?$allocator@U?$pair@$$CBW4vad_tensor@@PEBD@std@@@3@$0A@@std@@@std@@IEBA_NQEAU?$_Tree_node@U?$pair@$$CBW4vad_tensor@@PEBD@std@@PEAX@1@AEBW4vad_tensor@@@Z
	??$_Lower_bound_duplicate@W4vad_tensor@@@?$_Tree@V?$_Tmap_traits@W4vad_tensor@@W4ggml_op@@U?$less@W4vad_tensor@@@std@@V?$allocator@U?$pair@$$CBW4vad_tensor@@W4ggml_op@@@std@@@4@$0A@@std@@@std@@IEBA_NQEAU?$_Tree_node@U?$pair@$$CBW4vad_tensor@@W4ggml_op@@@std@@PEAX@1@AEBW4vad_tensor@@@Z
	??$_Lower_bound_duplicate@W4whisper_alignment_heads_preset@@@?$_Tree@V?$_Tmap_traits@W4whisper_alignment_heads_preset@@Uwhisper_aheads@@U?$less@W4whisper_alignment_heads_preset@@@std@@V?$allocator@U?$pair@$$CBW4whisper_alignment_heads_preset@@Uwhisper_aheads@@@std@@@4@$0A@@std@@@std@@IEBA_NQEAU?$_Tree_node@U?$pair@$$CBW4whisper_alignment_heads_preset@@Uwhisper_aheads@@@std@@PEAX@1@AEBW4whisper_alignment_heads_preset@@@Z
	??$_Make_heap_unchecked@PEAMU?$less@X@std@@@std@@YAXPEAM0U?$less@X@0@@Z
	??$_Mark@E@_Bitmap@std@@QEAAXE@Z
	??$_Mark@I@_Bitmap@std@@QEAAXI@Z
	??$_Match@V?$allocator@V?$sub_match@PEBD@std@@@std@@@?$_Matcher2@PEBDDV?$regex_traits@D@std@@PEBDX@std@@QEAA_NPEAV?$match_results@PEBDV?$allocator@V?$sub_match@PEBD@std@@@std@@@1@_N@Z
	??$_Match@V?$allocator@V?$sub_match@V?$_String_const_iterator@V?$_String_val@U?$_Simple_types@D@std@@@std@@@std@@@std@@@std@@@?$_Matcher2@V?$_String_const_iterator@V?$_String_val@U?$_Simple_types@D@std@@@std@@@std@@DV?$regex_traits@D@2@V12@X@std@@QEAA_NPEAV?$match_results@V?$_String_const_iterator@V?$_String_val@U?$_Simple_types@D@std@@@std@@@std@@V?$allocator@V?$sub_match@V?$_String_const_iterator@V?$_String_val@U?$_Simple_types@D@std@@@std@@@std@@@std@@@2@@1@_N@Z
	??$_Match@V?$allocator@V?$sub_match@V?$_String_const_iterator@V?$_String_val@U?$_Simple_types@D@std@@@std@@@std@@@std@@@std@@@?$_Matcher2@V?$_String_const_iterator@V?$_String_val@U?$_Simple_types@D@std@@@std@@@std@@DV?$regex_traits@D@2@V12@X@std@@QEAA_NV?$_String_const_iterator@V?$_String_val@U?$_Simple_types@D@std@@@std@@@1@PEAV?$match_results@V?$_String_const_iterator@V?$_String_val@U?$_Simple_types@D@std@@@std@@@std@@V?$allocator@V?$sub_match@V?$_String_const_iterator@V?$_String_val@U?$_Simple_types@D@std@@@std@@@std@@@std@@@2@@1@_N@Z
	??$_Max_element_unchecked@PEAMU?$less@X@std@@@std@@YAPEAMPEAM0U?$less@X@0@@Z
	??$_Max_element_unchecked@PEBMU?$less@X@std@@@std@@YAPEBMPEBM0U?$less@X@0@@Z
	??$_Max_element_vectorized@$$CBM@std@@YAPEBMQEBM0@Z
	??$_Max_element_vectorized@M@std@@YAPEAMQEAM0@Z
	??$_Max_limit@I@std@@YAIXZ
	??$_Max_limit@_J@std@@YA_JXZ
	??$_Med3_unchecked@PEAMU?$less@X@std@@@std@@YAXPEAM00U?$less@X@0@@Z
	??$_Move_backward_unchecked@PEAHPEAH@std@@YAPEAHPEAH00@Z
	??$_Move_backward_unchecked@PEAMPEAM@std@@YAPEAMPEAM00@Z
	??$_Move_backward_unchecked@PEAU?$whisper_pair@NH@@PEAU1@@std@@YAPEAU?$whisper_pair@NH@@PEAU1@00@Z
	??$_Move_backward_unchecked@PEAUvad_time_mapping@@PEAU1@@std@@YAPEAUvad_time_mapping@@PEAU1@00@Z
	??$_Move_backward_unchecked@PEAUwhisper_token_data@@PEAU1@@std@@YAPEAUwhisper_token_data@@PEAU1@00@Z
	??$_Move_unchecked@PEAHPEAH@std@@YAPEAHPEAH00@Z
	??$_Move_unchecked@PEAIPEAI@std@@YAPEAIPEAI00@Z
	??$_Move_unchecked@PEAUvad_time_mapping@@PEAU1@@std@@YAPEAUvad_time_mapping@@PEAU1@00@Z
	??$_Move_unchecked@PEAUwhisper_token_data@@PEAU1@@std@@YAPEAUwhisper_token_data@@PEAU1@00@Z
	??$_Next_iter@PEAM@std@@YAPEAMPEAM@Z
	??$_Next_iter@PEAU?$whisper_pair@NH@@@std@@YAPEAU?$whisper_pair@NH@@PEAU1@@Z
	??$_Next_iter@PEAUvad_time_mapping@@@std@@YAPEAUvad_time_mapping@@PEAU1@@Z
	??$_Next_iter@PEBN@std@@YAPEBNPEBN@Z
	??$_Next_iter@PEBUvad_time_mapping@@@std@@YAPEBUvad_time_mapping@@PEBU1@@Z
	??$_Nrand_impl@NV?$mersenne_twister_engine@I$0CA@$0CHA@$0BIN@$0BP@$0JJAILANP@$0L@$0PPPPPPPP@$06$0JNCMFGIA@$0P@$0OPMGAAAA@$0BC@$0GMAHIJGF@@std@@@std@@YANAEAV?$mersenne_twister_engine@I$0CA@$0CHA@$0BIN@$0BP@$0JJAILANP@$0L@$0PPPPPPPP@$06$0JNCMFGIA@$0P@$0OPMGAAAA@$0BC@$0GMAHIJGF@@0@@Z
	??$_Partition_by_median_guess_unchecked@PEAMU?$less@X@std@@@std@@YA?AU?$pair@PEAMPEAM@0@PEAM0U?$less@X@0@@Z
	??$_Partition_by_pivot_unchecked@PEAMU?$less@X@std@@@std@@YA?AU?$pair@PEAMPEAM@0@PEAM00U?$less@X@0@@Z
	??$_Pass_fn@U?$_Cmp_icase@V?$_Regex_traits@D@std@@@std@@@std@@YA?A_PAEAU?$_Cmp_icase@V?$_Regex_traits@D@std@@@0@@Z
	??$_Pass_fn@U?$_Cmp_icase_translateleft@V?$regex_traits@D@std@@@std@@@std@@YA?A_PAEAU?$_Cmp_icase_translateleft@V?$regex_traits@D@std@@@0@@Z
	??$_Pass_fn@U?$equal_to@D@std@@@std@@YA?A_PAEAU?$equal_to@D@0@@Z
	??$_Pass_fn@U?$less@X@std@@@std@@YA?A_PAEAU?$less@X@0@@Z
	??$_Pocca@V?$allocator@D@std@@@std@@YAXAEAV?$allocator@D@0@AEBV10@@Z
	??$_Pocca@V?$allocator@I@std@@@std@@YAXAEAV?$allocator@I@0@AEBV10@@Z
	??$_Pocca@V?$allocator@PEBUwhisper_grammar_element@@@std@@@std@@YAXAEAV?$allocator@PEBUwhisper_grammar_element@@@0@AEBV10@@Z
	??$_Pocca@V?$allocator@U_Grp_t@?$_Tgt_state_t@PEBD@std@@@std@@@std@@YAXAEAV?$allocator@U_Grp_t@?$_Tgt_state_t@PEBD@std@@@0@AEBV10@@Z
	??$_Pocca@V?$allocator@U_Grp_t@?$_Tgt_state_t@V?$_String_const_iterator@V?$_String_val@U?$_Simple_types@D@std@@@std@@@std@@@std@@@std@@@std@@YAXAEAV?$allocator@U_Grp_t@?$_Tgt_state_t@V?$_String_const_iterator@V?$_String_val@U?$_Simple_types@D@std@@@std@@@std@@@std@@@0@AEBV10@@Z
	??$_Pocca@V?$allocator@Uwhisper_grammar_element@@@std@@@std@@YAXAEAV?$allocator@Uwhisper_grammar_element@@@0@AEBV10@@Z
	??$_Pocca@V?$allocator@Uwhisper_token_data@@@std@@@std@@YAXAEAV?$allocator@Uwhisper_token_data@@@0@AEBV10@@Z
	??$_Pocca@V?$allocator@V?$vector@PEBUwhisper_grammar_element@@V?$allocator@PEBUwhisper_grammar_element@@@std@@@std@@@std@@@std@@YAXAEAV?$allocator@V?$vector@PEBUwhisper_grammar_element@@V?$allocator@PEBUwhisper_grammar_element@@@std@@@std@@@0@AEBV10@@Z
	??$_Pocca@V?$allocator@V?$vector@Uwhisper_grammar_element@@V?$allocator@Uwhisper_grammar_element@@@std@@@std@@@std@@@std@@YAXAEAV?$allocator@V?$vector@Uwhisper_grammar_element@@V?$allocator@Uwhisper_grammar_element@@@std@@@std@@@0@AEBV10@@Z
	??$_Pocma@V?$allocator@D@std@@@std@@YAXAEAV?$allocator@D@0@0@Z
	??$_Pocma@V?$allocator@M@std@@@std@@YAXAEAV?$allocator@M@0@0@Z
	??$_Pocma@V?$allocator@PEAUggml_backend@@@std@@@std@@YAXAEAV?$allocator@PEAUggml_backend@@@0@0@Z
	??$_Pocma@V?$allocator@Uwhisper_grammar_candidate@@@std@@@std@@YAXAEAV?$allocator@Uwhisper_grammar_candidate@@@0@0@Z
	??$_Pocma@V?$allocator@Uwhisper_token_data@@@std@@@std@@YAXAEAV?$allocator@Uwhisper_token_data@@@0@0@Z
	??$_Pocma@V?$allocator@Uwhisper_vad_segment@@@std@@@std@@YAXAEAV?$allocator@Uwhisper_vad_segment@@@0@0@Z
	??$_Pocma@V?$allocator@V?$vector@PEBUwhisper_grammar_element@@V?$allocator@PEBUwhisper_grammar_element@@@std@@@std@@@std@@@std@@YAXAEAV?$allocator@V?$vector@PEBUwhisper_grammar_element@@V?$allocator@PEBUwhisper_grammar_element@@@std@@@std@@@0@0@Z
	??$_Pocma@V?$allocator@V?$vector@Uwhisper_grammar_element@@V?$allocator@Uwhisper_grammar_element@@@std@@@std@@@std@@@std@@YAXAEAV?$allocator@V?$vector@Uwhisper_grammar_element@@V?$allocator@Uwhisper_grammar_element@@@std@@@std@@@0@0@Z
	??$_Pop_heap_hole_by_index@PEAMMU?$less@X@std@@@std@@YAXPEAM_J1$$QEAMU?$less@X@0@@Z
	??$_Pop_heap_hole_unchecked@PEAMMU?$less@X@std@@@std@@YAXPEAM00$$QEAMU?$less@X@0@@Z
	??$_Pop_heap_unchecked@PEAMU?$less@X@std@@@std@@YAXPEAM0U?$less@X@0@@Z
	??$_Prev_iter@PEAM@std@@YAPEAMPEAM@Z
	??$_Prev_iter@PEAU?$whisper_pair@NH@@@std@@YAPEAU?$whisper_pair@NH@@PEAU1@@Z
	??$_Prev_iter@PEAUvad_time_mapping@@@std@@YAPEAUvad_time_mapping@@PEAU1@@Z
	??$_Prev_iter@PEBD@std@@YAPEBDPEBD@Z
	??$_Prev_iter@V?$_String_const_iterator@V?$_String_val@U?$_Simple_types@D@std@@@std@@@std@@@std@@YA?AV?$_String_const_iterator@V?$_String_val@U?$_Simple_types@D@std@@@std@@@0@V10@@Z
	??$_Prev_iter@V?$_Vector_const_iterator@V?$_Vector_val@U?$_Simple_types@N@std@@@std@@@std@@@std@@YA?AV?$_Vector_const_iterator@V?$_Vector_val@U?$_Simple_types@N@std@@@std@@@0@V10@@Z
	??$_Push_heap_by_index@PEAMMU?$less@X@std@@@std@@YAXPEAM_J1$$QEAMU?$less@X@0@@Z
	??$_Reallocate@$0A@@?$vector@DV?$allocator@D@std@@@std@@AEAAXAEA_K@Z
	??$_Reallocate@$0A@@?$vector@HV?$allocator@H@std@@@std@@AEAAXAEA_K@Z
	??$_Reallocate@$0A@@?$vector@MV?$allocator@M@std@@@std@@AEAAXAEA_K@Z
	??$_Reallocate@$0A@@?$vector@U?$whisper_pair@NH@@V?$allocator@U?$whisper_pair@NH@@@std@@@std@@AEAAXAEA_K@Z
	??$_Reallocate@$0A@@?$vector@Uvad_segment_info@whisper_state@@V?$allocator@Uvad_segment_info@whisper_state@@@std@@@std@@AEAAXAEA_K@Z
	??$_Reallocate@$0A@@?$vector@Uvad_time_mapping@@V?$allocator@Uvad_time_mapping@@@std@@@std@@AEAAXAEA_K@Z
	??$_Reallocate@$0A@@?$vector@Uwhisper_token_data@@V?$allocator@Uwhisper_token_data@@@std@@@std@@AEAAXAEA_K@Z
	??$_Reallocate_for@V<lambda_a132b9f505f015b07a26cb4edca31da2>@@PEBD@?$basic_string@DU?$char_traits@D@std@@V?$allocator@D@2@@std@@AEAAAEAV01@_KV<lambda_a132b9f505f015b07a26cb4edca31da2>@@PEBD@Z
	??$_Reallocate_grow_by@V<lambda_25953b27f3c43b57ba59f021c7f225c5>@@_W@?$basic_string@_WU?$char_traits@_W@std@@V?$allocator@_W@2@@std@@AEAAAEAV01@_KV<lambda_25953b27f3c43b57ba59f021c7f225c5>@@_W@Z
	??$_Reallocate_grow_by@V<lambda_319d5e083f45f90dcdce5dce53cbb275>@@D@?$basic_string@DU?$char_traits@D@std@@V?$allocator@D@2@@std@@AEAAAEAV01@_KV<lambda_319d5e083f45f90dcdce5dce53cbb275>@@D@Z
	??$_Reallocate_grow_by@V<lambda_6e107f859707de1a71dcca60860853b1>@@PEBD_K@?$basic_string@DU?$char_traits@D@std@@V?$allocator@D@2@@std@@AEAAAEAV01@_KV<lambda_6e107f859707de1a71dcca60860853b1>@@PEBD_K@Z
	??$_Reallocate_grow_by@V<lambda_942448a5eca1a40cdf35e7a483deabf2>@@PEB_W_K@?$basic_string@_WU?$char_traits@_W@std@@V?$allocator@_W@2@@std@@AEAAAEAV01@_KV<lambda_942448a5eca1a40cdf35e7a483deabf2>@@PEB_W_K@Z
	??$_Reallocate_grow_by@V<lambda_a3050a43f3157934f354774ab3dd2e02>@@_K_W@?$basic_string@_WU?$char_traits@_W@std@@V?$allocator@_W@2@@std@@AEAAAEAV01@_KV<lambda_a3050a43f3157934f354774ab3dd2e02>@@_K_W@Z
	??$_Reallocate_grow_by@V<lambda_e1befb086ad3257e3f042a63030725f7>@@_KD@?$basic_string@DU?$char_traits@D@std@@V?$allocator@D@2@@std@@AEAAAEAV01@_KV<lambda_e1befb086ad3257e3f042a63030725f7>@@_KD@Z
	??$_Reallocate_grow_by@V<lambda_e9b99a188f9a316a73b83d1e72db26de>@@_KPEBD_K@?$basic_string@DU?$char_traits@D@std@@V?$allocator@D@2@@std@@AEAAAEAV01@_KV<lambda_e9b99a188f9a316a73b83d1e72db26de>@@_KPEBD2@Z
	??$_Refancy@PEAD$0A@@std@@YAPEADPEAD@Z
	??$_Refancy@PEBD$0A@@std@@YAPEBDPEBD@Z
	??$_Refancy_maybe_null@PEAH$0A@@std@@YAPEAHPEAH@Z
	??$_Refancy_maybe_null@PEAM$0A@@std@@YAPEAMPEAM@Z
	??$_Refancy_maybe_null@PEAN$0A@@std@@YAPEANPEAN@Z
	??$_Refancy_maybe_null@PEAUvad_time_mapping@@$0A@@std@@YAPEAUvad_time_mapping@@PEAU1@@Z
	??$_Refancy_maybe_null@PEBD$0A@@std@@YAPEBDPEBD@Z
	??$_Regex_match1@PEBDV?$allocator@V?$sub_match@PEBD@std@@@std@@DV?$regex_traits@D@2@PEBD@std@@YA_NPEBD0PEAV?$match_results@PEBDV?$allocator@V?$sub_match@PEBD@std@@@std@@@0@AEBV?$basic_regex@DV?$regex_traits@D@std@@@0@W4match_flag_type@regex_constants@0@_N@Z
	??$_Regex_search2@V?$_String_const_iterator@V?$_String_val@U?$_Simple_types@D@std@@@std@@@std@@V?$allocator@V?$sub_match@V?$_String_const_iterator@V?$_String_val@U?$_Simple_types@D@std@@@std@@@std@@@std@@@2@DV?$regex_traits@D@2@V12@@std@@YA_NV?$_String_const_iterator@V?$_String_val@U?$_Simple_types@D@std@@@std@@@0@0PEAV?$match_results@V?$_String_const_iterator@V?$_String_val@U?$_Simple_types@D@std@@@std@@@std@@V?$allocator@V?$sub_match@V?$_String_const_iterator@V?$_String_val@U?$_Simple_types@D@std@@@std@@@std@@@std@@@2@@0@AEBV?$basic_regex@DV?$regex_traits@D@std@@@0@W4match_flag_type@regex_constants@0@0@Z
	??$_Reset@PEBD@?$basic_regex@DV?$regex_traits@D@std@@@std@@AEAAXPEBD0W4syntax_option_type@regex_constants@1@@Z
	??$_Resize@I@?$vector@IV?$allocator@I@std@@@std@@AEAAX_KAEBI@Z
	??$_Resize@U_Value_init_tag@std@@@?$vector@DV?$allocator@D@std@@@std@@AEAAX_KAEBU_Value_init_tag@1@@Z
	??$_Resize@U_Value_init_tag@std@@@?$vector@EV?$allocator@E@std@@@std@@AEAAX_KAEBU_Value_init_tag@1@@Z
	??$_Resize@U_Value_init_tag@std@@@?$vector@HV?$allocator@H@std@@@std@@AEAAX_KAEBU_Value_init_tag@1@@Z
	??$_Resize@U_Value_init_tag@std@@@?$vector@MV?$allocator@M@std@@@std@@AEAAX_KAEBU_Value_init_tag@1@@Z
	??$_Resize@U_Value_init_tag@std@@@?$vector@U?$whisper_pair@NH@@V?$allocator@U?$whisper_pair@NH@@@std@@@std@@AEAAX_KAEBU_Value_init_tag@1@@Z
	??$_Resize@U_Value_init_tag@std@@@?$vector@U_Grp_t@?$_Tgt_state_t@PEBD@std@@V?$allocator@U_Grp_t@?$_Tgt_state_t@PEBD@std@@@3@@std@@AEAAX_KAEBU_Value_init_tag@1@@Z
	??$_Resize@U_Value_init_tag@std@@@?$vector@U_Grp_t@?$_Tgt_state_t@V?$_String_const_iterator@V?$_String_val@U?$_Simple_types@D@std@@@std@@@std@@@std@@V?$allocator@U_Grp_t@?$_Tgt_state_t@V?$_String_const_iterator@V?$_String_val@U?$_Simple_types@D@std@@@std@@@std@@@std@@@3@@std@@AEAAX_KAEBU_Value_init_tag@1@@Z
	??$_Resize@U_Value_init_tag@std@@@?$vector@U_Loop_vals_v2_t@std@@V?$allocator@U_Loop_vals_v2_t@std@@@2@@std@@AEAAX_KAEBU_Value_init_tag@1@@Z
	??$_Resize@U_Value_init_tag@std@@@?$vector@Uwhisper_kv_cell@@V?$allocator@Uwhisper_kv_cell@@@std@@@std@@AEAAX_KAEBU_Value_init_tag@1@@Z
	??$_Resize@U_Value_init_tag@std@@@?$vector@Uwhisper_layer_decoder@@V?$allocator@Uwhisper_layer_decoder@@@std@@@std@@AEAAX_KAEBU_Value_init_tag@1@@Z
	??$_Resize@U_Value_init_tag@std@@@?$vector@Uwhisper_layer_encoder@@V?$allocator@Uwhisper_layer_encoder@@@std@@@std@@AEAAX_KAEBU_Value_init_tag@1@@Z
	??$_Resize@U_Value_init_tag@std@@@?$vector@Uwhisper_token_data@@V?$allocator@Uwhisper_token_data@@@std@@@std@@AEAAX_KAEBU_Value_init_tag@1@@Z
	??$_Resize@U_Value_init_tag@std@@@?$vector@Uwhisper_vad_segment@@V?$allocator@Uwhisper_vad_segment@@@std@@@std@@AEAAX_KAEBU_Value_init_tag@1@@Z
	??$_Resize@U_Value_init_tag@std@@@?$vector@V?$sub_match@PEBD@std@@V?$allocator@V?$sub_match@PEBD@std@@@2@@std@@AEAAX_KAEBU_Value_init_tag@1@@Z
	??$_Resize@U_Value_init_tag@std@@@?$vector@V?$sub_match@V?$_String_const_iterator@V?$_String_val@U?$_Simple_types@D@std@@@std@@@std@@@std@@V?$allocator@V?$sub_match@V?$_String_const_iterator@V?$_String_val@U?$_Simple_types@D@std@@@std@@@std@@@std@@@2@@std@@AEAAX_KAEBU_Value_init_tag@1@@Z
	??$_Resize_reallocate@I@?$vector@IV?$allocator@I@std@@@std@@AEAAX_KAEBI@Z
	??$_Resize_reallocate@U_Value_init_tag@std@@@?$vector@DV?$allocator@D@std@@@std@@AEAAX_KAEBU_Value_init_tag@1@@Z
	??$_Resize_reallocate@U_Value_init_tag@std@@@?$vector@EV?$allocator@E@std@@@std@@AEAAX_KAEBU_Value_init_tag@1@@Z
	??$_Resize_reallocate@U_Value_init_tag@std@@@?$vector@HV?$allocator@H@std@@@std@@AEAAX_KAEBU_Value_init_tag@1@@Z
	??$_Resize_reallocate@U_Value_init_tag@std@@@?$vector@MV?$allocator@M@std@@@std@@AEAAX_KAEBU_Value_init_tag@1@@Z
	??$_Resize_reallocate@U_Value_init_tag@std@@@?$vector@U?$whisper_pair@NH@@V?$allocator@U?$whisper_pair@NH@@@std@@@std@@AEAAX_KAEBU_Value_init_tag@1@@Z
	??$_Resize_reallocate@U_Value_init_tag@std@@@?$vector@U_Grp_t@?$_Tgt_state_t@PEBD@std@@V?$allocator@U_Grp_t@?$_Tgt_state_t@PEBD@std@@@3@@std@@AEAAX_KAEBU_Value_init_tag@1@@Z
	??$_Resize_reallocate@U_Value_init_tag@std@@@?$vector@U_Grp_t@?$_Tgt_state_t@V?$_String_const_iterator@V?$_String_val@U?$_Simple_types@D@std@@@std@@@std@@@std@@V?$allocator@U_Grp_t@?$_Tgt_state_t@V?$_String_const_iterator@V?$_String_val@U?$_Simple_types@D@std@@@std@@@std@@@std@@@3@@std@@AEAAX_KAEBU_Value_init_tag@1@@Z
	??$_Resize_reallocate@U_Value_init_tag@std@@@?$vector@U_Loop_vals_v2_t@std@@V?$allocator@U_Loop_vals_v2_t@std@@@2@@std@@AEAAX_KAEBU_Value_init_tag@1@@Z
	??$_Resize_reallocate@U_Value_init_tag@std@@@?$vector@Uwhisper_kv_cell@@V?$allocator@Uwhisper_kv_cell@@@std@@@std@@AEAAX_KAEBU_Value_init_tag@1@@Z
	??$_Resize_reallocate@U_Value_init_tag@std@@@?$vector@Uwhisper_layer_decoder@@V?$allocator@Uwhisper_layer_decoder@@@std@@@std@@AEAAX_KAEBU_Value_init_tag@1@@Z
	??$_Resize_reallocate@U_Value_init_tag@std@@@?$vector@Uwhisper_layer_encoder@@V?$allocator@Uwhisper_layer_encoder@@@std@@@std@@AEAAX_KAEBU_Value_init_tag@1@@Z
	??$_Resize_reallocate@U_Value_init_tag@std@@@?$vector@Uwhisper_token_data@@V?$allocator@Uwhisper_token_data@@@std@@@std@@AEAAX_KAEBU_Value_init_tag@1@@Z
	??$_Resize_reallocate@U_Value_init_tag@std@@@?$vector@Uwhisper_vad_segment@@V?$allocator@Uwhisper_vad_segment@@@std@@@std@@AEAAX_KAEBU_Value_init_tag@1@@Z
	??$_Resize_reallocate@U_Value_init_tag@std@@@?$vector@V?$sub_match@PEBD@std@@V?$allocator@V?$sub_match@PEBD@std@@@2@@std@@AEAAX_KAEBU_Value_init_tag@1@@Z
	??$_Resize_reallocate@U_Value_init_tag@std@@@?$vector@V?$sub_match@V?$_String_const_iterator@V?$_String_val@U?$_Simple_types@D@std@@@std@@@std@@@std@@V?$allocator@V?$sub_match@V?$_String_const_iterator@V?$_String_val@U?$_Simple_types@D@std@@@std@@@std@@@std@@@2@@std@@AEAAX_KAEBU_Value_init_tag@1@@Z
	??$_Reverse_vectorized@$03@std@@YAXPEAX0@Z
	??$_Search_translate_left@V?$_String_const_iterator@V?$_String_val@U?$_Simple_types@D@std@@@std@@@std@@PEBDV?$regex_traits@D@2@@std@@YA?AV?$_String_const_iterator@V?$_String_val@U?$_Simple_types@D@std@@@std@@@0@V10@0PEBD1AEBV?$regex_traits@D@0@W4syntax_option_type@regex_constants@0@@Z
	??$_Search_vectorized@$$CBD$$CBD@std@@YAPEBDQEBD00_K@Z
	??$_Seek_wrapped@PEBDPEBD@std@@YAXAEAPEBD$$QEAPEBD@Z
	??$_Seek_wrapped@V?$_String_const_iterator@V?$_String_val@U?$_Simple_types@D@std@@@std@@@std@@AEAPEBD@std@@YAXAEAV?$_String_const_iterator@V?$_String_val@U?$_Simple_types@D@std@@@std@@@0@AEAPEBD@Z
	??$_Seek_wrapped@V?$_Vb_iterator@U?$_Wrap_alloc@V?$allocator@I@std@@@std@@@std@@V12@@std@@YAXAEAV?$_Vb_iterator@U?$_Wrap_alloc@V?$allocator@I@std@@@std@@@0@$$QEAV10@@Z
	??$_Seek_wrapped@V?$_Vector_const_iterator@V?$_Vector_val@U?$_Simple_types@M@std@@@std@@@std@@PEBM@std@@YAXAEAV?$_Vector_const_iterator@V?$_Vector_val@U?$_Simple_types@M@std@@@std@@@0@$$QEAPEBM@Z
	??$_Seek_wrapped@V?$_Vector_const_iterator@V?$_Vector_val@U?$_Simple_types@N@std@@@std@@@std@@AEAPEBN@std@@YAXAEAV?$_Vector_const_iterator@V?$_Vector_val@U?$_Simple_types@N@std@@@std@@@0@AEAPEBN@Z
	??$_Seek_wrapped@V?$_Vector_const_iterator@V?$_Vector_val@U?$_Simple_types@Uvad_time_mapping@@@std@@@std@@@std@@AEAPEBUvad_time_mapping@@@std@@YAXAEAV?$_Vector_const_iterator@V?$_Vector_val@U?$_Simple_types@Uvad_time_mapping@@@std@@@std@@@0@AEAPEBUvad_time_mapping@@@Z
	??$_Seek_wrapped@V?$_Vector_iterator@V?$_Vector_val@U?$_Simple_types@H@std@@@std@@@std@@PEAH@std@@YAXAEAV?$_Vector_iterator@V?$_Vector_val@U?$_Simple_types@H@std@@@std@@@0@$$QEAPEAH@Z
	??$_Seek_wrapped@V?$_Vector_iterator@V?$_Vector_val@U?$_Simple_types@M@std@@@std@@@std@@AEAPEAM@std@@YAXAEAV?$_Vector_iterator@V?$_Vector_val@U?$_Simple_types@M@std@@@std@@@0@AEAPEAM@Z
	??$_Seek_wrapped@V?$_Vector_iterator@V?$_Vector_val@U?$_Simple_types@M@std@@@std@@@std@@PEAM@std@@YAXAEAV?$_Vector_iterator@V?$_Vector_val@U?$_Simple_types@M@std@@@std@@@0@$$QEAPEAM@Z
	??$_Seek_wrapped@V?$_Vector_iterator@V?$_Vector_val@U?$_Simple_types@Uvad_time_mapping@@@std@@@std@@@std@@AEAPEAUvad_time_mapping@@@std@@YAXAEAV?$_Vector_iterator@V?$_Vector_val@U?$_Simple_types@Uvad_time_mapping@@@std@@@std@@@0@AEAPEAUvad_time_mapping@@@Z
	??$_Seek_wrapped@V?$_Vector_iterator@V?$_Vector_val@U?$_Simple_types@Uvad_time_mapping@@@std@@@std@@@std@@AEBQEAUvad_time_mapping@@@std@@YAXAEAV?$_Vector_iterator@V?$_Vector_val@U?$_Simple_types@Uvad_time_mapping@@@std@@@std@@@0@AEBQEAUvad_time_mapping@@@Z
	??$_Sort_heap_unchecked@PEAMU?$less@X@std@@@std@@YAXPEAM0U?$less@X@0@@Z
	??$_Sort_unchecked@PEAMU?$less@X@std@@@std@@YAXPEAM0_JU?$less@X@0@@Z
	??$_Start@A6AHPEAUwhisper_context@@PEAUwhisper_state@@Uwhisper_full_params@@PEBMH@ZAEAPEAU1@AEAPEAU2@U3@PEBMAEBH@thread@std@@AEAAXA6AHPEAUwhisper_context@@PEAUwhisper_state@@Uwhisper_full_params@@PEBMH@ZAEAPEAU2@AEAPEAU3@$$QEAU4@$$QEAPEBMAEBH@Z
	??$_Start@A6AXHPEBMAEBV?$vector@MV?$allocator@M@std@@@std@@HHHHAEBUwhisper_filters@@AEAUwhisper_mel@@@ZHAEAPEBMV?$reference_wrapper@$$CBV?$vector@MV?$allocator@M@std@@@std@@@2@_JAEBHAEBHAEBHV?$reference_wrapper@$$CBUwhisper_filters@@@2@V?$reference_wrapper@Uwhisper_mel@@@2@@thread@std@@AEAAXA6AXHPEBMAEBV?$vector@MV?$allocator@M@std@@@1@HHHHAEBUwhisper_filters@@AEAUwhisper_mel@@@Z$$QEAHAEAPEBM$$QEAV?$reference_wrapper@$$CBV?$vector@MV?$allocator@M@std@@@std@@@1@$$QEA_JAEBH99$$QEAV?$reference_wrapper@$$CBUwhisper_filters@@@1@$$QEAV?$reference_wrapper@Uwhisper_mel@@@1@@Z
	??$_To_address@PEAD@std@@YA?A_PAEBQEAD@Z
	??$_To_address@PEAE@std@@YA?A_PAEBQEAE@Z
	??$_To_address@PEAH@std@@YA?A_PAEBQEAH@Z
	??$_To_address@PEAI@std@@YA?A_PAEBQEAI@Z
	??$_To_address@PEAM@std@@YA?A_PAEBQEAM@Z
	??$_To_address@PEAN@std@@YA?A_PAEBQEAN@Z
	??$_To_address@PEAPEAUggml_backend@@@std@@YA?A_PAEBQEAPEAUggml_backend@@@Z
	??$_To_address@PEAPEAUggml_backend_buffer@@@std@@YA?A_PAEBQEAPEAUggml_backend_buffer@@@Z
	??$_To_address@PEAPEAUggml_context@@@std@@YA?A_PAEBQEAPEAUggml_context@@@Z
	??$_To_address@PEAPEAUggml_tensor@@@std@@YA?A_PAEBQEAPEAUggml_tensor@@@Z
	??$_To_address@PEAPEAUwhisper_state@@@std@@YA?A_PAEBQEAPEAUwhisper_state@@@Z
	??$_To_address@PEAPEBUwhisper_grammar_element@@@std@@YA?A_PAEBQEAPEBUwhisper_grammar_element@@@Z
	??$_To_address@PEAU?$pair@PEAUggml_backend_device@@PEAUggml_backend_buffer_type@@@std@@@std@@YA?A_PAEBQEAU?$pair@PEAUggml_backend_device@@PEAUggml_backend_buffer_type@@@0@@Z
	??$_To_address@PEAU?$whisper_pair@NH@@@std@@YA?A_PAEBQEAU?$whisper_pair@NH@@@Z
	??$_To_address@PEAU_Grp_t@?$_Tgt_state_t@PEBD@std@@@std@@YA?A_PAEBQEAU_Grp_t@?$_Tgt_state_t@PEBD@0@@Z
	??$_To_address@PEAU_Grp_t@?$_Tgt_state_t@V?$_String_const_iterator@V?$_String_val@U?$_Simple_types@D@std@@@std@@@std@@@std@@@std@@YA?A_PAEBQEAU_Grp_t@?$_Tgt_state_t@V?$_String_const_iterator@V?$_String_val@U?$_Simple_types@D@std@@@std@@@std@@@0@@Z
	??$_To_address@PEAU_Loop_vals_v2_t@std@@@std@@YA?A_PAEBQEAU_Loop_vals_v2_t@0@@Z
	??$_To_address@PEAUvad_segment_info@whisper_state@@@std@@YA?A_PAEBQEAUvad_segment_info@whisper_state@@@Z
	??$_To_address@PEAUvad_time_mapping@@@std@@YA?A_PAEBQEAUvad_time_mapping@@@Z
	??$_To_address@PEAUwhisper_grammar_candidate@@@std@@YA?A_PAEBQEAUwhisper_grammar_candidate@@@Z
	??$_To_address@PEAUwhisper_grammar_element@@@std@@YA?A_PAEBQEAUwhisper_grammar_element@@@Z
	??$_To_address@PEAUwhisper_layer_decoder@@@std@@YA?A_PAEBQEAUwhisper_layer_decoder@@@Z
	??$_To_address@PEAUwhisper_layer_encoder@@@std@@YA?A_PAEBQEAUwhisper_layer_encoder@@@Z
	??$_To_address@PEAUwhisper_token_data@@@std@@YA?A_PAEBQEAUwhisper_token_data@@@Z
	??$_To_address@PEAUwhisper_vad_segment@@@std@@YA?A_PAEBQEAUwhisper_vad_segment@@@Z
	??$_To_address@PEAV?$sub_match@PEBD@std@@@std@@YA?A_PAEBQEAV?$sub_match@PEBD@0@@Z
	??$_To_address@PEAV?$sub_match@V?$_String_const_iterator@V?$_String_val@U?$_Simple_types@D@std@@@std@@@std@@@std@@@std@@YA?A_PAEBQEAV?$sub_match@V?$_String_const_iterator@V?$_String_val@U?$_Simple_types@D@std@@@std@@@std@@@0@@Z
	??$_To_address@PEA_K@std@@YA?A_PAEBQEA_K@Z
	??$_To_address@PEBD@std@@YA?A_PAEBQEBD@Z
	??$_To_address@PEBH@std@@YA?A_PAEBQEBH@Z
	??$_To_address@PEBM@std@@YA?A_PAEBQEBM@Z
	??$_To_address@PEBQEBUwhisper_grammar_element@@@std@@YA?A_PAEBQEBQEBUwhisper_grammar_element@@@Z
	??$_To_address@PEB_K@std@@YA?A_PAEBQEB_K@Z
	??$_Traits_compare@U?$char_traits@D@std@@@std@@YAHQEBD_K01@Z
	??$_Traits_copy_batch@U?$char_traits@D@std@@D@std@@YAXQEADQEBD_K@Z
	??$_Traits_copy_batch@U?$char_traits@_W@std@@_W@std@@YAXQEA_WQEB_W_K@Z
	??$_Traits_equal@U?$char_traits@D@std@@@std@@YA_NQEBD_K01@Z
	??$_Traits_move_batch@U?$char_traits@D@std@@D@std@@YAXQEADQEBD_K@Z
	??$_Traits_move_batch@U?$char_traits@_W@std@@_W@std@@YAXQEA_WQEB_W_K@Z
	??$_Traits_rfind@U?$char_traits@D@std@@@std@@YA_KQEBD_K101@Z
	??$_Try_emplace@AEBH$$V@?$map@HHU?$less@H@std@@V?$allocator@U?$pair@$$CBHH@std@@@2@@std@@AEAA?AU?$pair@PEAU?$_Tree_node@U?$pair@$$CBHH@std@@PEAX@std@@_N@1@AEBH@Z
	??$_Try_emplace@AEBH$$V@?$map@HV?$basic_string@DU?$char_traits@D@std@@V?$allocator@D@2@@std@@U?$less@H@2@V?$allocator@U?$pair@$$CBHV?$basic_string@DU?$char_traits@D@std@@V?$allocator@D@2@@std@@@std@@@2@@std@@AEAA?AU?$pair@PEAU?$_Tree_node@U?$pair@$$CBHV?$basic_string@DU?$char_traits@D@std@@V?$allocator@D@2@@std@@@std@@PEAX@std@@_N@1@AEBH@Z
	??$_Try_emplace@AEBQEAUggml_backend_buffer_type@@$$V@?$map@PEAUggml_backend_buffer_type@@PEAUggml_context@@U?$less@PEAUggml_backend_buffer_type@@@std@@V?$allocator@U?$pair@QEAUggml_backend_buffer_type@@PEAUggml_context@@@std@@@4@@std@@AEAA?AU?$pair@PEAU?$_Tree_node@U?$pair@QEAUggml_backend_buffer_type@@PEAUggml_context@@@std@@PEAX@std@@_N@1@AEBQEAUggml_backend_buffer_type@@@Z
	??$_Try_emplace@AEBV?$basic_string@DU?$char_traits@D@std@@V?$allocator@D@2@@std@@$$V@?$map@V?$basic_string@DU?$char_traits@D@std@@V?$allocator@D@2@@std@@HU?$less@V?$basic_string@DU?$char_traits@D@std@@V?$allocator@D@2@@std@@@2@V?$allocator@U?$pair@$$CBV?$basic_string@DU?$char_traits@D@std@@V?$allocator@D@2@@std@@H@std@@@2@@std@@AEAA?AU?$pair@PEAU?$_Tree_node@U?$pair@$$CBV?$basic_string@DU?$char_traits@D@std@@V?$allocator@D@2@@std@@H@std@@PEAX@std@@_N@1@AEBV?$basic_string@DU?$char_traits@D@std@@V?$allocator@D@2@@1@@Z
	??$_Try_emplace@V?$basic_string@DU?$char_traits@D@std@@V?$allocator@D@2@@std@@$$V@?$map@V?$basic_string@DU?$char_traits@D@std@@V?$allocator@D@2@@std@@PEAUggml_tensor@@U?$less@V?$basic_string@DU?$char_traits@D@std@@V?$allocator@D@2@@std@@@2@V?$allocator@U?$pair@$$CBV?$basic_string@DU?$char_traits@D@std@@V?$allocator@D@2@@std@@PEAUggml_tensor@@@std@@@2@@std@@AEAA?AU?$pair@PEAU?$_Tree_node@U?$pair@$$CBV?$basic_string@DU?$char_traits@D@std@@V?$allocator@D@2@@std@@PEAUggml_tensor@@@std@@PEAX@std@@_N@1@$$QEAV?$basic_string@DU?$char_traits@D@std@@V?$allocator@D@2@@1@@Z
	??$_Tuple_get@$0A@$$QEAV?$basic_string@DU?$char_traits@D@std@@V?$allocator@D@2@@std@@@std@@YA$$QEA_P$$QEAV?$tuple@$$QEAV?$basic_string@DU?$char_traits@D@std@@V?$allocator@D@2@@std@@@0@@Z
	??$_Tuple_get@$0A@AEBH@std@@YA$$QEA_P$$QEAV?$tuple@AEBH@0@@Z
	??$_Tuple_get@$0A@AEBQEAUggml_backend_buffer_type@@@std@@YA$$QEA_P$$QEAV?$tuple@AEBQEAUggml_backend_buffer_type@@@0@@Z
	??$_Tuple_get@$0A@AEBV?$basic_string@DU?$char_traits@D@std@@V?$allocator@D@2@@std@@@std@@YA$$QEA_P$$QEAV?$tuple@AEBV?$basic_string@DU?$char_traits@D@std@@V?$allocator@D@2@@std@@@0@@Z
	??$_UIntegral_to_buff@DI@std@@YAPEADPEADI@Z
	??$_Unfancy@D@std@@YAPEADPEAD@Z
	??$_Unfancy@E@std@@YAPEAEPEAE@Z
	??$_Unfancy@H@std@@YAPEAHPEAH@Z
	??$_Unfancy@I@std@@YAPEAIPEAI@Z
	??$_Unfancy@M@std@@YAPEAMPEAM@Z
	??$_Unfancy@N@std@@YAPEANPEAN@Z
	??$_Unfancy@PEAUggml_backend@@@std@@YAPEAPEAUggml_backend@@PEAPEAU1@@Z
	??$_Unfancy@PEAUggml_backend_buffer@@@std@@YAPEAPEAUggml_backend_buffer@@PEAPEAU1@@Z
	??$_Unfancy@PEAUggml_context@@@std@@YAPEAPEAUggml_context@@PEAPEAU1@@Z
	??$_Unfancy@PEAUggml_tensor@@@std@@YAPEAPEAUggml_tensor@@PEAPEAU1@@Z
	??$_Unfancy@PEAUwhisper_state@@@std@@YAPEAPEAUwhisper_state@@PEAPEAU1@@Z
	??$_Unfancy@PEBUwhisper_grammar_element@@@std@@YAPEAPEBUwhisper_grammar_element@@PEAPEBU1@@Z
	??$_Unfancy@U?$pair@PEAUggml_backend_device@@PEAUggml_backend_buffer_type@@@std@@@std@@YAPEAU?$pair@PEAUggml_backend_device@@PEAUggml_backend_buffer_type@@@0@PEAU10@@Z
	??$_Unfancy@U?$pair@V?$vector@IV?$allocator@I@std@@@std@@Uwhisper_partial_utf8@@@std@@@std@@YAPEAU?$pair@V?$vector@IV?$allocator@I@std@@@std@@Uwhisper_partial_utf8@@@0@PEAU10@@Z
	??$_Unfancy@U?$whisper_pair@NH@@@std@@YAPEAU?$whisper_pair@NH@@PEAU1@@Z
	??$_Unfancy@U_Grp_t@?$_Tgt_state_t@PEBD@std@@@std@@YAPEAU_Grp_t@?$_Tgt_state_t@PEBD@0@PEAU120@@Z
	??$_Unfancy@U_Grp_t@?$_Tgt_state_t@V?$_String_const_iterator@V?$_String_val@U?$_Simple_types@D@std@@@std@@@std@@@std@@@std@@YAPEAU_Grp_t@?$_Tgt_state_t@V?$_String_const_iterator@V?$_String_val@U?$_Simple_types@D@std@@@std@@@std@@@0@PEAU120@@Z
	??$_Unfancy@U_Loop_vals_v2_t@std@@@std@@YAPEAU_Loop_vals_v2_t@0@PEAU10@@Z
	??$_Unfancy@Uvad_segment_info@whisper_state@@@std@@YAPEAUvad_segment_info@whisper_state@@PEAU12@@Z
	??$_Unfancy@Uvad_time_mapping@@@std@@YAPEAUvad_time_mapping@@PEAU1@@Z
	??$_Unfancy@Uwhisper_grammar_candidate@@@std@@YAPEAUwhisper_grammar_candidate@@PEAU1@@Z
	??$_Unfancy@Uwhisper_grammar_element@@@std@@YAPEAUwhisper_grammar_element@@PEAU1@@Z
	??$_Unfancy@Uwhisper_kv_cell@@@std@@YAPEAUwhisper_kv_cell@@PEAU1@@Z
	??$_Unfancy@Uwhisper_layer_decoder@@@std@@YAPEAUwhisper_layer_decoder@@PEAU1@@Z
	??$_Unfancy@Uwhisper_layer_encoder@@@std@@YAPEAUwhisper_layer_encoder@@PEAU1@@Z
	??$_Unfancy@Uwhisper_segment@@@std@@YAPEAUwhisper_segment@@PEAU1@@Z
	??$_Unfancy@Uwhisper_token_data@@@std@@YAPEAUwhisper_token_data@@PEAU1@@Z
	??$_Unfancy@Uwhisper_vad_segment@@@std@@YAPEAUwhisper_vad_segment@@PEAU1@@Z
	??$_Unfancy@V?$_Tgt_state_t@PEBD@std@@@std@@YAPEAV?$_Tgt_state_t@PEBD@0@PEAV10@@Z
	??$_Unfancy@V?$_Tgt_state_t@V?$_String_const_iterator@V?$_String_val@U?$_Simple_types@D@std@@@std@@@std@@@std@@@std@@YAPEAV?$_Tgt_state_t@V?$_String_const_iterator@V?$_String_val@U?$_Simple_types@D@std@@@std@@@std@@@0@PEAV10@@Z
	??$_Unfancy@V?$basic_string@DU?$char_traits@D@std@@V?$allocator@D@2@@std@@@std@@YAPEAV?$basic_string@DU?$char_traits@D@std@@V?$allocator@D@2@@0@PEAV10@@Z
	??$_Unfancy@V?$sub_match@PEBD@std@@@std@@YAPEAV?$sub_match@PEBD@0@PEAV10@@Z
	??$_Unfancy@V?$sub_match@V?$_String_const_iterator@V?$_String_val@U?$_Simple_types@D@std@@@std@@@std@@@std@@@std@@YAPEAV?$sub_match@V?$_String_const_iterator@V?$_String_val@U?$_Simple_types@D@std@@@std@@@std@@@0@PEAV10@@Z
	??$_Unfancy@V?$vector@PEBUwhisper_grammar_element@@V?$allocator@PEBUwhisper_grammar_element@@@std@@@std@@@std@@YAPEAV?$vector@PEBUwhisper_grammar_element@@V?$allocator@PEBUwhisper_grammar_element@@@std@@@0@PEAV10@@Z
	??$_Unfancy@V?$vector@Uwhisper_grammar_element@@V?$allocator@Uwhisper_grammar_element@@@std@@@std@@@std@@YAPEAV?$vector@Uwhisper_grammar_element@@V?$allocator@Uwhisper_grammar_element@@@std@@@0@PEAV10@@Z
	??$_Unfancy@Vthread@std@@@std@@YAPEAVthread@0@PEAV10@@Z
	??$_Unfancy@_K@std@@YAPEA_KPEA_K@Z
	??$_Unfancy@_W@std@@YAPEA_WPEA_W@Z
	??$_Unfancy_maybe_null@$$CBD@std@@YAPEBDPEBD@Z
	??$_Unfancy_maybe_null@D@std@@YAPEADPEAD@Z
	??$_Unfancy_maybe_null@E@std@@YAPEAEPEAE@Z
	??$_Unfancy_maybe_null@H@std@@YAPEAHPEAH@Z
	??$_Unfancy_maybe_null@I@std@@YAPEAIPEAI@Z
	??$_Unfancy_maybe_null@M@std@@YAPEAMPEAM@Z
	??$_Unfancy_maybe_null@N@std@@YAPEANPEAN@Z
	??$_Unfancy_maybe_null@PEAUggml_backend@@@std@@YAPEAPEAUggml_backend@@PEAPEAU1@@Z
	??$_Unfancy_maybe_null@PEAUggml_backend_buffer@@@std@@YAPEAPEAUggml_backend_buffer@@PEAPEAU1@@Z
	??$_Unfancy_maybe_null@PEAUggml_context@@@std@@YAPEAPEAUggml_context@@PEAPEAU1@@Z
	??$_Unfancy_maybe_null@PEBUwhisper_grammar_element@@@std@@YAPEAPEBUwhisper_grammar_element@@PEAPEBU1@@Z
	??$_Unfancy_maybe_null@U?$pair@PEAUggml_backend_device@@PEAUggml_backend_buffer_type@@@std@@@std@@YAPEAU?$pair@PEAUggml_backend_device@@PEAUggml_backend_buffer_type@@@0@PEAU10@@Z
	??$_Unfancy_maybe_null@U?$whisper_pair@NH@@@std@@YAPEAU?$whisper_pair@NH@@PEAU1@@Z
	??$_Unfancy_maybe_null@Uvad_time_mapping@@@std@@YAPEAUvad_time_mapping@@PEAU1@@Z
	??$_Unfancy_maybe_null@Uwhisper_grammar_candidate@@@std@@YAPEAUwhisper_grammar_candidate@@PEAU1@@Z
	??$_Unfancy_maybe_null@Uwhisper_grammar_element@@@std@@YAPEAUwhisper_grammar_element@@PEAU1@@Z
	??$_Unfancy_maybe_null@Uwhisper_segment@@@std@@YAPEAUwhisper_segment@@PEAU1@@Z
	??$_Unfancy_maybe_null@Uwhisper_token_data@@@std@@YAPEAUwhisper_token_data@@PEAU1@@Z
	??$_Unfancy_maybe_null@V?$basic_string@DU?$char_traits@D@std@@V?$allocator@D@2@@std@@@std@@YAPEAV?$basic_string@DU?$char_traits@D@std@@V?$allocator@D@2@@0@PEAV10@@Z
	??$_Unfancy_maybe_null@V?$sub_match@V?$_String_const_iterator@V?$_String_val@U?$_Simple_types@D@std@@@std@@@std@@@std@@@std@@YAPEAV?$sub_match@V?$_String_const_iterator@V?$_String_val@U?$_Simple_types@D@std@@@std@@@std@@@0@PEAV10@@Z
	??$_Unfancy_maybe_null@V?$vector@PEBUwhisper_grammar_element@@V?$allocator@PEBUwhisper_grammar_element@@@std@@@std@@@std@@YAPEAV?$vector@PEBUwhisper_grammar_element@@V?$allocator@PEBUwhisper_grammar_element@@@std@@@0@PEAV10@@Z
	??$_Ungetc@D@std@@YA_NAEBDPEAU_iobuf@@@Z
	??$_Uninitialized_copy@PEAIPEAIV?$allocator@I@std@@@std@@YAPEAIPEAI00AEAV?$allocator@I@0@@Z
	??$_Uninitialized_copy@PEAPEAUggml_backend@@PEAPEAU1@V?$allocator@PEAUggml_backend@@@std@@@std@@YAPEAPEAUggml_backend@@PEAPEAU1@00AEAV?$allocator@PEAUggml_backend@@@0@@Z
	??$_Uninitialized_copy@PEAPEBUwhisper_grammar_element@@PEAPEBU1@V?$allocator@PEBUwhisper_grammar_element@@@std@@@std@@YAPEAPEBUwhisper_grammar_element@@PEAPEBU1@00AEAV?$allocator@PEBUwhisper_grammar_element@@@0@@Z
	??$_Uninitialized_copy@PEAU?$pair@PEAUggml_backend_device@@PEAUggml_backend_buffer_type@@@std@@PEAU12@V?$allocator@U?$pair@PEAUggml_backend_device@@PEAUggml_backend_buffer_type@@@std@@@2@@std@@YAPEAU?$pair@PEAUggml_backend_device@@PEAUggml_backend_buffer_type@@@0@PEAU10@00AEAV?$allocator@U?$pair@PEAUggml_backend_device@@PEAUggml_backend_buffer_type@@@std@@@0@@Z
	??$_Uninitialized_copy@PEAU_Grp_t@?$_Tgt_state_t@PEBD@std@@PEAU123@V?$allocator@U_Grp_t@?$_Tgt_state_t@PEBD@std@@@3@@std@@YAPEAU_Grp_t@?$_Tgt_state_t@PEBD@0@PEAU120@00AEAV?$allocator@U_Grp_t@?$_Tgt_state_t@PEBD@std@@@0@@Z
	??$_Uninitialized_copy@PEAU_Grp_t@?$_Tgt_state_t@V?$_String_const_iterator@V?$_String_val@U?$_Simple_types@D@std@@@std@@@std@@@std@@PEAU123@V?$allocator@U_Grp_t@?$_Tgt_state_t@V?$_String_const_iterator@V?$_String_val@U?$_Simple_types@D@std@@@std@@@std@@@std@@@3@@std@@YAPEAU_Grp_t@?$_Tgt_state_t@V?$_String_const_iterator@V?$_String_val@U?$_Simple_types@D@std@@@std@@@std@@@0@PEAU120@00AEAV?$allocator@U_Grp_t@?$_Tgt_state_t@V?$_String_const_iterator@V?$_String_val@U?$_Simple_types@D@std@@@std@@@std@@@std@@@0@@Z
	??$_Uninitialized_copy@PEAUwhisper_grammar_element@@PEAU1@V?$allocator@Uwhisper_grammar_element@@@std@@@std@@YAPEAUwhisper_grammar_element@@PEAU1@00AEAV?$allocator@Uwhisper_grammar_element@@@0@@Z
	??$_Uninitialized_copy@PEAUwhisper_kv_cell@@PEAU1@V?$allocator@Uwhisper_kv_cell@@@std@@@std@@YAPEAUwhisper_kv_cell@@PEAU1@00AEAV?$allocator@Uwhisper_kv_cell@@@0@@Z
	??$_Uninitialized_copy@PEAUwhisper_token_data@@PEAU1@V?$allocator@Uwhisper_token_data@@@std@@@std@@YAPEAUwhisper_token_data@@PEAU1@00AEAV?$allocator@Uwhisper_token_data@@@0@@Z
	??$_Uninitialized_copy@PEAV?$vector@PEBUwhisper_grammar_element@@V?$allocator@PEBUwhisper_grammar_element@@@std@@@std@@PEAV12@V?$allocator@V?$vector@PEBUwhisper_grammar_element@@V?$allocator@PEBUwhisper_grammar_element@@@std@@@std@@@2@@std@@YAPEAV?$vector@PEBUwhisper_grammar_element@@V?$allocator@PEBUwhisper_grammar_element@@@std@@@0@PEAV10@00AEAV?$allocator@V?$vector@PEBUwhisper_grammar_element@@V?$allocator@PEBUwhisper_grammar_element@@@std@@@std@@@0@@Z
	??$_Uninitialized_copy@PEAV?$vector@Uwhisper_grammar_element@@V?$allocator@Uwhisper_grammar_element@@@std@@@std@@PEAV12@V?$allocator@V?$vector@Uwhisper_grammar_element@@V?$allocator@Uwhisper_grammar_element@@@std@@@std@@@2@@std@@YAPEAV?$vector@Uwhisper_grammar_element@@V?$allocator@Uwhisper_grammar_element@@@std@@@0@PEAV10@00AEAV?$allocator@V?$vector@Uwhisper_grammar_element@@V?$allocator@Uwhisper_grammar_element@@@std@@@std@@@0@@Z
	??$_Uninitialized_copy@PEBHPEBHV?$allocator@H@std@@@std@@YAPEAHPEBH0PEAHAEAV?$allocator@H@0@@Z
	??$_Uninitialized_copy@PEBMPEBMV?$allocator@N@std@@@std@@YAPEANPEBM0PEANAEAV?$allocator@N@0@@Z
	??$_Uninitialized_copy@PEBQEBUwhisper_grammar_element@@PEBQEBU1@V?$allocator@PEBUwhisper_grammar_element@@@std@@@std@@YAPEAPEBUwhisper_grammar_element@@PEBQEBU1@0PEAPEBU1@AEAV?$allocator@PEBUwhisper_grammar_element@@@0@@Z
	??$_Uninitialized_copy@PEBV?$basic_string@DU?$char_traits@D@std@@V?$allocator@D@2@@std@@PEBV12@V?$allocator@V?$basic_string@DU?$char_traits@D@std@@V?$allocator@D@2@@std@@@2@@std@@YAPEAV?$basic_string@DU?$char_traits@D@std@@V?$allocator@D@2@@0@PEBV10@0PEAV10@AEAV?$allocator@V?$basic_string@DU?$char_traits@D@std@@V?$allocator@D@2@@std@@@0@@Z
	??$_Uninitialized_copy@PEB_KPEB_KV?$allocator@_K@std@@@std@@YAPEA_KPEB_K0PEA_KAEAV?$allocator@_K@0@@Z
	??$_Uninitialized_copy_n@PEAHV?$allocator@H@std@@@std@@YAPEAHPEAH_K0AEAV?$allocator@H@0@@Z
	??$_Uninitialized_copy_n@PEAIV?$allocator@I@std@@@std@@YAPEAIPEAI_K0AEAV?$allocator@I@0@@Z
	??$_Uninitialized_copy_n@PEAPEBUwhisper_grammar_element@@V?$allocator@PEBUwhisper_grammar_element@@@std@@@std@@YAPEAPEBUwhisper_grammar_element@@PEAPEBU1@_K0AEAV?$allocator@PEBUwhisper_grammar_element@@@0@@Z
	??$_Uninitialized_copy_n@PEAU_Grp_t@?$_Tgt_state_t@PEBD@std@@V?$allocator@U_Grp_t@?$_Tgt_state_t@PEBD@std@@@3@@std@@YAPEAU_Grp_t@?$_Tgt_state_t@PEBD@0@PEAU120@_K0AEAV?$allocator@U_Grp_t@?$_Tgt_state_t@PEBD@std@@@0@@Z
	??$_Uninitialized_copy_n@PEAU_Grp_t@?$_Tgt_state_t@V?$_String_const_iterator@V?$_String_val@U?$_Simple_types@D@std@@@std@@@std@@@std@@V?$allocator@U_Grp_t@?$_Tgt_state_t@V?$_String_const_iterator@V?$_String_val@U?$_Simple_types@D@std@@@std@@@std@@@std@@@3@@std@@YAPEAU_Grp_t@?$_Tgt_state_t@V?$_String_const_iterator@V?$_String_val@U?$_Simple_types@D@std@@@std@@@std@@@0@PEAU120@_K0AEAV?$allocator@U_Grp_t@?$_Tgt_state_t@V?$_String_const_iterator@V?$_String_val@U?$_Simple_types@D@std@@@std@@@std@@@std@@@0@@Z
	??$_Uninitialized_copy_n@PEAUwhisper_grammar_element@@V?$allocator@Uwhisper_grammar_element@@@std@@@std@@YAPEAUwhisper_grammar_element@@PEAU1@_K0AEAV?$allocator@Uwhisper_grammar_element@@@0@@Z
	??$_Uninitialized_copy_n@PEAUwhisper_token_data@@V?$allocator@Uwhisper_token_data@@@std@@@std@@YAPEAUwhisper_token_data@@PEAU1@_K0AEAV?$allocator@Uwhisper_token_data@@@0@@Z
	??$_Uninitialized_copy_n@PEAV?$vector@PEBUwhisper_grammar_element@@V?$allocator@PEBUwhisper_grammar_element@@@std@@@std@@V?$allocator@V?$vector@PEBUwhisper_grammar_element@@V?$allocator@PEBUwhisper_grammar_element@@@std@@@std@@@2@@std@@YAPEAV?$vector@PEBUwhisper_grammar_element@@V?$allocator@PEBUwhisper_grammar_element@@@std@@@0@PEAV10@_K0AEAV?$allocator@V?$vector@PEBUwhisper_grammar_element@@V?$allocator@PEBUwhisper_grammar_element@@@std@@@std@@@0@@Z
	??$_Uninitialized_copy_n@PEAV?$vector@Uwhisper_grammar_element@@V?$allocator@Uwhisper_grammar_element@@@std@@@std@@V?$allocator@V?$vector@Uwhisper_grammar_element@@V?$allocator@Uwhisper_grammar_element@@@std@@@std@@@2@@std@@YAPEAV?$vector@Uwhisper_grammar_element@@V?$allocator@Uwhisper_grammar_element@@@std@@@0@PEAV10@_K0AEAV?$allocator@V?$vector@Uwhisper_grammar_element@@V?$allocator@Uwhisper_grammar_element@@@std@@@std@@@0@@Z
	??$_Uninitialized_copy_n@PEBHV?$allocator@H@std@@@std@@YAPEAHPEBH_KPEAHAEAV?$allocator@H@0@@Z
	??$_Uninitialized_fill_n@V?$allocator@D@std@@@std@@YAPEADPEAD_KAEBDAEAV?$allocator@D@0@@Z
	??$_Uninitialized_fill_n@V?$allocator@I@std@@@std@@YAPEAIPEAI_KAEBIAEAV?$allocator@I@0@@Z
	??$_Uninitialized_fill_n@V?$allocator@M@std@@@std@@YAPEAMPEAM_KAEBMAEAV?$allocator@M@0@@Z
	??$_Uninitialized_fill_n@V?$allocator@N@std@@@std@@YAPEANPEAN_KAEBNAEAV?$allocator@N@0@@Z
	??$_Uninitialized_move@PEADV?$allocator@D@std@@@std@@YAPEADQEAD0PEADAEAV?$allocator@D@0@@Z
	??$_Uninitialized_move@PEAEV?$allocator@E@std@@@std@@YAPEAEQEAE0PEAEAEAV?$allocator@E@0@@Z
	??$_Uninitialized_move@PEAHV?$allocator@H@std@@@std@@YAPEAHQEAH0PEAHAEAV?$allocator@H@0@@Z
	??$_Uninitialized_move@PEAIV?$allocator@I@std@@@std@@YAPEAIQEAI0PEAIAEAV?$allocator@I@0@@Z
	??$_Uninitialized_move@PEAMV?$allocator@M@std@@@std@@YAPEAMQEAM0PEAMAEAV?$allocator@M@0@@Z
	??$_Uninitialized_move@PEANV?$allocator@N@std@@@std@@YAPEANQEAN0PEANAEAV?$allocator@N@0@@Z
	??$_Uninitialized_move@PEAPEAUggml_backend@@V?$allocator@PEAUggml_backend@@@std@@@std@@YAPEAPEAUggml_backend@@QEAPEAU1@0PEAPEAU1@AEAV?$allocator@PEAUggml_backend@@@0@@Z
	??$_Uninitialized_move@PEAPEAUggml_backend_buffer@@V?$allocator@PEAUggml_backend_buffer@@@std@@@std@@YAPEAPEAUggml_backend_buffer@@QEAPEAU1@0PEAPEAU1@AEAV?$allocator@PEAUggml_backend_buffer@@@0@@Z
	??$_Uninitialized_move@PEAPEAUggml_context@@V?$allocator@PEAUggml_context@@@std@@@std@@YAPEAPEAUggml_context@@QEAPEAU1@0PEAPEAU1@AEAV?$allocator@PEAUggml_context@@@0@@Z
	??$_Uninitialized_move@PEAPEAUggml_tensor@@V?$allocator@PEAUggml_tensor@@@std@@@std@@YAPEAPEAUggml_tensor@@QEAPEAU1@0PEAPEAU1@AEAV?$allocator@PEAUggml_tensor@@@0@@Z
	??$_Uninitialized_move@PEAPEAUwhisper_state@@V?$allocator@PEAUwhisper_state@@@std@@@std@@YAPEAPEAUwhisper_state@@QEAPEAU1@0PEAPEAU1@AEAV?$allocator@PEAUwhisper_state@@@0@@Z
	??$_Uninitialized_move@PEAPEBUwhisper_grammar_element@@V?$allocator@PEBUwhisper_grammar_element@@@std@@@std@@YAPEAPEBUwhisper_grammar_element@@QEAPEBU1@0PEAPEBU1@AEAV?$allocator@PEBUwhisper_grammar_element@@@0@@Z
	??$_Uninitialized_move@PEAU?$pair@PEAUggml_backend_device@@PEAUggml_backend_buffer_type@@@std@@V?$allocator@U?$pair@PEAUggml_backend_device@@PEAUggml_backend_buffer_type@@@std@@@2@@std@@YAPEAU?$pair@PEAUggml_backend_device@@PEAUggml_backend_buffer_type@@@0@QEAU10@0PEAU10@AEAV?$allocator@U?$pair@PEAUggml_backend_device@@PEAUggml_backend_buffer_type@@@std@@@0@@Z
	??$_Uninitialized_move@PEAU?$pair@V?$vector@IV?$allocator@I@std@@@std@@Uwhisper_partial_utf8@@@std@@V?$allocator@U?$pair@V?$vector@IV?$allocator@I@std@@@std@@Uwhisper_partial_utf8@@@std@@@2@@std@@YAPEAU?$pair@V?$vector@IV?$allocator@I@std@@@std@@Uwhisper_partial_utf8@@@0@QEAU10@0PEAU10@AEAV?$allocator@U?$pair@V?$vector@IV?$allocator@I@std@@@std@@Uwhisper_partial_utf8@@@std@@@0@@Z
	??$_Uninitialized_move@PEAU?$whisper_pair@NH@@V?$allocator@U?$whisper_pair@NH@@@std@@@std@@YAPEAU?$whisper_pair@NH@@QEAU1@0PEAU1@AEAV?$allocator@U?$whisper_pair@NH@@@0@@Z
	??$_Uninitialized_move@PEAU_Grp_t@?$_Tgt_state_t@PEBD@std@@V?$allocator@U_Grp_t@?$_Tgt_state_t@PEBD@std@@@3@@std@@YAPEAU_Grp_t@?$_Tgt_state_t@PEBD@0@QEAU120@0PEAU120@AEAV?$allocator@U_Grp_t@?$_Tgt_state_t@PEBD@std@@@0@@Z
	??$_Uninitialized_move@PEAU_Grp_t@?$_Tgt_state_t@V?$_String_const_iterator@V?$_String_val@U?$_Simple_types@D@std@@@std@@@std@@@std@@V?$allocator@U_Grp_t@?$_Tgt_state_t@V?$_String_const_iterator@V?$_String_val@U?$_Simple_types@D@std@@@std@@@std@@@std@@@3@@std@@YAPEAU_Grp_t@?$_Tgt_state_t@V?$_String_const_iterator@V?$_String_val@U?$_Simple_types@D@std@@@std@@@std@@@0@QEAU120@0PEAU120@AEAV?$allocator@U_Grp_t@?$_Tgt_state_t@V?$_String_const_iterator@V?$_String_val@U?$_Simple_types@D@std@@@std@@@std@@@std@@@0@@Z
	??$_Uninitialized_move@PEAU_Loop_vals_v2_t@std@@V?$allocator@U_Loop_vals_v2_t@std@@@2@@std@@YAPEAU_Loop_vals_v2_t@0@QEAU10@0PEAU10@AEAV?$allocator@U_Loop_vals_v2_t@std@@@0@@Z
	??$_Uninitialized_move@PEAUvad_segment_info@whisper_state@@V?$allocator@Uvad_segment_info@whisper_state@@@std@@@std@@YAPEAUvad_segment_info@whisper_state@@QEAU12@0PEAU12@AEAV?$allocator@Uvad_segment_info@whisper_state@@@0@@Z
	??$_Uninitialized_move@PEAUvad_time_mapping@@V?$allocator@Uvad_time_mapping@@@std@@@std@@YAPEAUvad_time_mapping@@QEAU1@0PEAU1@AEAV?$allocator@Uvad_time_mapping@@@0@@Z
	??$_Uninitialized_move@PEAUwhisper_grammar_candidate@@V?$allocator@Uwhisper_grammar_candidate@@@std@@@std@@YAPEAUwhisper_grammar_candidate@@QEAU1@0PEAU1@AEAV?$allocator@Uwhisper_grammar_candidate@@@0@@Z
	??$_Uninitialized_move@PEAUwhisper_grammar_element@@V?$allocator@Uwhisper_grammar_element@@@std@@@std@@YAPEAUwhisper_grammar_element@@QEAU1@0PEAU1@AEAV?$allocator@Uwhisper_grammar_element@@@0@@Z
	??$_Uninitialized_move@PEAUwhisper_layer_decoder@@V?$allocator@Uwhisper_layer_decoder@@@std@@@std@@YAPEAUwhisper_layer_decoder@@QEAU1@0PEAU1@AEAV?$allocator@Uwhisper_layer_decoder@@@0@@Z
	??$_Uninitialized_move@PEAUwhisper_layer_encoder@@V?$allocator@Uwhisper_layer_encoder@@@std@@@std@@YAPEAUwhisper_layer_encoder@@QEAU1@0PEAU1@AEAV?$allocator@Uwhisper_layer_encoder@@@0@@Z
	??$_Uninitialized_move@PEAUwhisper_segment@@V?$allocator@Uwhisper_segment@@@std@@@std@@YAPEAUwhisper_segment@@QEAU1@0PEAU1@AEAV?$allocator@Uwhisper_segment@@@0@@Z
	??$_Uninitialized_move@PEAUwhisper_token_data@@V?$allocator@Uwhisper_token_data@@@std@@@std@@YAPEAUwhisper_token_data@@QEAU1@0PEAU1@AEAV?$allocator@Uwhisper_token_data@@@0@@Z
	??$_Uninitialized_move@PEAUwhisper_vad_segment@@V?$allocator@Uwhisper_vad_segment@@@std@@@std@@YAPEAUwhisper_vad_segment@@QEAU1@0PEAU1@AEAV?$allocator@Uwhisper_vad_segment@@@0@@Z
	??$_Uninitialized_move@PEAV?$_Tgt_state_t@PEBD@std@@V?$allocator@V?$_Tgt_state_t@PEBD@std@@@2@@std@@YAPEAV?$_Tgt_state_t@PEBD@0@QEAV10@0PEAV10@AEAV?$allocator@V?$_Tgt_state_t@PEBD@std@@@0@@Z
	??$_Uninitialized_move@PEAV?$_Tgt_state_t@V?$_String_const_iterator@V?$_String_val@U?$_Simple_types@D@std@@@std@@@std@@@std@@V?$allocator@V?$_Tgt_state_t@V?$_String_const_iterator@V?$_String_val@U?$_Simple_types@D@std@@@std@@@std@@@std@@@2@@std@@YAPEAV?$_Tgt_state_t@V?$_String_const_iterator@V?$_String_val@U?$_Simple_types@D@std@@@std@@@std@@@0@QEAV10@0PEAV10@AEAV?$allocator@V?$_Tgt_state_t@V?$_String_const_iterator@V?$_String_val@U?$_Simple_types@D@std@@@std@@@std@@@std@@@0@@Z
	??$_Uninitialized_move@PEAV?$basic_string@DU?$char_traits@D@std@@V?$allocator@D@2@@std@@V?$allocator@V?$basic_string@DU?$char_traits@D@std@@V?$allocator@D@2@@std@@@2@@std@@YAPEAV?$basic_string@DU?$char_traits@D@std@@V?$allocator@D@2@@0@QEAV10@0PEAV10@AEAV?$allocator@V?$basic_string@DU?$char_traits@D@std@@V?$allocator@D@2@@std@@@0@@Z
	??$_Uninitialized_move@PEAV?$sub_match@PEBD@std@@V?$allocator@V?$sub_match@PEBD@std@@@2@@std@@YAPEAV?$sub_match@PEBD@0@QEAV10@0PEAV10@AEAV?$allocator@V?$sub_match@PEBD@std@@@0@@Z
	??$_Uninitialized_move@PEAV?$sub_match@V?$_String_const_iterator@V?$_String_val@U?$_Simple_types@D@std@@@std@@@std@@@std@@V?$allocator@V?$sub_match@V?$_String_const_iterator@V?$_String_val@U?$_Simple_types@D@std@@@std@@@std@@@std@@@2@@std@@YAPEAV?$sub_match@V?$_String_const_iterator@V?$_String_val@U?$_Simple_types@D@std@@@std@@@std@@@0@QEAV10@0PEAV10@AEAV?$allocator@V?$sub_match@V?$_String_const_iterator@V?$_String_val@U?$_Simple_types@D@std@@@std@@@std@@@std@@@0@@Z
	??$_Uninitialized_move@PEAV?$vector@PEBUwhisper_grammar_element@@V?$allocator@PEBUwhisper_grammar_element@@@std@@@std@@V?$allocator@V?$vector@PEBUwhisper_grammar_element@@V?$allocator@PEBUwhisper_grammar_element@@@std@@@std@@@2@@std@@YAPEAV?$vector@PEBUwhisper_grammar_element@@V?$allocator@PEBUwhisper_grammar_element@@@std@@@0@QEAV10@0PEAV10@AEAV?$allocator@V?$vector@PEBUwhisper_grammar_element@@V?$allocator@PEBUwhisper_grammar_element@@@std@@@std@@@0@@Z
	??$_Uninitialized_value_construct_n@V?$allocator@D@std@@@std@@YAPEADPEAD_KAEAV?$allocator@D@0@@Z
	??$_Uninitialized_value_construct_n@V?$allocator@E@std@@@std@@YAPEAEPEAE_KAEAV?$allocator@E@0@@Z
	??$_Uninitialized_value_construct_n@V?$allocator@H@std@@@std@@YAPEAHPEAH_KAEAV?$allocator@H@0@@Z
	??$_Uninitialized_value_construct_n@V?$allocator@M@std@@@std@@YAPEAMPEAM_KAEAV?$allocator@M@0@@Z
	??$_Uninitialized_value_construct_n@V?$allocator@U?$whisper_pair@NH@@@std@@@std@@YAPEAU?$whisper_pair@NH@@PEAU1@_KAEAV?$allocator@U?$whisper_pair@NH@@@0@@Z
	??$_Uninitialized_value_construct_n@V?$allocator@U_Grp_t@?$_Tgt_state_t@PEBD@std@@@std@@@std@@YAPEAU_Grp_t@?$_Tgt_state_t@PEBD@0@PEAU120@_KAEAV?$allocator@U_Grp_t@?$_Tgt_state_t@PEBD@std@@@0@@Z
	??$_Uninitialized_value_construct_n@V?$allocator@U_Grp_t@?$_Tgt_state_t@V?$_String_const_iterator@V?$_String_val@U?$_Simple_types@D@std@@@std@@@std@@@std@@@std@@@std@@YAPEAU_Grp_t@?$_Tgt_state_t@V?$_String_const_iterator@V?$_String_val@U?$_Simple_types@D@std@@@std@@@std@@@0@PEAU120@_KAEAV?$allocator@U_Grp_t@?$_Tgt_state_t@V?$_String_const_iterator@V?$_String_val@U?$_Simple_types@D@std@@@std@@@std@@@std@@@0@@Z
	??$_Uninitialized_value_construct_n@V?$allocator@U_Loop_vals_v2_t@std@@@std@@@std@@YAPEAU_Loop_vals_v2_t@0@PEAU10@_KAEAV?$allocator@U_Loop_vals_v2_t@std@@@0@@Z
	??$_Uninitialized_value_construct_n@V?$allocator@Uwhisper_kv_cell@@@std@@@std@@YAPEAUwhisper_kv_cell@@PEAU1@_KAEAV?$allocator@Uwhisper_kv_cell@@@0@@Z
	??$_Uninitialized_value_construct_n@V?$allocator@Uwhisper_layer_decoder@@@std@@@std@@YAPEAUwhisper_layer_decoder@@PEAU1@_KAEAV?$allocator@Uwhisper_layer_decoder@@@0@@Z
	??$_Uninitialized_value_construct_n@V?$allocator@Uwhisper_layer_encoder@@@std@@@std@@YAPEAUwhisper_layer_encoder@@PEAU1@_KAEAV?$allocator@Uwhisper_layer_encoder@@@0@@Z
	??$_Uninitialized_value_construct_n@V?$allocator@Uwhisper_token_data@@@std@@@std@@YAPEAUwhisper_token_data@@PEAU1@_KAEAV?$allocator@Uwhisper_token_data@@@0@@Z
	??$_Uninitialized_value_construct_n@V?$allocator@Uwhisper_vad_segment@@@std@@@std@@YAPEAUwhisper_vad_segment@@PEAU1@_KAEAV?$allocator@Uwhisper_vad_segment@@@0@@Z
	??$_Uninitialized_value_construct_n@V?$allocator@V?$sub_match@PEBD@std@@@std@@@std@@YAPEAV?$sub_match@PEBD@0@PEAV10@_KAEAV?$allocator@V?$sub_match@PEBD@std@@@0@@Z
	??$_Uninitialized_value_construct_n@V?$allocator@V?$sub_match@V?$_String_const_iterator@V?$_String_val@U?$_Simple_types@D@std@@@std@@@std@@@std@@@std@@@std@@YAPEAV?$sub_match@V?$_String_const_iterator@V?$_String_val@U?$_Simple_types@D@std@@@std@@@std@@@0@PEAV10@_KAEAV?$allocator@V?$sub_match@V?$_String_const_iterator@V?$_String_val@U?$_Simple_types@D@std@@@std@@@std@@@std@@@0@@Z
	??$_Uninitialized_value_construct_n@V?$allocator@V?$vector@Uwhisper_grammar_element@@V?$allocator@Uwhisper_grammar_element@@@std@@@std@@@std@@@std@@YAPEAV?$vector@Uwhisper_grammar_element@@V?$allocator@Uwhisper_grammar_element@@@std@@@0@PEAV10@_KAEAV?$allocator@V?$vector@Uwhisper_grammar_element@@V?$allocator@Uwhisper_grammar_element@@@std@@@std@@@0@@Z
	??$_Uninitialized_value_construct_n@V?$allocator@Vthread@std@@@std@@@std@@YAPEAVthread@0@PEAV10@_KAEAV?$allocator@Vthread@std@@@0@@Z
	??$_Verify_ranges_do_not_overlap@PEBMPEBMV?$_Vector_iterator@V?$_Vector_val@U?$_Simple_types@M@std@@@std@@@std@@@std@@YAXAEBQEBM0AEBV?$_Vector_iterator@V?$_Vector_val@U?$_Simple_types@M@std@@@std@@@0@@Z
	??$_Zero_range@PEAD@std@@YAPEADQEAD0@Z
	??$_Zero_range@PEAE@std@@YAPEAEQEAE0@Z
	??$_Zero_range@PEAH@std@@YAPEAHQEAH0@Z
	??$_Zero_range@PEAM@std@@YAPEAMQEAM0@Z
	??$addressof@$$CBD@std@@YAPEBDAEBD@Z
	??$addressof@$$CBU?$pair@$$CBV?$basic_string@DU?$char_traits@D@std@@V?$allocator@D@2@@std@@H@std@@@std@@YAPEBU?$pair@$$CBV?$basic_string@DU?$char_traits@D@std@@V?$allocator@D@2@@std@@H@0@AEBU10@@Z
	??$addressof@$$CBUwhisper_filters@@@std@@YAPEBUwhisper_filters@@AEBU1@@Z
	??$addressof@$$CBV?$_String_val@U?$_Simple_types@D@std@@@std@@@std@@YAPEBV?$_String_val@U?$_Simple_types@D@std@@@0@AEBV10@@Z
	??$addressof@$$CBV?$_Tree_val@U?$_Tree_simple_types@H@std@@@std@@@std@@YAPEBV?$_Tree_val@U?$_Tree_simple_types@H@std@@@0@AEBV10@@Z
	??$addressof@$$CBV?$_Tree_val@U?$_Tree_simple_types@U?$pair@$$CBHH@std@@@std@@@std@@@std@@YAPEBV?$_Tree_val@U?$_Tree_simple_types@U?$pair@$$CBHH@std@@@std@@@0@AEBV10@@Z
	??$addressof@$$CBV?$_Tree_val@U?$_Tree_simple_types@U?$pair@$$CBHV?$basic_string@DU?$char_traits@D@std@@V?$allocator@D@2@@std@@@std@@@std@@@std@@@std@@YAPEBV?$_Tree_val@U?$_Tree_simple_types@U?$pair@$$CBHV?$basic_string@DU?$char_traits@D@std@@V?$allocator@D@2@@std@@@std@@@std@@@0@AEBV10@@Z
	??$addressof@$$CBV?$_Tree_val@U?$_Tree_simple_types@U?$pair@$$CBV?$basic_string@DU?$char_traits@D@std@@V?$allocator@D@2@@std@@H@std@@@std@@@std@@@std@@YAPEBV?$_Tree_val@U?$_Tree_simple_types@U?$pair@$$CBV?$basic_string@DU?$char_traits@D@std@@V?$allocator@D@2@@std@@H@std@@@std@@@0@AEBV10@@Z
	??$addressof@$$CBV?$_Tree_val@U?$_Tree_simple_types@U?$pair@$$CBV?$basic_string@DU?$char_traits@D@std@@V?$allocator@D@2@@std@@PEAUggml_tensor@@@std@@@std@@@std@@@std@@YAPEBV?$_Tree_val@U?$_Tree_simple_types@U?$pair@$$CBV?$basic_string@DU?$char_traits@D@std@@V?$allocator@D@2@@std@@PEAUggml_tensor@@@std@@@std@@@0@AEBV10@@Z
	??$addressof@$$CBV?$_Tree_val@U?$_Tree_simple_types@U?$pair@$$CBV?$basic_string@DU?$char_traits@D@std@@V?$allocator@D@2@@std@@U?$pair@HV?$basic_string@DU?$char_traits@D@std@@V?$allocator@D@2@@std@@@2@@std@@@std@@@std@@@std@@YAPEBV?$_Tree_val@U?$_Tree_simple_types@U?$pair@$$CBV?$basic_string@DU?$char_traits@D@std@@V?$allocator@D@2@@std@@U?$pair@HV?$basic_string@DU?$char_traits@D@std@@V?$allocator@D@2@@std@@@2@@std@@@std@@@0@AEBV10@@Z
	??$addressof@$$CBV?$_Tree_val@U?$_Tree_simple_types@U?$pair@$$CBW4asr_system@@V?$map@W4asr_tensor@@PEBDU?$less@W4asr_tensor@@@std@@V?$allocator@U?$pair@$$CBW4asr_tensor@@PEBD@std@@@3@@std@@@std@@@std@@@std@@@std@@YAPEBV?$_Tree_val@U?$_Tree_simple_types@U?$pair@$$CBW4asr_system@@V?$map@W4asr_tensor@@PEBDU?$less@W4asr_tensor@@@std@@V?$allocator@U?$pair@$$CBW4asr_tensor@@PEBD@std@@@3@@std@@@std@@@std@@@0@AEBV10@@Z
	??$addressof@$$CBV?$_Tree_val@U?$_Tree_simple_types@U?$pair@$$CBW4asr_tensor@@PEBD@std@@@std@@@std@@@std@@YAPEBV?$_Tree_val@U?$_Tree_simple_types@U?$pair@$$CBW4asr_tensor@@PEBD@std@@@std@@@0@AEBV10@@Z
	??$addressof@$$CBV?$_Tree_val@U?$_Tree_simple_types@U?$pair@$$CBW4asr_tensor@@W4ggml_op@@@std@@@std@@@std@@@std@@YAPEBV?$_Tree_val@U?$_Tree_simple_types@U?$pair@$$CBW4asr_tensor@@W4ggml_op@@@std@@@std@@@0@AEBV10@@Z
	??$addressof@$$CBV?$_Tree_val@U?$_Tree_simple_types@U?$pair@$$CBW4e_model@@V?$basic_string@DU?$char_traits@D@std@@V?$allocator@D@2@@std@@@std@@@std@@@std@@@std@@YAPEBV?$_Tree_val@U?$_Tree_simple_types@U?$pair@$$CBW4e_model@@V?$basic_string@DU?$char_traits@D@std@@V?$allocator@D@2@@std@@@std@@@std@@@0@AEBV10@@Z
	??$addressof@$$CBV?$_Tree_val@U?$_Tree_simple_types@U?$pair@$$CBW4vad_tensor@@PEBD@std@@@std@@@std@@@std@@YAPEBV?$_Tree_val@U?$_Tree_simple_types@U?$pair@$$CBW4vad_tensor@@PEBD@std@@@std@@@0@AEBV10@@Z
	??$addressof@$$CBV?$_Tree_val@U?$_Tree_simple_types@U?$pair@$$CBW4vad_tensor@@W4ggml_op@@@std@@@std@@@std@@@std@@YAPEBV?$_Tree_val@U?$_Tree_simple_types@U?$pair@$$CBW4vad_tensor@@W4ggml_op@@@std@@@std@@@0@AEBV10@@Z
	??$addressof@$$CBV?$_Tree_val@U?$_Tree_simple_types@U?$pair@$$CBW4whisper_alignment_heads_preset@@Uwhisper_aheads@@@std@@@std@@@std@@@std@@YAPEBV?$_Tree_val@U?$_Tree_simple_types@U?$pair@$$CBW4whisper_alignment_heads_preset@@Uwhisper_aheads@@@std@@@std@@@0@AEBV10@@Z
	??$addressof@$$CBV?$_Tree_val@U?$_Tree_simple_types@U?$pair@QEAUggml_backend_buffer_type@@PEAUggml_context@@@std@@@std@@@std@@@std@@YAPEBV?$_Tree_val@U?$_Tree_simple_types@U?$pair@QEAUggml_backend_buffer_type@@PEAUggml_context@@@std@@@std@@@0@AEBV10@@Z
	??$addressof@$$CBV?$_Vector_val@U?$_Simple_types@I@std@@@std@@@std@@YAPEBV?$_Vector_val@U?$_Simple_types@I@std@@@0@AEBV10@@Z
	??$addressof@$$CBV?$_Vector_val@U?$_Simple_types@M@std@@@std@@@std@@YAPEBV?$_Vector_val@U?$_Simple_types@M@std@@@0@AEBV10@@Z
	??$addressof@$$CBV?$_Vector_val@U?$_Simple_types@N@std@@@std@@@std@@YAPEBV?$_Vector_val@U?$_Simple_types@N@std@@@0@AEBV10@@Z
	??$addressof@$$CBV?$_Vector_val@U?$_Simple_types@PEBUwhisper_grammar_element@@@std@@@std@@@std@@YAPEBV?$_Vector_val@U?$_Simple_types@PEBUwhisper_grammar_element@@@std@@@0@AEBV10@@Z
	??$addressof@$$CBV?$_Vector_val@U?$_Simple_types@Uvad_time_mapping@@@std@@@std@@@std@@YAPEBV?$_Vector_val@U?$_Simple_types@Uvad_time_mapping@@@std@@@0@AEBV10@@Z
	??$addressof@$$CBV?$basic_string@DU?$char_traits@D@std@@V?$allocator@D@2@@std@@@std@@YAPEBV?$basic_string@DU?$char_traits@D@std@@V?$allocator@D@2@@0@AEBV10@@Z
	??$addressof@$$CBV?$codecvt@DDU_Mbstatet@@@std@@@std@@YAPEBV?$codecvt@DDU_Mbstatet@@@0@AEBV10@@Z
	??$addressof@$$CBV?$collate@D@std@@@std@@YAPEBV?$collate@D@0@AEBV10@@Z
	??$addressof@$$CBV?$ctype@D@std@@@std@@YAPEBV?$ctype@D@0@AEBV10@@Z
	??$addressof@$$CBV?$vector@IV?$allocator@I@std@@@std@@@std@@YAPEBV?$vector@IV?$allocator@I@std@@@0@AEBV10@@Z
	??$addressof@$$CBV?$vector@MV?$allocator@M@std@@@std@@@std@@YAPEBV?$vector@MV?$allocator@M@std@@@0@AEBV10@@Z
	??$addressof@$$CBV?$vector@PEBUwhisper_grammar_element@@V?$allocator@PEBUwhisper_grammar_element@@@std@@@std@@@std@@YAPEBV?$vector@PEBUwhisper_grammar_element@@V?$allocator@PEBUwhisper_grammar_element@@@std@@@0@AEBV10@@Z
	??$addressof@$$CBV?$vector@U_Grp_t@?$_Tgt_state_t@PEBD@std@@V?$allocator@U_Grp_t@?$_Tgt_state_t@PEBD@std@@@3@@std@@@std@@YAPEBV?$vector@U_Grp_t@?$_Tgt_state_t@PEBD@std@@V?$allocator@U_Grp_t@?$_Tgt_state_t@PEBD@std@@@3@@0@AEBV10@@Z
	??$addressof@$$CBV?$vector@U_Grp_t@?$_Tgt_state_t@V?$_String_const_iterator@V?$_String_val@U?$_Simple_types@D@std@@@std@@@std@@@std@@V?$allocator@U_Grp_t@?$_Tgt_state_t@V?$_String_const_iterator@V?$_String_val@U?$_Simple_types@D@std@@@std@@@std@@@std@@@3@@std@@@std@@YAPEBV?$vector@U_Grp_t@?$_Tgt_state_t@V?$_String_const_iterator@V?$_String_val@U?$_Simple_types@D@std@@@std@@@std@@@std@@V?$allocator@U_Grp_t@?$_Tgt_state_t@V?$_String_const_iterator@V?$_String_val@U?$_Simple_types@D@std@@@std@@@std@@@std@@@3@@0@AEBV10@@Z
	??$addressof@$$CBV?$vector@Uwhisper_grammar_element@@V?$allocator@Uwhisper_grammar_element@@@std@@@std@@@std@@YAPEBV?$vector@Uwhisper_grammar_element@@V?$allocator@Uwhisper_grammar_element@@@std@@@0@AEBV10@@Z
	??$addressof@$$CBV?$vector@Uwhisper_token_data@@V?$allocator@Uwhisper_token_data@@@std@@@std@@@std@@YAPEBV?$vector@Uwhisper_token_data@@V?$allocator@Uwhisper_token_data@@@std@@@0@AEBV10@@Z
	??$addressof@$$CBV?$vector@V?$vector@PEBUwhisper_grammar_element@@V?$allocator@PEBUwhisper_grammar_element@@@std@@@std@@V?$allocator@V?$vector@PEBUwhisper_grammar_element@@V?$allocator@PEBUwhisper_grammar_element@@@std@@@std@@@2@@std@@@std@@YAPEBV?$vector@V?$vector@PEBUwhisper_grammar_element@@V?$allocator@PEBUwhisper_grammar_element@@@std@@@std@@V?$allocator@V?$vector@PEBUwhisper_grammar_element@@V?$allocator@PEBUwhisper_grammar_element@@@std@@@std@@@2@@0@AEBV10@@Z
	??$addressof@$$CBV?$vector@V?$vector@Uwhisper_grammar_element@@V?$allocator@Uwhisper_grammar_element@@@std@@@std@@V?$allocator@V?$vector@Uwhisper_grammar_element@@V?$allocator@Uwhisper_grammar_element@@@std@@@std@@@2@@std@@@std@@YAPEBV?$vector@V?$vector@Uwhisper_grammar_element@@V?$allocator@Uwhisper_grammar_element@@@std@@@std@@V?$allocator@V?$vector@Uwhisper_grammar_element@@V?$allocator@Uwhisper_grammar_element@@@std@@@std@@@2@@0@AEBV10@@Z
	??$addressof@$$CBV?$vector@_NV?$allocator@_N@std@@@std@@@std@@YAPEBV?$vector@_NV?$allocator@_N@std@@@0@AEBV10@@Z
	??$addressof@D@std@@YAPEADAEAD@Z
	??$addressof@H@std@@YAPEAHAEAH@Z
	??$addressof@I@std@@YAPEAIAEAI@Z
	??$addressof@M@std@@YAPEAMAEAM@Z
	??$addressof@N@std@@YAPEANAEAN@Z
	??$addressof@PEAD@std@@YAPEAPEADAEAPEAD@Z
	??$addressof@PEAU?$_Sequence@D@std@@@std@@YAPEAPEAU?$_Sequence@D@0@AEAPEAU10@@Z
	??$addressof@PEAU?$_Tree_node@HPEAX@std@@@std@@YAPEAPEAU?$_Tree_node@HPEAX@0@AEAPEAU10@@Z
	??$addressof@PEAU?$_Tree_node@U?$pair@$$CBHH@std@@PEAX@std@@@std@@YAPEAPEAU?$_Tree_node@U?$pair@$$CBHH@std@@PEAX@0@AEAPEAU10@@Z
	??$addressof@PEAU?$_Tree_node@U?$pair@$$CBHV?$basic_string@DU?$char_traits@D@std@@V?$allocator@D@2@@std@@@std@@PEAX@std@@@std@@YAPEAPEAU?$_Tree_node@U?$pair@$$CBHV?$basic_string@DU?$char_traits@D@std@@V?$allocator@D@2@@std@@@std@@PEAX@0@AEAPEAU10@@Z
	??$addressof@PEAU?$_Tree_node@U?$pair@$$CBV?$basic_string@DU?$char_traits@D@std@@V?$allocator@D@2@@std@@H@std@@PEAX@std@@@std@@YAPEAPEAU?$_Tree_node@U?$pair@$$CBV?$basic_string@DU?$char_traits@D@std@@V?$allocator@D@2@@std@@H@std@@PEAX@0@AEAPEAU10@@Z
	??$addressof@PEAU?$_Tree_node@U?$pair@$$CBV?$basic_string@DU?$char_traits@D@std@@V?$allocator@D@2@@std@@PEAUggml_tensor@@@std@@PEAX@std@@@std@@YAPEAPEAU?$_Tree_node@U?$pair@$$CBV?$basic_string@DU?$char_traits@D@std@@V?$allocator@D@2@@std@@PEAUggml_tensor@@@std@@PEAX@0@AEAPEAU10@@Z
	??$addressof@PEAU?$_Tree_node@U?$pair@$$CBV?$basic_string@DU?$char_traits@D@std@@V?$allocator@D@2@@std@@U?$pair@HV?$basic_string@DU?$char_traits@D@std@@V?$allocator@D@2@@std@@@2@@std@@PEAX@std@@@std@@YAPEAPEAU?$_Tree_node@U?$pair@$$CBV?$basic_string@DU?$char_traits@D@std@@V?$allocator@D@2@@std@@U?$pair@HV?$basic_string@DU?$char_traits@D@std@@V?$allocator@D@2@@std@@@2@@std@@PEAX@0@AEAPEAU10@@Z
	??$addressof@PEAU?$_Tree_node@U?$pair@$$CBW4asr_system@@V?$map@W4asr_tensor@@PEBDU?$less@W4asr_tensor@@@std@@V?$allocator@U?$pair@$$CBW4asr_tensor@@PEBD@std@@@3@@std@@@std@@PEAX@std@@@std@@YAPEAPEAU?$_Tree_node@U?$pair@$$CBW4asr_system@@V?$map@W4asr_tensor@@PEBDU?$less@W4asr_tensor@@@std@@V?$allocator@U?$pair@$$CBW4asr_tensor@@PEBD@std@@@3@@std@@@std@@PEAX@0@AEAPEAU10@@Z
	??$addressof@PEAU?$_Tree_node@U?$pair@$$CBW4asr_tensor@@PEBD@std@@PEAX@std@@@std@@YAPEAPEAU?$_Tree_node@U?$pair@$$CBW4asr_tensor@@PEBD@std@@PEAX@0@AEAPEAU10@@Z
	??$addressof@PEAU?$_Tree_node@U?$pair@$$CBW4asr_tensor@@W4ggml_op@@@std@@PEAX@std@@@std@@YAPEAPEAU?$_Tree_node@U?$pair@$$CBW4asr_tensor@@W4ggml_op@@@std@@PEAX@0@AEAPEAU10@@Z
	??$addressof@PEAU?$_Tree_node@U?$pair@$$CBW4e_model@@V?$basic_string@DU?$char_traits@D@std@@V?$allocator@D@2@@std@@@std@@PEAX@std@@@std@@YAPEAPEAU?$_Tree_node@U?$pair@$$CBW4e_model@@V?$basic_string@DU?$char_traits@D@std@@V?$allocator@D@2@@std@@@std@@PEAX@0@AEAPEAU10@@Z
	??$addressof@PEAU?$_Tree_node@U?$pair@$$CBW4vad_tensor@@PEBD@std@@PEAX@std@@@std@@YAPEAPEAU?$_Tree_node@U?$pair@$$CBW4vad_tensor@@PEBD@std@@PEAX@0@AEAPEAU10@@Z
	??$addressof@PEAU?$_Tree_node@U?$pair@$$CBW4vad_tensor@@W4ggml_op@@@std@@PEAX@std@@@std@@YAPEAPEAU?$_Tree_node@U?$pair@$$CBW4vad_tensor@@W4ggml_op@@@std@@PEAX@0@AEAPEAU10@@Z
	??$addressof@PEAU?$_Tree_node@U?$pair@$$CBW4whisper_alignment_heads_preset@@Uwhisper_aheads@@@std@@PEAX@std@@@std@@YAPEAPEAU?$_Tree_node@U?$pair@$$CBW4whisper_alignment_heads_preset@@Uwhisper_aheads@@@std@@PEAX@0@AEAPEAU10@@Z
	??$addressof@PEAU?$_Tree_node@U?$pair@QEAUggml_backend_buffer_type@@PEAUggml_context@@@std@@PEAX@std@@@std@@YAPEAPEAU?$_Tree_node@U?$pair@QEAUggml_backend_buffer_type@@PEAUggml_context@@@std@@PEAX@0@AEAPEAU10@@Z
	??$addressof@PEAUggml_backend@@@std@@YAPEAPEAUggml_backend@@AEAPEAU1@@Z
	??$addressof@PEAUggml_backend_buffer@@@std@@YAPEAPEAUggml_backend_buffer@@AEAPEAU1@@Z
	??$addressof@PEAUggml_context@@@std@@YAPEAPEAUggml_context@@AEAPEAU1@@Z
	??$addressof@PEAUggml_tensor@@@std@@YAPEAPEAUggml_tensor@@AEAPEAU1@@Z
	??$addressof@PEAUwhisper_state@@@std@@YAPEAPEAUwhisper_state@@AEAPEAU1@@Z
	??$addressof@PEA_W@std@@YAPEAPEA_WAEAPEA_W@Z
	??$addressof@PEBUwhisper_grammar_element@@@std@@YAPEAPEBUwhisper_grammar_element@@AEAPEBU1@@Z
	??$addressof@U?$pair@$$CBHH@std@@@std@@YAPEAU?$pair@$$CBHH@0@AEAU10@@Z
	??$addressof@U?$pair@$$CBHV?$basic_string@DU?$char_traits@D@std@@V?$allocator@D@2@@std@@@std@@@std@@YAPEAU?$pair@$$CBHV?$basic_string@DU?$char_traits@D@std@@V?$allocator@D@2@@std@@@0@AEAU10@@Z
	??$addressof@U?$pair@$$CBV?$basic_string@DU?$char_traits@D@std@@V?$allocator@D@2@@std@@H@std@@@std@@YAPEAU?$pair@$$CBV?$basic_string@DU?$char_traits@D@std@@V?$allocator@D@2@@std@@H@0@AEAU10@@Z
	??$addressof@U?$pair@$$CBV?$basic_string@DU?$char_traits@D@std@@V?$allocator@D@2@@std@@PEAUggml_tensor@@@std@@@std@@YAPEAU?$pair@$$CBV?$basic_string@DU?$char_traits@D@std@@V?$allocator@D@2@@std@@PEAUggml_tensor@@@0@AEAU10@@Z
	??$addressof@U?$pair@$$CBV?$basic_string@DU?$char_traits@D@std@@V?$allocator@D@2@@std@@U?$pair@HV?$basic_string@DU?$char_traits@D@std@@V?$allocator@D@2@@std@@@2@@std@@@std@@YAPEAU?$pair@$$CBV?$basic_string@DU?$char_traits@D@std@@V?$allocator@D@2@@std@@U?$pair@HV?$basic_string@DU?$char_traits@D@std@@V?$allocator@D@2@@std@@@2@@0@AEAU10@@Z
	??$addressof@U?$pair@$$CBW4asr_system@@V?$map@W4asr_tensor@@PEBDU?$less@W4asr_tensor@@@std@@V?$allocator@U?$pair@$$CBW4asr_tensor@@PEBD@std@@@3@@std@@@std@@@std@@YAPEAU?$pair@$$CBW4asr_system@@V?$map@W4asr_tensor@@PEBDU?$less@W4asr_tensor@@@std@@V?$allocator@U?$pair@$$CBW4asr_tensor@@PEBD@std@@@3@@std@@@0@AEAU10@@Z
	??$addressof@U?$pair@$$CBW4asr_tensor@@PEBD@std@@@std@@YAPEAU?$pair@$$CBW4asr_tensor@@PEBD@0@AEAU10@@Z
	??$addressof@U?$pair@$$CBW4asr_tensor@@W4ggml_op@@@std@@@std@@YAPEAU?$pair@$$CBW4asr_tensor@@W4ggml_op@@@0@AEAU10@@Z
	??$addressof@U?$pair@$$CBW4e_model@@V?$basic_string@DU?$char_traits@D@std@@V?$allocator@D@2@@std@@@std@@@std@@YAPEAU?$pair@$$CBW4e_model@@V?$basic_string@DU?$char_traits@D@std@@V?$allocator@D@2@@std@@@0@AEAU10@@Z
	??$addressof@U?$pair@$$CBW4vad_tensor@@PEBD@std@@@std@@YAPEAU?$pair@$$CBW4vad_tensor@@PEBD@0@AEAU10@@Z
	??$addressof@U?$pair@$$CBW4vad_tensor@@W4ggml_op@@@std@@@std@@YAPEAU?$pair@$$CBW4vad_tensor@@W4ggml_op@@@0@AEAU10@@Z
	??$addressof@U?$pair@$$CBW4whisper_alignment_heads_preset@@Uwhisper_aheads@@@std@@@std@@YAPEAU?$pair@$$CBW4whisper_alignment_heads_preset@@Uwhisper_aheads@@@0@AEAU10@@Z
	??$addressof@U?$pair@PEAUggml_backend_device@@PEAUggml_backend_buffer_type@@@std@@@std@@YAPEAU?$pair@PEAUggml_backend_device@@PEAUggml_backend_buffer_type@@@0@AEAU10@@Z
	??$addressof@U?$pair@QEAUggml_backend_buffer_type@@PEAUggml_context@@@std@@@std@@YAPEAU?$pair@QEAUggml_backend_buffer_type@@PEAUggml_context@@@0@AEAU10@@Z
	??$addressof@U?$pair@V?$vector@IV?$allocator@I@std@@@std@@Uwhisper_partial_utf8@@@std@@@std@@YAPEAU?$pair@V?$vector@IV?$allocator@I@std@@@std@@Uwhisper_partial_utf8@@@0@AEAU10@@Z
	??$addressof@Uvad_segment_info@whisper_state@@@std@@YAPEAUvad_segment_info@whisper_state@@AEAU12@@Z
	??$addressof@Uvad_time_mapping@@@std@@YAPEAUvad_time_mapping@@AEAU1@@Z
	??$addressof@Uwhisper_grammar_candidate@@@std@@YAPEAUwhisper_grammar_candidate@@AEAU1@@Z
	??$addressof@Uwhisper_grammar_element@@@std@@YAPEAUwhisper_grammar_element@@AEAU1@@Z
	??$addressof@Uwhisper_mel@@@std@@YAPEAUwhisper_mel@@AEAU1@@Z
	??$addressof@Uwhisper_segment@@@std@@YAPEAUwhisper_segment@@AEAU1@@Z
	??$addressof@Uwhisper_token_data@@@std@@YAPEAUwhisper_token_data@@AEAU1@@Z
	??$addressof@V?$_Builder2@PEBDDV?$regex_traits@D@std@@@std@@@std@@YAPEAV?$_Builder2@PEBDDV?$regex_traits@D@std@@@0@AEAV10@@Z
	??$addressof@V?$_String_val@U?$_Simple_types@D@std@@@std@@@std@@YAPEAV?$_String_val@U?$_Simple_types@D@std@@@0@AEAV10@@Z
	??$addressof@V?$_String_val@U?$_Simple_types@_W@std@@@std@@@std@@YAPEAV?$_String_val@U?$_Simple_types@_W@std@@@0@AEAV10@@Z
	??$addressof@V?$_Tree_val@U?$_Tree_simple_types@H@std@@@std@@@std@@YAPEAV?$_Tree_val@U?$_Tree_simple_types@H@std@@@0@AEAV10@@Z
	??$addressof@V?$_Tree_val@U?$_Tree_simple_types@U?$pair@$$CBHH@std@@@std@@@std@@@std@@YAPEAV?$_Tree_val@U?$_Tree_simple_types@U?$pair@$$CBHH@std@@@std@@@0@AEAV10@@Z
	??$addressof@V?$_Tree_val@U?$_Tree_simple_types@U?$pair@$$CBHV?$basic_string@DU?$char_traits@D@std@@V?$allocator@D@2@@std@@@std@@@std@@@std@@@std@@YAPEAV?$_Tree_val@U?$_Tree_simple_types@U?$pair@$$CBHV?$basic_string@DU?$char_traits@D@std@@V?$allocator@D@2@@std@@@std@@@std@@@0@AEAV10@@Z
	??$addressof@V?$_Tree_val@U?$_Tree_simple_types@U?$pair@$$CBV?$basic_string@DU?$char_traits@D@std@@V?$allocator@D@2@@std@@H@std@@@std@@@std@@@std@@YAPEAV?$_Tree_val@U?$_Tree_simple_types@U?$pair@$$CBV?$basic_string@DU?$char_traits@D@std@@V?$allocator@D@2@@std@@H@std@@@std@@@0@AEAV10@@Z
	??$addressof@V?$_Tree_val@U?$_Tree_simple_types@U?$pair@$$CBV?$basic_string@DU?$char_traits@D@std@@V?$allocator@D@2@@std@@PEAUggml_tensor@@@std@@@std@@@std@@@std@@YAPEAV?$_Tree_val@U?$_Tree_simple_types@U?$pair@$$CBV?$basic_string@DU?$char_traits@D@std@@V?$allocator@D@2@@std@@PEAUggml_tensor@@@std@@@std@@@0@AEAV10@@Z
	??$addressof@V?$_Tree_val@U?$_Tree_simple_types@U?$pair@$$CBV?$basic_string@DU?$char_traits@D@std@@V?$allocator@D@2@@std@@U?$pair@HV?$basic_string@DU?$char_traits@D@std@@V?$allocator@D@2@@std@@@2@@std@@@std@@@std@@@std@@YAPEAV?$_Tree_val@U?$_Tree_simple_types@U?$pair@$$CBV?$basic_string@DU?$char_traits@D@std@@V?$allocator@D@2@@std@@U?$pair@HV?$basic_string@DU?$char_traits@D@std@@V?$allocator@D@2@@std@@@2@@std@@@std@@@0@AEAV10@@Z
	??$addressof@V?$_Tree_val@U?$_Tree_simple_types@U?$pair@$$CBW4asr_system@@V?$map@W4asr_tensor@@PEBDU?$less@W4asr_tensor@@@std@@V?$allocator@U?$pair@$$CBW4asr_tensor@@PEBD@std@@@3@@std@@@std@@@std@@@std@@@std@@YAPEAV?$_Tree_val@U?$_Tree_simple_types@U?$pair@$$CBW4asr_system@@V?$map@W4asr_tensor@@PEBDU?$less@W4asr_tensor@@@std@@V?$allocator@U?$pair@$$CBW4asr_tensor@@PEBD@std@@@3@@std@@@std@@@std@@@0@AEAV10@@Z
	??$addressof@V?$_Tree_val@U?$_Tree_simple_types@U?$pair@$$CBW4asr_tensor@@PEBD@std@@@std@@@std@@@std@@YAPEAV?$_Tree_val@U?$_Tree_simple_types@U?$pair@$$CBW4asr_tensor@@PEBD@std@@@std@@@0@AEAV10@@Z
	??$addressof@V?$_Tree_val@U?$_Tree_simple_types@U?$pair@$$CBW4asr_tensor@@W4ggml_op@@@std@@@std@@@std@@@std@@YAPEAV?$_Tree_val@U?$_Tree_simple_types@U?$pair@$$CBW4asr_tensor@@W4ggml_op@@@std@@@std@@@0@AEAV10@@Z
	??$addressof@V?$_Tree_val@U?$_Tree_simple_types@U?$pair@$$CBW4e_model@@V?$basic_string@DU?$char_traits@D@std@@V?$allocator@D@2@@std@@@std@@@std@@@std@@@std@@YAPEAV?$_Tree_val@U?$_Tree_simple_types@U?$pair@$$CBW4e_model@@V?$basic_string@DU?$char_traits@D@std@@V?$allocator@D@2@@std@@@std@@@std@@@0@AEAV10@@Z
	??$addressof@V?$_Tree_val@U?$_Tree_simple_types@U?$pair@$$CBW4vad_tensor@@PEBD@std@@@std@@@std@@@std@@YAPEAV?$_Tree_val@U?$_Tree_simple_types@U?$pair@$$CBW4vad_tensor@@PEBD@std@@@std@@@0@AEAV10@@Z
	??$addressof@V?$_Tree_val@U?$_Tree_simple_types@U?$pair@$$CBW4vad_tensor@@W4ggml_op@@@std@@@std@@@std@@@std@@YAPEAV?$_Tree_val@U?$_Tree_simple_types@U?$pair@$$CBW4vad_tensor@@W4ggml_op@@@std@@@std@@@0@AEAV10@@Z
	??$addressof@V?$_Tree_val@U?$_Tree_simple_types@U?$pair@$$CBW4whisper_alignment_heads_preset@@Uwhisper_aheads@@@std@@@std@@@std@@@std@@YAPEAV?$_Tree_val@U?$_Tree_simple_types@U?$pair@$$CBW4whisper_alignment_heads_preset@@Uwhisper_aheads@@@std@@@std@@@0@AEAV10@@Z
	??$addressof@V?$_Tree_val@U?$_Tree_simple_types@U?$pair@QEAUggml_backend_buffer_type@@PEAUggml_context@@@std@@@std@@@std@@@std@@YAPEAV?$_Tree_val@U?$_Tree_simple_types@U?$pair@QEAUggml_backend_buffer_type@@PEAUggml_context@@@std@@@std@@@0@AEAV10@@Z
	??$addressof@V?$_Vector_val@U?$_Simple_types@H@std@@@std@@@std@@YAPEAV?$_Vector_val@U?$_Simple_types@H@std@@@0@AEAV10@@Z
	??$addressof@V?$_Vector_val@U?$_Simple_types@I@std@@@std@@@std@@YAPEAV?$_Vector_val@U?$_Simple_types@I@std@@@0@AEAV10@@Z
	??$addressof@V?$_Vector_val@U?$_Simple_types@M@std@@@std@@@std@@YAPEAV?$_Vector_val@U?$_Simple_types@M@std@@@0@AEAV10@@Z
	??$addressof@V?$_Vector_val@U?$_Simple_types@U?$whisper_pair@NH@@@std@@@std@@@std@@YAPEAV?$_Vector_val@U?$_Simple_types@U?$whisper_pair@NH@@@std@@@0@AEAV10@@Z
	??$addressof@V?$_Vector_val@U?$_Simple_types@Uvad_time_mapping@@@std@@@std@@@std@@YAPEAV?$_Vector_val@U?$_Simple_types@Uvad_time_mapping@@@std@@@0@AEAV10@@Z
	??$addressof@V?$_Vector_val@U?$_Simple_types@Uwhisper_segment@@@std@@@std@@@std@@YAPEAV?$_Vector_val@U?$_Simple_types@Uwhisper_segment@@@std@@@0@AEAV10@@Z
	??$addressof@V?$_Vector_val@U?$_Simple_types@Uwhisper_token_data@@@std@@@std@@@std@@YAPEAV?$_Vector_val@U?$_Simple_types@Uwhisper_token_data@@@std@@@0@AEAV10@@Z
	??$addressof@V?$basic_filebuf@DU?$char_traits@D@std@@@std@@@std@@YAPEAV?$basic_filebuf@DU?$char_traits@D@std@@@0@AEAV10@@Z
	??$addressof@V?$basic_ostream@DU?$char_traits@D@std@@@std@@@std@@YAPEAV?$basic_ostream@DU?$char_traits@D@std@@@0@AEAV10@@Z
	??$addressof@V?$basic_string@DU?$char_traits@D@std@@V?$allocator@D@2@@std@@@std@@YAPEAV?$basic_string@DU?$char_traits@D@std@@V?$allocator@D@2@@0@AEAV10@@Z
	??$addressof@V?$match_results@V?$_String_const_iterator@V?$_String_val@U?$_Simple_types@D@std@@@std@@@std@@V?$allocator@V?$sub_match@V?$_String_const_iterator@V?$_String_val@U?$_Simple_types@D@std@@@std@@@std@@@std@@@2@@std@@@std@@YAPEAV?$match_results@V?$_String_const_iterator@V?$_String_val@U?$_Simple_types@D@std@@@std@@@std@@V?$allocator@V?$sub_match@V?$_String_const_iterator@V?$_String_val@U?$_Simple_types@D@std@@@std@@@std@@@std@@@2@@0@AEAV10@@Z
	??$addressof@V?$vector@MV?$allocator@M@std@@@std@@@std@@YAPEAV?$vector@MV?$allocator@M@std@@@0@AEAV10@@Z
	??$addressof@V?$vector@PEAUggml_backend@@V?$allocator@PEAUggml_backend@@@std@@@std@@@std@@YAPEAV?$vector@PEAUggml_backend@@V?$allocator@PEAUggml_backend@@@std@@@0@AEAV10@@Z
	??$addressof@V?$vector@PEBUwhisper_grammar_element@@V?$allocator@PEBUwhisper_grammar_element@@@std@@@std@@@std@@YAPEAV?$vector@PEBUwhisper_grammar_element@@V?$allocator@PEBUwhisper_grammar_element@@@std@@@0@AEAV10@@Z
	??$addressof@V?$vector@Uwhisper_grammar_candidate@@V?$allocator@Uwhisper_grammar_candidate@@@std@@@std@@@std@@YAPEAV?$vector@Uwhisper_grammar_candidate@@V?$allocator@Uwhisper_grammar_candidate@@@std@@@0@AEAV10@@Z
	??$addressof@V?$vector@Uwhisper_token_data@@V?$allocator@Uwhisper_token_data@@@std@@@std@@@std@@YAPEAV?$vector@Uwhisper_token_data@@V?$allocator@Uwhisper_token_data@@@std@@@0@AEAV10@@Z
	??$addressof@V?$vector@Uwhisper_vad_segment@@V?$allocator@Uwhisper_vad_segment@@@std@@@std@@@std@@YAPEAV?$vector@Uwhisper_vad_segment@@V?$allocator@Uwhisper_vad_segment@@@std@@@0@AEAV10@@Z
	??$addressof@V?$vector@V?$vector@PEBUwhisper_grammar_element@@V?$allocator@PEBUwhisper_grammar_element@@@std@@@std@@V?$allocator@V?$vector@PEBUwhisper_grammar_element@@V?$allocator@PEBUwhisper_grammar_element@@@std@@@std@@@2@@std@@@std@@YAPEAV?$vector@V?$vector@PEBUwhisper_grammar_element@@V?$allocator@PEBUwhisper_grammar_element@@@std@@@std@@V?$allocator@V?$vector@PEBUwhisper_grammar_element@@V?$allocator@PEBUwhisper_grammar_element@@@std@@@std@@@2@@0@AEAV10@@Z
	??$addressof@V?$vector@V?$vector@Uwhisper_grammar_element@@V?$allocator@Uwhisper_grammar_element@@@std@@@std@@V?$allocator@V?$vector@Uwhisper_grammar_element@@V?$allocator@Uwhisper_grammar_element@@@std@@@std@@@2@@std@@@std@@YAPEAV?$vector@V?$vector@Uwhisper_grammar_element@@V?$allocator@Uwhisper_grammar_element@@@std@@@std@@V?$allocator@V?$vector@Uwhisper_grammar_element@@V?$allocator@Uwhisper_grammar_element@@@std@@@std@@@2@@0@AEAV10@@Z
	??$advance@PEBD_J@std@@YAXAEAPEBD_J@Z
	??$advance@PEBN_J@std@@YAXAEAPEBN_J@Z
	??$advance@PEBUvad_time_mapping@@_J@std@@YAXAEAPEBUvad_time_mapping@@_J@Z
	??$advance@V?$_String_const_iterator@V?$_String_val@U?$_Simple_types@D@std@@@std@@@std@@_J@std@@YAXAEAV?$_String_const_iterator@V?$_String_val@U?$_Simple_types@D@std@@@std@@@0@_J@Z
	??$assign@PEBH$0A@@?$vector@HV?$allocator@H@std@@@std@@QEAAXPEBH0@Z
	??$construct@D$$V@?$_Default_allocator_traits@V?$allocator@D@std@@@std@@SAXAEAV?$allocator@D@1@QEAD@Z
	??$construct@DAEBD@?$_Default_allocator_traits@V?$allocator@D@std@@@std@@SAXAEAV?$allocator@D@1@QEADAEBD@Z
	??$construct@DD@?$_Default_allocator_traits@V?$allocator@D@std@@@std@@SAXAEAV?$allocator@D@1@QEAD$$QEAD@Z
	??$construct@E$$V@?$_Default_allocator_traits@V?$allocator@E@std@@@std@@SAXAEAV?$allocator@E@1@QEAE@Z
	??$construct@EE@?$_Default_allocator_traits@V?$allocator@E@std@@@std@@SAXAEAV?$allocator@E@1@QEAE$$QEAE@Z
	??$construct@H$$V@?$_Default_allocator_traits@V?$allocator@H@std@@@std@@SAXAEAV?$allocator@H@1@QEAH@Z
	??$construct@HAEAH@?$_Default_allocator_traits@V?$allocator@H@std@@@std@@SAXAEAV?$allocator@H@1@QEAHAEAH@Z
	??$construct@HAEAH@?$_Default_allocator_traits@V?$allocator@U?$_Tree_node@HPEAX@std@@@std@@@std@@SAXAEAV?$allocator@U?$_Tree_node@HPEAX@std@@@1@QEAHAEAH@Z
	??$construct@HAEBH@?$_Default_allocator_traits@V?$allocator@H@std@@@std@@SAXAEAV?$allocator@H@1@QEAHAEBH@Z
	??$construct@HAEBH@?$_Default_allocator_traits@V?$allocator@U?$_Tree_node@HPEAX@std@@@std@@@std@@SAXAEAV?$allocator@U?$_Tree_node@HPEAX@std@@@1@QEAHAEBH@Z
	??$construct@HH@?$_Default_allocator_traits@V?$allocator@H@std@@@std@@SAXAEAV?$allocator@H@1@QEAH$$QEAH@Z
	??$construct@IAEAI@?$_Default_allocator_traits@V?$allocator@I@std@@@std@@SAXAEAV?$allocator@I@1@QEAIAEAI@Z
	??$construct@IAEBI@?$_Default_allocator_traits@V?$allocator@I@std@@@std@@SAXAEAV?$allocator@I@1@QEAIAEBI@Z
	??$construct@II@?$_Default_allocator_traits@V?$allocator@I@std@@@std@@SAXAEAV?$allocator@I@1@QEAI$$QEAI@Z
	??$construct@M$$V@?$_Default_allocator_traits@V?$allocator@M@std@@@std@@SAXAEAV?$allocator@M@1@QEAM@Z
	??$construct@MAEBM@?$_Default_allocator_traits@V?$allocator@M@std@@@std@@SAXAEAV?$allocator@M@1@QEAMAEBM@Z
	??$construct@MM@?$_Default_allocator_traits@V?$allocator@M@std@@@std@@SAXAEAV?$allocator@M@1@QEAM$$QEAM@Z
	??$construct@NAEBM@?$_Default_allocator_traits@V?$allocator@N@std@@@std@@SAXAEAV?$allocator@N@1@QEANAEBM@Z
	??$construct@NAEBN@?$_Default_allocator_traits@V?$allocator@N@std@@@std@@SAXAEAV?$allocator@N@1@QEANAEBN@Z
	??$construct@NN@?$_Default_allocator_traits@V?$allocator@N@std@@@std@@SAXAEAV?$allocator@N@1@QEAN$$QEAN@Z
	??$construct@PEAUggml_backend@@AEAPEAU1@@?$_Default_allocator_traits@V?$allocator@PEAUggml_backend@@@std@@@std@@SAXAEAV?$allocator@PEAUggml_backend@@@1@QEAPEAUggml_backend@@AEAPEAU3@@Z
	??$construct@PEAUggml_backend@@AEBQEAU1@@?$_Default_allocator_traits@V?$allocator@PEAUggml_backend@@@std@@@std@@SAXAEAV?$allocator@PEAUggml_backend@@@1@QEAPEAUggml_backend@@AEBQEAU3@@Z
	??$construct@PEAUggml_backend@@PEAU1@@?$_Default_allocator_traits@V?$allocator@PEAUggml_backend@@@std@@@std@@SAXAEAV?$allocator@PEAUggml_backend@@@1@QEAPEAUggml_backend@@$$QEAPEAU3@@Z
	??$construct@PEAUggml_backend_buffer@@AEAPEAU1@@?$_Default_allocator_traits@V?$allocator@PEAUggml_backend_buffer@@@std@@@std@@SAXAEAV?$allocator@PEAUggml_backend_buffer@@@1@QEAPEAUggml_backend_buffer@@AEAPEAU3@@Z
	??$construct@PEAUggml_backend_buffer@@PEAU1@@?$_Default_allocator_traits@V?$allocator@PEAUggml_backend_buffer@@@std@@@std@@SAXAEAV?$allocator@PEAUggml_backend_buffer@@@1@QEAPEAUggml_backend_buffer@@$$QEAPEAU3@@Z
	??$construct@PEAUggml_context@@AEAPEAU1@@?$_Default_allocator_traits@V?$allocator@PEAUggml_context@@@std@@@std@@SAXAEAV?$allocator@PEAUggml_context@@@1@QEAPEAUggml_context@@AEAPEAU3@@Z
	??$construct@PEAUggml_context@@PEAU1@@?$_Default_allocator_traits@V?$allocator@PEAUggml_context@@@std@@@std@@SAXAEAV?$allocator@PEAUggml_context@@@1@QEAPEAUggml_context@@$$QEAPEAU3@@Z
	??$construct@PEAUggml_tensor@@PEAU1@@?$_Default_allocator_traits@V?$allocator@PEAUggml_tensor@@@std@@@std@@SAXAEAV?$allocator@PEAUggml_tensor@@@1@QEAPEAUggml_tensor@@$$QEAPEAU3@@Z
	??$construct@PEAUwhisper_state@@PEAU1@@?$_Default_allocator_traits@V?$allocator@PEAUwhisper_state@@@std@@@std@@SAXAEAV?$allocator@PEAUwhisper_state@@@1@QEAPEAUwhisper_state@@$$QEAPEAU3@@Z
	??$construct@PEBUwhisper_grammar_element@@AEAPEBU1@@?$_Default_allocator_traits@V?$allocator@PEBUwhisper_grammar_element@@@std@@@std@@SAXAEAV?$allocator@PEBUwhisper_grammar_element@@@1@QEAPEBUwhisper_grammar_element@@AEAPEBU3@@Z
	??$construct@PEBUwhisper_grammar_element@@AEBQEBU1@@?$_Default_allocator_traits@V?$allocator@PEBUwhisper_grammar_element@@@std@@@std@@SAXAEAV?$allocator@PEBUwhisper_grammar_element@@@1@QEAPEBUwhisper_grammar_element@@AEBQEBU3@@Z
	??$construct@PEBUwhisper_grammar_element@@PEBU1@@?$_Default_allocator_traits@V?$allocator@PEBUwhisper_grammar_element@@@std@@@std@@SAXAEAV?$allocator@PEBUwhisper_grammar_element@@@1@QEAPEBUwhisper_grammar_element@@$$QEAPEBU3@@Z
	??$construct@U?$pair@$$CBHH@std@@AEBUpiecewise_construct_t@2@V?$tuple@AEBH@2@V?$tuple@$$V@2@@?$_Default_allocator_traits@V?$allocator@U?$_Tree_node@U?$pair@$$CBHH@std@@PEAX@std@@@std@@@std@@SAXAEAV?$allocator@U?$_Tree_node@U?$pair@$$CBHH@std@@PEAX@std@@@1@QEAU?$pair@$$CBHH@1@AEBUpiecewise_construct_t@1@$$QEAV?$tuple@AEBH@1@$$QEAV?$tuple@$$V@1@@Z
	??$construct@U?$pair@$$CBHV?$basic_string@DU?$char_traits@D@std@@V?$allocator@D@2@@std@@@std@@AEBUpiecewise_construct_t@2@V?$tuple@AEBH@2@V?$tuple@$$V@2@@?$_Default_allocator_traits@V?$allocator@U?$_Tree_node@U?$pair@$$CBHV?$basic_string@DU?$char_traits@D@std@@V?$allocator@D@2@@std@@@std@@PEAX@std@@@std@@@std@@SAXAEAV?$allocator@U?$_Tree_node@U?$pair@$$CBHV?$basic_string@DU?$char_traits@D@std@@V?$allocator@D@2@@std@@@std@@PEAX@std@@@1@QEAU?$pair@$$CBHV?$basic_string@DU?$char_traits@D@std@@V?$allocator@D@2@@std@@@1@AEBUpiecewise_construct_t@1@$$QEAV?$tuple@AEBH@1@$$QEAV?$tuple@$$V@1@@Z
	??$construct@U?$pair@$$CBV?$basic_string@DU?$char_traits@D@std@@V?$allocator@D@2@@std@@H@std@@AEBUpiecewise_construct_t@2@V?$tuple@AEBV?$basic_string@DU?$char_traits@D@std@@V?$allocator@D@2@@std@@@2@V?$tuple@$$V@2@@?$_Default_allocator_traits@V?$allocator@U?$_Tree_node@U?$pair@$$CBV?$basic_string@DU?$char_traits@D@std@@V?$allocator@D@2@@std@@H@std@@PEAX@std@@@std@@@std@@SAXAEAV?$allocator@U?$_Tree_node@U?$pair@$$CBV?$basic_string@DU?$char_traits@D@std@@V?$allocator@D@2@@std@@H@std@@PEAX@std@@@1@QEAU?$pair@$$CBV?$basic_string@DU?$char_traits@D@std@@V?$allocator@D@2@@std@@H@1@AEBUpiecewise_construct_t@1@$$QEAV?$tuple@AEBV?$basic_string@DU?$char_traits@D@std@@V?$allocator@D@2@@std@@@1@$$QEAV?$tuple@$$V@1@@Z
	??$construct@U?$pair@$$CBV?$basic_string@DU?$char_traits@D@std@@V?$allocator@D@2@@std@@PEAUggml_tensor@@@std@@AEBUpiecewise_construct_t@2@V?$tuple@$$QEAV?$basic_string@DU?$char_traits@D@std@@V?$allocator@D@2@@std@@@2@V?$tuple@$$V@2@@?$_Default_allocator_traits@V?$allocator@U?$_Tree_node@U?$pair@$$CBV?$basic_string@DU?$char_traits@D@std@@V?$allocator@D@2@@std@@PEAUggml_tensor@@@std@@PEAX@std@@@std@@@std@@SAXAEAV?$allocator@U?$_Tree_node@U?$pair@$$CBV?$basic_string@DU?$char_traits@D@std@@V?$allocator@D@2@@std@@PEAUggml_tensor@@@std@@PEAX@std@@@1@QEAU?$pair@$$CBV?$basic_string@DU?$char_traits@D@std@@V?$allocator@D@2@@std@@PEAUggml_tensor@@@1@AEBUpiecewise_construct_t@1@$$QEAV?$tuple@$$QEAV?$basic_string@DU?$char_traits@D@std@@V?$allocator@D@2@@std@@@1@$$QEAV?$tuple@$$V@1@@Z
	??$construct@U?$pair@$$CBV?$basic_string@DU?$char_traits@D@std@@V?$allocator@D@2@@std@@U?$pair@HV?$basic_string@DU?$char_traits@D@std@@V?$allocator@D@2@@std@@@2@@std@@AEBU12@@?$_Default_allocator_traits@V?$allocator@U?$_Tree_node@U?$pair@$$CBV?$basic_string@DU?$char_traits@D@std@@V?$allocator@D@2@@std@@U?$pair@HV?$basic_string@DU?$char_traits@D@std@@V?$allocator@D@2@@std@@@2@@std@@PEAX@std@@@std@@@std@@SAXAEAV?$allocator@U?$_Tree_node@U?$pair@$$CBV?$basic_string@DU?$char_traits@D@std@@V?$allocator@D@2@@std@@U?$pair@HV?$basic_string@DU?$char_traits@D@std@@V?$allocator@D@2@@std@@@2@@std@@PEAX@std@@@1@QEAU?$pair@$$CBV?$basic_string@DU?$char_traits@D@std@@V?$allocator@D@2@@std@@U?$pair@HV?$basic_string@DU?$char_traits@D@std@@V?$allocator@D@2@@std@@@2@@1@AEBU31@@Z
	??$construct@U?$pair@$$CBW4asr_system@@V?$map@W4asr_tensor@@PEBDU?$less@W4asr_tensor@@@std@@V?$allocator@U?$pair@$$CBW4asr_tensor@@PEBD@std@@@3@@std@@@std@@AEBU12@@?$_Default_allocator_traits@V?$allocator@U?$_Tree_node@U?$pair@$$CBW4asr_system@@V?$map@W4asr_tensor@@PEBDU?$less@W4asr_tensor@@@std@@V?$allocator@U?$pair@$$CBW4asr_tensor@@PEBD@std@@@3@@std@@@std@@PEAX@std@@@std@@@std@@SAXAEAV?$allocator@U?$_Tree_node@U?$pair@$$CBW4asr_system@@V?$map@W4asr_tensor@@PEBDU?$less@W4asr_tensor@@@std@@V?$allocator@U?$pair@$$CBW4asr_tensor@@PEBD@std@@@3@@std@@@std@@PEAX@std@@@1@QEAU?$pair@$$CBW4asr_system@@V?$map@W4asr_tensor@@PEBDU?$less@W4asr_tensor@@@std@@V?$allocator@U?$pair@$$CBW4asr_tensor@@PEBD@std@@@3@@std@@@1@AEBU31@@Z
	??$construct@U?$pair@$$CBW4asr_tensor@@PEBD@std@@AEAU12@@?$_Default_allocator_traits@V?$allocator@U?$_Tree_node@U?$pair@$$CBW4asr_tensor@@PEBD@std@@PEAX@std@@@std@@@std@@SAXAEAV?$allocator@U?$_Tree_node@U?$pair@$$CBW4asr_tensor@@PEBD@std@@PEAX@std@@@1@QEAU?$pair@$$CBW4asr_tensor@@PEBD@1@AEAU31@@Z
	??$construct@U?$pair@$$CBW4asr_tensor@@PEBD@std@@AEBU12@@?$_Default_allocator_traits@V?$allocator@U?$_Tree_node@U?$pair@$$CBW4asr_tensor@@PEBD@std@@PEAX@std@@@std@@@std@@SAXAEAV?$allocator@U?$_Tree_node@U?$pair@$$CBW4asr_tensor@@PEBD@std@@PEAX@std@@@1@QEAU?$pair@$$CBW4asr_tensor@@PEBD@1@AEBU31@@Z
	??$construct@U?$pair@$$CBW4asr_tensor@@W4ggml_op@@@std@@AEBU12@@?$_Default_allocator_traits@V?$allocator@U?$_Tree_node@U?$pair@$$CBW4asr_tensor@@W4ggml_op@@@std@@PEAX@std@@@std@@@std@@SAXAEAV?$allocator@U?$_Tree_node@U?$pair@$$CBW4asr_tensor@@W4ggml_op@@@std@@PEAX@std@@@1@QEAU?$pair@$$CBW4asr_tensor@@W4ggml_op@@@1@AEBU31@@Z
	??$construct@U?$pair@$$CBW4e_model@@V?$basic_string@DU?$char_traits@D@std@@V?$allocator@D@2@@std@@@std@@AEBU12@@?$_Default_allocator_traits@V?$allocator@U?$_Tree_node@U?$pair@$$CBW4e_model@@V?$basic_string@DU?$char_traits@D@std@@V?$allocator@D@2@@std@@@std@@PEAX@std@@@std@@@std@@SAXAEAV?$allocator@U?$_Tree_node@U?$pair@$$CBW4e_model@@V?$basic_string@DU?$char_traits@D@std@@V?$allocator@D@2@@std@@@std@@PEAX@std@@@1@QEAU?$pair@$$CBW4e_model@@V?$basic_string@DU?$char_traits@D@std@@V?$allocator@D@2@@std@@@1@AEBU31@@Z
	??$construct@U?$pair@$$CBW4vad_tensor@@PEBD@std@@AEBU12@@?$_Default_allocator_traits@V?$allocator@U?$_Tree_node@U?$pair@$$CBW4vad_tensor@@PEBD@std@@PEAX@std@@@std@@@std@@SAXAEAV?$allocator@U?$_Tree_node@U?$pair@$$CBW4vad_tensor@@PEBD@std@@PEAX@std@@@1@QEAU?$pair@$$CBW4vad_tensor@@PEBD@1@AEBU31@@Z
	??$construct@U?$pair@$$CBW4vad_tensor@@W4ggml_op@@@std@@AEBU12@@?$_Default_allocator_traits@V?$allocator@U?$_Tree_node@U?$pair@$$CBW4vad_tensor@@W4ggml_op@@@std@@PEAX@std@@@std@@@std@@SAXAEAV?$allocator@U?$_Tree_node@U?$pair@$$CBW4vad_tensor@@W4ggml_op@@@std@@PEAX@std@@@1@QEAU?$pair@$$CBW4vad_tensor@@W4ggml_op@@@1@AEBU31@@Z
	??$construct@U?$pair@$$CBW4whisper_alignment_heads_preset@@Uwhisper_aheads@@@std@@AEBU12@@?$_Default_allocator_traits@V?$allocator@U?$_Tree_node@U?$pair@$$CBW4whisper_alignment_heads_preset@@Uwhisper_aheads@@@std@@PEAX@std@@@std@@@std@@SAXAEAV?$allocator@U?$_Tree_node@U?$pair@$$CBW4whisper_alignment_heads_preset@@Uwhisper_aheads@@@std@@PEAX@std@@@1@QEAU?$pair@$$CBW4whisper_alignment_heads_preset@@Uwhisper_aheads@@@1@AEBU31@@Z
	??$construct@U?$pair@PEAUggml_backend_device@@PEAUggml_backend_buffer_type@@@std@@AEAPEAUggml_backend_device@@AEAPEAUggml_backend_buffer_type@@@?$_Default_allocator_traits@V?$allocator@U?$pair@PEAUggml_backend_device@@PEAUggml_backend_buffer_type@@@std@@@std@@@std@@SAXAEAV?$allocator@U?$pair@PEAUggml_backend_device@@PEAUggml_backend_buffer_type@@@std@@@1@QEAU?$pair@PEAUggml_backend_device@@PEAUggml_backend_buffer_type@@@1@AEAPEAUggml_backend_device@@AEAPEAUggml_backend_buffer_type@@@Z
	??$construct@U?$pair@PEAUggml_backend_device@@PEAUggml_backend_buffer_type@@@std@@AEAPEAUggml_backend_device@@PEAUggml_backend_buffer_type@@@?$_Default_allocator_traits@V?$allocator@U?$pair@PEAUggml_backend_device@@PEAUggml_backend_buffer_type@@@std@@@std@@@std@@SAXAEAV?$allocator@U?$pair@PEAUggml_backend_device@@PEAUggml_backend_buffer_type@@@std@@@1@QEAU?$pair@PEAUggml_backend_device@@PEAUggml_backend_buffer_type@@@1@AEAPEAUggml_backend_device@@$$QEAPEAUggml_backend_buffer_type@@@Z
	??$construct@U?$pair@PEAUggml_backend_device@@PEAUggml_backend_buffer_type@@@std@@AEAU12@@?$_Default_allocator_traits@V?$allocator@U?$pair@PEAUggml_backend_device@@PEAUggml_backend_buffer_type@@@std@@@std@@@std@@SAXAEAV?$allocator@U?$pair@PEAUggml_backend_device@@PEAUggml_backend_buffer_type@@@std@@@1@QEAU?$pair@PEAUggml_backend_device@@PEAUggml_backend_buffer_type@@@1@AEAU31@@Z
	??$construct@U?$pair@PEAUggml_backend_device@@PEAUggml_backend_buffer_type@@@std@@U12@@?$_Default_allocator_traits@V?$allocator@U?$pair@PEAUggml_backend_device@@PEAUggml_backend_buffer_type@@@std@@@std@@@std@@SAXAEAV?$allocator@U?$pair@PEAUggml_backend_device@@PEAUggml_backend_buffer_type@@@std@@@1@QEAU?$pair@PEAUggml_backend_device@@PEAUggml_backend_buffer_type@@@1@$$QEAU31@@Z
	??$construct@U?$pair@QEAUggml_backend_buffer_type@@PEAUggml_context@@@std@@AEBUpiecewise_construct_t@2@V?$tuple@AEBQEAUggml_backend_buffer_type@@@2@V?$tuple@$$V@2@@?$_Default_allocator_traits@V?$allocator@U?$_Tree_node@U?$pair@QEAUggml_backend_buffer_type@@PEAUggml_context@@@std@@PEAX@std@@@std@@@std@@SAXAEAV?$allocator@U?$_Tree_node@U?$pair@QEAUggml_backend_buffer_type@@PEAUggml_context@@@std@@PEAX@std@@@1@QEAU?$pair@QEAUggml_backend_buffer_type@@PEAUggml_context@@@1@AEBUpiecewise_construct_t@1@$$QEAV?$tuple@AEBQEAUggml_backend_buffer_type@@@1@$$QEAV?$tuple@$$V@1@@Z
	??$construct@U?$pair@V?$vector@IV?$allocator@I@std@@@std@@Uwhisper_partial_utf8@@@std@@U12@@?$_Default_allocator_traits@V?$allocator@U?$pair@V?$vector@IV?$allocator@I@std@@@std@@Uwhisper_partial_utf8@@@std@@@std@@@std@@SAXAEAV?$allocator@U?$pair@V?$vector@IV?$allocator@I@std@@@std@@Uwhisper_partial_utf8@@@std@@@1@QEAU?$pair@V?$vector@IV?$allocator@I@std@@@std@@Uwhisper_partial_utf8@@@1@$$QEAU31@@Z
	??$construct@U?$whisper_pair@NH@@$$V@?$_Default_allocator_traits@V?$allocator@U?$whisper_pair@NH@@@std@@@std@@SAXAEAV?$allocator@U?$whisper_pair@NH@@@1@QEAU?$whisper_pair@NH@@@Z
	??$construct@U?$whisper_pair@NH@@AEAMAEBH@?$_Default_allocator_traits@V?$allocator@U?$whisper_pair@NH@@@std@@@std@@SAXAEAV?$allocator@U?$whisper_pair@NH@@@1@QEAU?$whisper_pair@NH@@AEAMAEBH@Z
	??$construct@U?$whisper_pair@NH@@U1@@?$_Default_allocator_traits@V?$allocator@U?$whisper_pair@NH@@@std@@@std@@SAXAEAV?$allocator@U?$whisper_pair@NH@@@1@QEAU?$whisper_pair@NH@@$$QEAU3@@Z
	??$construct@U_Grp_t@?$_Tgt_state_t@PEBD@std@@$$V@?$_Default_allocator_traits@V?$allocator@U_Grp_t@?$_Tgt_state_t@PEBD@std@@@std@@@std@@SAXAEAV?$allocator@U_Grp_t@?$_Tgt_state_t@PEBD@std@@@1@QEAU_Grp_t@?$_Tgt_state_t@PEBD@1@@Z
	??$construct@U_Grp_t@?$_Tgt_state_t@PEBD@std@@AEAU123@@?$_Default_allocator_traits@V?$allocator@U_Grp_t@?$_Tgt_state_t@PEBD@std@@@std@@@std@@SAXAEAV?$allocator@U_Grp_t@?$_Tgt_state_t@PEBD@std@@@1@QEAU_Grp_t@?$_Tgt_state_t@PEBD@1@AEAU341@@Z
	??$construct@U_Grp_t@?$_Tgt_state_t@PEBD@std@@U123@@?$_Default_allocator_traits@V?$allocator@U_Grp_t@?$_Tgt_state_t@PEBD@std@@@std@@@std@@SAXAEAV?$allocator@U_Grp_t@?$_Tgt_state_t@PEBD@std@@@1@QEAU_Grp_t@?$_Tgt_state_t@PEBD@1@$$QEAU341@@Z
	??$construct@U_Grp_t@?$_Tgt_state_t@V?$_String_const_iterator@V?$_String_val@U?$_Simple_types@D@std@@@std@@@std@@@std@@$$V@?$_Default_allocator_traits@V?$allocator@U_Grp_t@?$_Tgt_state_t@V?$_String_const_iterator@V?$_String_val@U?$_Simple_types@D@std@@@std@@@std@@@std@@@std@@@std@@SAXAEAV?$allocator@U_Grp_t@?$_Tgt_state_t@V?$_String_const_iterator@V?$_String_val@U?$_Simple_types@D@std@@@std@@@std@@@std@@@1@QEAU_Grp_t@?$_Tgt_state_t@V?$_String_const_iterator@V?$_String_val@U?$_Simple_types@D@std@@@std@@@std@@@1@@Z
	??$construct@U_Grp_t@?$_Tgt_state_t@V?$_String_const_iterator@V?$_String_val@U?$_Simple_types@D@std@@@std@@@std@@@std@@AEAU123@@?$_Default_allocator_traits@V?$allocator@U_Grp_t@?$_Tgt_state_t@V?$_String_const_iterator@V?$_String_val@U?$_Simple_types@D@std@@@std@@@std@@@std@@@std@@@std@@SAXAEAV?$allocator@U_Grp_t@?$_Tgt_state_t@V?$_String_const_iterator@V?$_String_val@U?$_Simple_types@D@std@@@std@@@std@@@std@@@1@QEAU_Grp_t@?$_Tgt_state_t@V?$_String_const_iterator@V?$_String_val@U?$_Simple_types@D@std@@@std@@@std@@@1@AEAU341@@Z
	??$construct@U_Grp_t@?$_Tgt_state_t@V?$_String_const_iterator@V?$_String_val@U?$_Simple_types@D@std@@@std@@@std@@@std@@U123@@?$_Default_allocator_traits@V?$allocator@U_Grp_t@?$_Tgt_state_t@V?$_String_const_iterator@V?$_String_val@U?$_Simple_types@D@std@@@std@@@std@@@std@@@std@@@std@@SAXAEAV?$allocator@U_Grp_t@?$_Tgt_state_t@V?$_String_const_iterator@V?$_String_val@U?$_Simple_types@D@std@@@std@@@std@@@std@@@1@QEAU_Grp_t@?$_Tgt_state_t@V?$_String_const_iterator@V?$_String_val@U?$_Simple_types@D@std@@@std@@@std@@@1@$$QEAU341@@Z
	??$construct@U_Loop_vals_v2_t@std@@$$V@?$_Default_allocator_traits@V?$allocator@U_Loop_vals_v2_t@std@@@std@@@std@@SAXAEAV?$allocator@U_Loop_vals_v2_t@std@@@1@QEAU_Loop_vals_v2_t@1@@Z
	??$construct@U_Loop_vals_v2_t@std@@U12@@?$_Default_allocator_traits@V?$allocator@U_Loop_vals_v2_t@std@@@std@@@std@@SAXAEAV?$allocator@U_Loop_vals_v2_t@std@@@1@QEAU_Loop_vals_v2_t@1@$$QEAU31@@Z
	??$construct@Uvad_segment_info@whisper_state@@AEBU12@@?$_Default_allocator_traits@V?$allocator@Uvad_segment_info@whisper_state@@@std@@@std@@SAXAEAV?$allocator@Uvad_segment_info@whisper_state@@@1@QEAUvad_segment_info@whisper_state@@AEBU34@@Z
	??$construct@Uvad_segment_info@whisper_state@@U12@@?$_Default_allocator_traits@V?$allocator@Uvad_segment_info@whisper_state@@@std@@@std@@SAXAEAV?$allocator@Uvad_segment_info@whisper_state@@@1@QEAUvad_segment_info@whisper_state@@$$QEAU34@@Z
	??$construct@Uvad_time_mapping@@AEBU1@@?$_Default_allocator_traits@V?$allocator@Uvad_time_mapping@@@std@@@std@@SAXAEAV?$allocator@Uvad_time_mapping@@@1@QEAUvad_time_mapping@@AEBU3@@Z
	??$construct@Uvad_time_mapping@@U1@@?$_Default_allocator_traits@V?$allocator@Uvad_time_mapping@@@std@@@std@@SAXAEAV?$allocator@Uvad_time_mapping@@@1@QEAUvad_time_mapping@@$$QEAU3@@Z
	??$construct@Uwhisper_grammar_candidate@@AEBU1@@?$_Default_allocator_traits@V?$allocator@Uwhisper_grammar_candidate@@@std@@@std@@SAXAEAV?$allocator@Uwhisper_grammar_candidate@@@1@QEAUwhisper_grammar_candidate@@AEBU3@@Z
	??$construct@Uwhisper_grammar_candidate@@U1@@?$_Default_allocator_traits@V?$allocator@Uwhisper_grammar_candidate@@@std@@@std@@SAXAEAV?$allocator@Uwhisper_grammar_candidate@@@1@QEAUwhisper_grammar_candidate@@$$QEAU3@@Z
	??$construct@Uwhisper_grammar_element@@AEAU1@@?$_Default_allocator_traits@V?$allocator@Uwhisper_grammar_element@@@std@@@std@@SAXAEAV?$allocator@Uwhisper_grammar_element@@@1@QEAUwhisper_grammar_element@@AEAU3@@Z
	??$construct@Uwhisper_grammar_element@@AEBU1@@?$_Default_allocator_traits@V?$allocator@Uwhisper_grammar_element@@@std@@@std@@SAXAEAV?$allocator@Uwhisper_grammar_element@@@1@QEAUwhisper_grammar_element@@AEBU3@@Z
	??$construct@Uwhisper_grammar_element@@U1@@?$_Default_allocator_traits@V?$allocator@Uwhisper_grammar_element@@@std@@@std@@SAXAEAV?$allocator@Uwhisper_grammar_element@@@1@QEAUwhisper_grammar_element@@$$QEAU3@@Z
	??$construct@Uwhisper_kv_cell@@$$V@?$_Default_allocator_traits@V?$allocator@Uwhisper_kv_cell@@@std@@@std@@SAXAEAV?$allocator@Uwhisper_kv_cell@@@1@QEAUwhisper_kv_cell@@@Z
	??$construct@Uwhisper_kv_cell@@AEAU1@@?$_Default_allocator_traits@V?$allocator@Uwhisper_kv_cell@@@std@@@std@@SAXAEAV?$allocator@Uwhisper_kv_cell@@@1@QEAUwhisper_kv_cell@@AEAU3@@Z
	??$construct@Uwhisper_layer_decoder@@$$V@?$_Default_allocator_traits@V?$allocator@Uwhisper_layer_decoder@@@std@@@std@@SAXAEAV?$allocator@Uwhisper_layer_decoder@@@1@QEAUwhisper_layer_decoder@@@Z
	??$construct@Uwhisper_layer_decoder@@U1@@?$_Default_allocator_traits@V?$allocator@Uwhisper_layer_decoder@@@std@@@std@@SAXAEAV?$allocator@Uwhisper_layer_decoder@@@1@QEAUwhisper_layer_decoder@@$$QEAU3@@Z
	??$construct@Uwhisper_layer_encoder@@$$V@?$_Default_allocator_traits@V?$allocator@Uwhisper_layer_encoder@@@std@@@std@@SAXAEAV?$allocator@Uwhisper_layer_encoder@@@1@QEAUwhisper_layer_encoder@@@Z
	??$construct@Uwhisper_layer_encoder@@U1@@?$_Default_allocator_traits@V?$allocator@Uwhisper_layer_encoder@@@std@@@std@@SAXAEAV?$allocator@Uwhisper_layer_encoder@@@1@QEAUwhisper_layer_encoder@@$$QEAU3@@Z
	??$construct@Uwhisper_segment@@U1@@?$_Default_allocator_traits@V?$allocator@Uwhisper_segment@@@std@@@std@@SAXAEAV?$allocator@Uwhisper_segment@@@1@QEAUwhisper_segment@@$$QEAU3@@Z
	??$construct@Uwhisper_token_data@@$$V@?$_Default_allocator_traits@V?$allocator@Uwhisper_token_data@@@std@@@std@@SAXAEAV?$allocator@Uwhisper_token_data@@@1@QEAUwhisper_token_data@@@Z
	??$construct@Uwhisper_token_data@@AEAU1@@?$_Default_allocator_traits@V?$allocator@Uwhisper_token_data@@@std@@@std@@SAXAEAV?$allocator@Uwhisper_token_data@@@1@QEAUwhisper_token_data@@AEAU3@@Z
	??$construct@Uwhisper_token_data@@AEBU1@@?$_Default_allocator_traits@V?$allocator@Uwhisper_token_data@@@std@@@std@@SAXAEAV?$allocator@Uwhisper_token_data@@@1@QEAUwhisper_token_data@@AEBU3@@Z
	??$construct@Uwhisper_token_data@@U1@@?$_Default_allocator_traits@V?$allocator@Uwhisper_token_data@@@std@@@std@@SAXAEAV?$allocator@Uwhisper_token_data@@@1@QEAUwhisper_token_data@@$$QEAU3@@Z
	??$construct@Uwhisper_vad_segment@@$$V@?$_Default_allocator_traits@V?$allocator@Uwhisper_vad_segment@@@std@@@std@@SAXAEAV?$allocator@Uwhisper_vad_segment@@@1@QEAUwhisper_vad_segment@@@Z
	??$construct@Uwhisper_vad_segment@@U1@@?$_Default_allocator_traits@V?$allocator@Uwhisper_vad_segment@@@std@@@std@@SAXAEAV?$allocator@Uwhisper_vad_segment@@@1@QEAUwhisper_vad_segment@@$$QEAU3@@Z
	??$construct@V?$_Tgt_state_t@PEBD@std@@AEBV12@@?$_Default_allocator_traits@V?$allocator@V?$_Tgt_state_t@PEBD@std@@@std@@@std@@SAXAEAV?$allocator@V?$_Tgt_state_t@PEBD@std@@@1@QEAV?$_Tgt_state_t@PEBD@1@AEBV31@@Z
	??$construct@V?$_Tgt_state_t@PEBD@std@@V12@@?$_Default_allocator_traits@V?$allocator@V?$_Tgt_state_t@PEBD@std@@@std@@@std@@SAXAEAV?$allocator@V?$_Tgt_state_t@PEBD@std@@@1@QEAV?$_Tgt_state_t@PEBD@1@$$QEAV31@@Z
	??$construct@V?$_Tgt_state_t@V?$_String_const_iterator@V?$_String_val@U?$_Simple_types@D@std@@@std@@@std@@@std@@AEBV12@@?$_Default_allocator_traits@V?$allocator@V?$_Tgt_state_t@V?$_String_const_iterator@V?$_String_val@U?$_Simple_types@D@std@@@std@@@std@@@std@@@std@@@std@@SAXAEAV?$allocator@V?$_Tgt_state_t@V?$_String_const_iterator@V?$_String_val@U?$_Simple_types@D@std@@@std@@@std@@@std@@@1@QEAV?$_Tgt_state_t@V?$_String_const_iterator@V?$_String_val@U?$_Simple_types@D@std@@@std@@@std@@@1@AEBV31@@Z
	??$construct@V?$_Tgt_state_t@V?$_String_const_iterator@V?$_String_val@U?$_Simple_types@D@std@@@std@@@std@@@std@@V12@@?$_Default_allocator_traits@V?$allocator@V?$_Tgt_state_t@V?$_String_const_iterator@V?$_String_val@U?$_Simple_types@D@std@@@std@@@std@@@std@@@std@@@std@@SAXAEAV?$allocator@V?$_Tgt_state_t@V?$_String_const_iterator@V?$_String_val@U?$_Simple_types@D@std@@@std@@@std@@@std@@@1@QEAV?$_Tgt_state_t@V?$_String_const_iterator@V?$_String_val@U?$_Simple_types@D@std@@@std@@@std@@@1@$$QEAV31@@Z
	??$construct@V?$basic_string@DU?$char_traits@D@std@@V?$allocator@D@2@@std@@AEBV12@@?$_Default_allocator_traits@V?$allocator@V?$basic_string@DU?$char_traits@D@std@@V?$allocator@D@2@@std@@@std@@@std@@SAXAEAV?$allocator@V?$basic_string@DU?$char_traits@D@std@@V?$allocator@D@2@@std@@@1@QEAV?$basic_string@DU?$char_traits@D@std@@V?$allocator@D@2@@1@AEBV31@@Z
	??$construct@V?$basic_string@DU?$char_traits@D@std@@V?$allocator@D@2@@std@@V12@@?$_Default_allocator_traits@V?$allocator@V?$basic_string@DU?$char_traits@D@std@@V?$allocator@D@2@@std@@@std@@@std@@SAXAEAV?$allocator@V?$basic_string@DU?$char_traits@D@std@@V?$allocator@D@2@@std@@@1@QEAV?$basic_string@DU?$char_traits@D@std@@V?$allocator@D@2@@1@$$QEAV31@@Z
	??$construct@V?$sub_match@PEBD@std@@$$V@?$_Default_allocator_traits@V?$allocator@V?$sub_match@PEBD@std@@@std@@@std@@SAXAEAV?$allocator@V?$sub_match@PEBD@std@@@1@QEAV?$sub_match@PEBD@1@@Z
	??$construct@V?$sub_match@PEBD@std@@V12@@?$_Default_allocator_traits@V?$allocator@V?$sub_match@PEBD@std@@@std@@@std@@SAXAEAV?$allocator@V?$sub_match@PEBD@std@@@1@QEAV?$sub_match@PEBD@1@$$QEAV31@@Z
	??$construct@V?$sub_match@V?$_String_const_iterator@V?$_String_val@U?$_Simple_types@D@std@@@std@@@std@@@std@@$$V@?$_Default_allocator_traits@V?$allocator@V?$sub_match@V?$_String_const_iterator@V?$_String_val@U?$_Simple_types@D@std@@@std@@@std@@@std@@@std@@@std@@SAXAEAV?$allocator@V?$sub_match@V?$_String_const_iterator@V?$_String_val@U?$_Simple_types@D@std@@@std@@@std@@@std@@@1@QEAV?$sub_match@V?$_String_const_iterator@V?$_String_val@U?$_Simple_types@D@std@@@std@@@std@@@1@@Z
	??$construct@V?$sub_match@V?$_String_const_iterator@V?$_String_val@U?$_Simple_types@D@std@@@std@@@std@@@std@@V12@@?$_Default_allocator_traits@V?$allocator@V?$sub_match@V?$_String_const_iterator@V?$_String_val@U?$_Simple_types@D@std@@@std@@@std@@@std@@@std@@@std@@SAXAEAV?$allocator@V?$sub_match@V?$_String_const_iterator@V?$_String_val@U?$_Simple_types@D@std@@@std@@@std@@@std@@@1@QEAV?$sub_match@V?$_String_const_iterator@V?$_String_val@U?$_Simple_types@D@std@@@std@@@std@@@1@$$QEAV31@@Z
	??$construct@V?$vector@PEBUwhisper_grammar_element@@V?$allocator@PEBUwhisper_grammar_element@@@std@@@std@@$$V@?$_Default_allocator_traits@V?$allocator@V?$vector@PEBUwhisper_grammar_element@@V?$allocator@PEBUwhisper_grammar_element@@@std@@@std@@@std@@@std@@SAXAEAV?$allocator@V?$vector@PEBUwhisper_grammar_element@@V?$allocator@PEBUwhisper_grammar_element@@@std@@@std@@@1@QEAV?$vector@PEBUwhisper_grammar_element@@V?$allocator@PEBUwhisper_grammar_element@@@std@@@1@@Z
	??$construct@V?$vector@PEBUwhisper_grammar_element@@V?$allocator@PEBUwhisper_grammar_element@@@std@@@std@@AEAV12@@?$_Default_allocator_traits@V?$allocator@V?$vector@PEBUwhisper_grammar_element@@V?$allocator@PEBUwhisper_grammar_element@@@std@@@std@@@std@@@std@@SAXAEAV?$allocator@V?$vector@PEBUwhisper_grammar_element@@V?$allocator@PEBUwhisper_grammar_element@@@std@@@std@@@1@QEAV?$vector@PEBUwhisper_grammar_element@@V?$allocator@PEBUwhisper_grammar_element@@@std@@@1@AEAV31@@Z
	??$construct@V?$vector@PEBUwhisper_grammar_element@@V?$allocator@PEBUwhisper_grammar_element@@@std@@@std@@AEBV12@@?$_Default_allocator_traits@V?$allocator@V?$vector@PEBUwhisper_grammar_element@@V?$allocator@PEBUwhisper_grammar_element@@@std@@@std@@@std@@@std@@SAXAEAV?$allocator@V?$vector@PEBUwhisper_grammar_element@@V?$allocator@PEBUwhisper_grammar_element@@@std@@@std@@@1@QEAV?$vector@PEBUwhisper_grammar_element@@V?$allocator@PEBUwhisper_grammar_element@@@std@@@1@AEBV31@@Z
	??$construct@V?$vector@PEBUwhisper_grammar_element@@V?$allocator@PEBUwhisper_grammar_element@@@std@@@std@@V12@@?$_Default_allocator_traits@V?$allocator@V?$vector@PEBUwhisper_grammar_element@@V?$allocator@PEBUwhisper_grammar_element@@@std@@@std@@@std@@@std@@SAXAEAV?$allocator@V?$vector@PEBUwhisper_grammar_element@@V?$allocator@PEBUwhisper_grammar_element@@@std@@@std@@@1@QEAV?$vector@PEBUwhisper_grammar_element@@V?$allocator@PEBUwhisper_grammar_element@@@std@@@1@$$QEAV31@@Z
	??$construct@V?$vector@Uwhisper_grammar_element@@V?$allocator@Uwhisper_grammar_element@@@std@@@std@@$$V@?$_Default_allocator_traits@V?$allocator@V?$vector@Uwhisper_grammar_element@@V?$allocator@Uwhisper_grammar_element@@@std@@@std@@@std@@@std@@SAXAEAV?$allocator@V?$vector@Uwhisper_grammar_element@@V?$allocator@Uwhisper_grammar_element@@@std@@@std@@@1@QEAV?$vector@Uwhisper_grammar_element@@V?$allocator@Uwhisper_grammar_element@@@std@@@1@@Z
	??$construct@V?$vector@Uwhisper_grammar_element@@V?$allocator@Uwhisper_grammar_element@@@std@@@std@@AEAV12@@?$_Default_allocator_traits@V?$allocator@V?$vector@Uwhisper_grammar_element@@V?$allocator@Uwhisper_grammar_element@@@std@@@std@@@std@@@std@@SAXAEAV?$allocator@V?$vector@Uwhisper_grammar_element@@V?$allocator@Uwhisper_grammar_element@@@std@@@std@@@1@QEAV?$vector@Uwhisper_grammar_element@@V?$allocator@Uwhisper_grammar_element@@@std@@@1@AEAV31@@Z
	??$construct@Vthread@std@@$$V@?$_Default_allocator_traits@V?$allocator@Vthread@std@@@std@@@std@@SAXAEAV?$allocator@Vthread@std@@@1@QEAVthread@1@@Z
	??$construct@_KAEB_K@?$_Default_allocator_traits@V?$allocator@_K@std@@@std@@SAXAEAV?$allocator@_K@1@QEA_KAEB_K@Z
	??$copy@PEBMV?$_Vector_iterator@V?$_Vector_val@U?$_Simple_types@M@std@@@std@@@std@@@std@@YA?AV?$_Vector_iterator@V?$_Vector_val@U?$_Simple_types@M@std@@@std@@@0@PEBM0V10@@Z
	??$copy@V?$_Vb_iterator@U?$_Wrap_alloc@V?$allocator@I@std@@@std@@@std@@V12@@std@@YA?AV?$_Vb_iterator@U?$_Wrap_alloc@V?$allocator@I@std@@@std@@@0@V10@00@Z
	??$copy@V?$_Vector_iterator@V?$_Vector_val@U?$_Simple_types@M@std@@@std@@@std@@V12@@std@@YA?AV?$_Vector_iterator@V?$_Vector_val@U?$_Simple_types@M@std@@@std@@@0@V10@00@Z
	??$copy_backward@V?$_Vb_iterator@U?$_Wrap_alloc@V?$allocator@I@std@@@std@@@std@@V12@@std@@YA?AV?$_Vb_iterator@U?$_Wrap_alloc@V?$allocator@I@std@@@std@@@0@V10@00@Z
	??$cref@Uwhisper_filters@@@std@@YA?AV?$reference_wrapper@$$CBUwhisper_filters@@@0@AEBUwhisper_filters@@@Z
	??$cref@V?$vector@MV?$allocator@M@std@@@std@@@std@@YA?AV?$reference_wrapper@$$CBV?$vector@MV?$allocator@M@std@@@std@@@0@AEBV?$vector@MV?$allocator@M@std@@@0@@Z
	??$destroy@H@?$_Default_allocator_traits@V?$allocator@U?$_Tree_node@HPEAX@std@@@std@@@std@@SAXAEAV?$allocator@U?$_Tree_node@HPEAX@std@@@1@QEAH@Z
	??$destroy@U?$pair@$$CBHH@std@@@?$_Default_allocator_traits@V?$allocator@U?$_Tree_node@U?$pair@$$CBHH@std@@PEAX@std@@@std@@@std@@SAXAEAV?$allocator@U?$_Tree_node@U?$pair@$$CBHH@std@@PEAX@std@@@1@QEAU?$pair@$$CBHH@1@@Z
	??$destroy@U?$pair@$$CBHV?$basic_string@DU?$char_traits@D@std@@V?$allocator@D@2@@std@@@std@@@?$_Default_allocator_traits@V?$allocator@U?$_Tree_node@U?$pair@$$CBHV?$basic_string@DU?$char_traits@D@std@@V?$allocator@D@2@@std@@@std@@PEAX@std@@@std@@@std@@SAXAEAV?$allocator@U?$_Tree_node@U?$pair@$$CBHV?$basic_string@DU?$char_traits@D@std@@V?$allocator@D@2@@std@@@std@@PEAX@std@@@1@QEAU?$pair@$$CBHV?$basic_string@DU?$char_traits@D@std@@V?$allocator@D@2@@std@@@1@@Z
	??$destroy@U?$pair@$$CBV?$basic_string@DU?$char_traits@D@std@@V?$allocator@D@2@@std@@H@std@@@?$_Default_allocator_traits@V?$allocator@U?$_Tree_node@U?$pair@$$CBV?$basic_string@DU?$char_traits@D@std@@V?$allocator@D@2@@std@@H@std@@PEAX@std@@@std@@@std@@SAXAEAV?$allocator@U?$_Tree_node@U?$pair@$$CBV?$basic_string@DU?$char_traits@D@std@@V?$allocator@D@2@@std@@H@std@@PEAX@std@@@1@QEAU?$pair@$$CBV?$basic_string@DU?$char_traits@D@std@@V?$allocator@D@2@@std@@H@1@@Z
	??$destroy@U?$pair@$$CBV?$basic_string@DU?$char_traits@D@std@@V?$allocator@D@2@@std@@PEAUggml_tensor@@@std@@@?$_Default_allocator_traits@V?$allocator@U?$_Tree_node@U?$pair@$$CBV?$basic_string@DU?$char_traits@D@std@@V?$allocator@D@2@@std@@PEAUggml_tensor@@@std@@PEAX@std@@@std@@@std@@SAXAEAV?$allocator@U?$_Tree_node@U?$pair@$$CBV?$basic_string@DU?$char_traits@D@std@@V?$allocator@D@2@@std@@PEAUggml_tensor@@@std@@PEAX@std@@@1@QEAU?$pair@$$CBV?$basic_string@DU?$char_traits@D@std@@V?$allocator@D@2@@std@@PEAUggml_tensor@@@1@@Z
	??$destroy@U?$pair@$$CBV?$basic_string@DU?$char_traits@D@std@@V?$allocator@D@2@@std@@U?$pair@HV?$basic_string@DU?$char_traits@D@std@@V?$allocator@D@2@@std@@@2@@std@@@?$_Default_allocator_traits@V?$allocator@U?$_Tree_node@U?$pair@$$CBV?$basic_string@DU?$char_traits@D@std@@V?$allocator@D@2@@std@@U?$pair@HV?$basic_string@DU?$char_traits@D@std@@V?$allocator@D@2@@std@@@2@@std@@PEAX@std@@@std@@@std@@SAXAEAV?$allocator@U?$_Tree_node@U?$pair@$$CBV?$basic_string@DU?$char_traits@D@std@@V?$allocator@D@2@@std@@U?$pair@HV?$basic_string@DU?$char_traits@D@std@@V?$allocator@D@2@@std@@@2@@std@@PEAX@std@@@1@QEAU?$pair@$$CBV?$basic_string@DU?$char_traits@D@std@@V?$allocator@D@2@@std@@U?$pair@HV?$basic_string@DU?$char_traits@D@std@@V?$allocator@D@2@@std@@@2@@1@@Z
	??$destroy@U?$pair@$$CBW4asr_system@@V?$map@W4asr_tensor@@PEBDU?$less@W4asr_tensor@@@std@@V?$allocator@U?$pair@$$CBW4asr_tensor@@PEBD@std@@@3@@std@@@std@@@?$_Default_allocator_traits@V?$allocator@U?$_Tree_node@U?$pair@$$CBW4asr_system@@V?$map@W4asr_tensor@@PEBDU?$less@W4asr_tensor@@@std@@V?$allocator@U?$pair@$$CBW4asr_tensor@@PEBD@std@@@3@@std@@@std@@PEAX@std@@@std@@@std@@SAXAEAV?$allocator@U?$_Tree_node@U?$pair@$$CBW4asr_system@@V?$map@W4asr_tensor@@PEBDU?$less@W4asr_tensor@@@std@@V?$allocator@U?$pair@$$CBW4asr_tensor@@PEBD@std@@@3@@std@@@std@@PEAX@std@@@1@QEAU?$pair@$$CBW4asr_system@@V?$map@W4asr_tensor@@PEBDU?$less@W4asr_tensor@@@std@@V?$allocator@U?$pair@$$CBW4asr_tensor@@PEBD@std@@@3@@std@@@1@@Z
	??$destroy@U?$pair@$$CBW4asr_tensor@@PEBD@std@@@?$_Default_allocator_traits@V?$allocator@U?$_Tree_node@U?$pair@$$CBW4asr_tensor@@PEBD@std@@PEAX@std@@@std@@@std@@SAXAEAV?$allocator@U?$_Tree_node@U?$pair@$$CBW4asr_tensor@@PEBD@std@@PEAX@std@@@1@QEAU?$pair@$$CBW4asr_tensor@@PEBD@1@@Z
	??$destroy@U?$pair@$$CBW4asr_tensor@@W4ggml_op@@@std@@@?$_Default_allocator_traits@V?$allocator@U?$_Tree_node@U?$pair@$$CBW4asr_tensor@@W4ggml_op@@@std@@PEAX@std@@@std@@@std@@SAXAEAV?$allocator@U?$_Tree_node@U?$pair@$$CBW4asr_tensor@@W4ggml_op@@@std@@PEAX@std@@@1@QEAU?$pair@$$CBW4asr_tensor@@W4ggml_op@@@1@@Z
	??$destroy@U?$pair@$$CBW4e_model@@V?$basic_string@DU?$char_traits@D@std@@V?$allocator@D@2@@std@@@std@@@?$_Default_allocator_traits@V?$allocator@U?$_Tree_node@U?$pair@$$CBW4e_model@@V?$basic_string@DU?$char_traits@D@std@@V?$allocator@D@2@@std@@@std@@PEAX@std@@@std@@@std@@SAXAEAV?$allocator@U?$_Tree_node@U?$pair@$$CBW4e_model@@V?$basic_string@DU?$char_traits@D@std@@V?$allocator@D@2@@std@@@std@@PEAX@std@@@1@QEAU?$pair@$$CBW4e_model@@V?$basic_string@DU?$char_traits@D@std@@V?$allocator@D@2@@std@@@1@@Z
	??$destroy@U?$pair@$$CBW4vad_tensor@@PEBD@std@@@?$_Default_allocator_traits@V?$allocator@U?$_Tree_node@U?$pair@$$CBW4vad_tensor@@PEBD@std@@PEAX@std@@@std@@@std@@SAXAEAV?$allocator@U?$_Tree_node@U?$pair@$$CBW4vad_tensor@@PEBD@std@@PEAX@std@@@1@QEAU?$pair@$$CBW4vad_tensor@@PEBD@1@@Z
	??$destroy@U?$pair@$$CBW4vad_tensor@@W4ggml_op@@@std@@@?$_Default_allocator_traits@V?$allocator@U?$_Tree_node@U?$pair@$$CBW4vad_tensor@@W4ggml_op@@@std@@PEAX@std@@@std@@@std@@SAXAEAV?$allocator@U?$_Tree_node@U?$pair@$$CBW4vad_tensor@@W4ggml_op@@@std@@PEAX@std@@@1@QEAU?$pair@$$CBW4vad_tensor@@W4ggml_op@@@1@@Z
	??$destroy@U?$pair@$$CBW4whisper_alignment_heads_preset@@Uwhisper_aheads@@@std@@@?$_Default_allocator_traits@V?$allocator@U?$_Tree_node@U?$pair@$$CBW4whisper_alignment_heads_preset@@Uwhisper_aheads@@@std@@PEAX@std@@@std@@@std@@SAXAEAV?$allocator@U?$_Tree_node@U?$pair@$$CBW4whisper_alignment_heads_preset@@Uwhisper_aheads@@@std@@PEAX@std@@@1@QEAU?$pair@$$CBW4whisper_alignment_heads_preset@@Uwhisper_aheads@@@1@@Z
	??$destroy@U?$pair@QEAUggml_backend_buffer_type@@PEAUggml_context@@@std@@@?$_Default_allocator_traits@V?$allocator@U?$_Tree_node@U?$pair@QEAUggml_backend_buffer_type@@PEAUggml_context@@@std@@PEAX@std@@@std@@@std@@SAXAEAV?$allocator@U?$_Tree_node@U?$pair@QEAUggml_backend_buffer_type@@PEAUggml_context@@@std@@PEAX@std@@@1@QEAU?$pair@QEAUggml_backend_buffer_type@@PEAUggml_context@@@1@@Z
	??$destroy@U?$pair@V?$vector@IV?$allocator@I@std@@@std@@Uwhisper_partial_utf8@@@std@@@?$_Default_allocator_traits@V?$allocator@U?$pair@V?$vector@IV?$allocator@I@std@@@std@@Uwhisper_partial_utf8@@@std@@@std@@@std@@SAXAEAV?$allocator@U?$pair@V?$vector@IV?$allocator@I@std@@@std@@Uwhisper_partial_utf8@@@std@@@1@QEAU?$pair@V?$vector@IV?$allocator@I@std@@@std@@Uwhisper_partial_utf8@@@1@@Z
	??$destroy@Uwhisper_kv_cell@@@?$_Default_allocator_traits@V?$allocator@Uwhisper_kv_cell@@@std@@@std@@SAXAEAV?$allocator@Uwhisper_kv_cell@@@1@QEAUwhisper_kv_cell@@@Z
	??$destroy@Uwhisper_segment@@@?$_Default_allocator_traits@V?$allocator@Uwhisper_segment@@@std@@@std@@SAXAEAV?$allocator@Uwhisper_segment@@@1@QEAUwhisper_segment@@@Z
	??$destroy@V?$_Tgt_state_t@PEBD@std@@@?$_Default_allocator_traits@V?$allocator@V?$_Tgt_state_t@PEBD@std@@@std@@@std@@SAXAEAV?$allocator@V?$_Tgt_state_t@PEBD@std@@@1@QEAV?$_Tgt_state_t@PEBD@1@@Z
	??$destroy@V?$_Tgt_state_t@V?$_String_const_iterator@V?$_String_val@U?$_Simple_types@D@std@@@std@@@std@@@std@@@?$_Default_allocator_traits@V?$allocator@V?$_Tgt_state_t@V?$_String_const_iterator@V?$_String_val@U?$_Simple_types@D@std@@@std@@@std@@@std@@@std@@@std@@SAXAEAV?$allocator@V?$_Tgt_state_t@V?$_String_const_iterator@V?$_String_val@U?$_Simple_types@D@std@@@std@@@std@@@std@@@1@QEAV?$_Tgt_state_t@V?$_String_const_iterator@V?$_String_val@U?$_Simple_types@D@std@@@std@@@std@@@1@@Z
	??$destroy@V?$basic_string@DU?$char_traits@D@std@@V?$allocator@D@2@@std@@@?$_Default_allocator_traits@V?$allocator@V?$basic_string@DU?$char_traits@D@std@@V?$allocator@D@2@@std@@@std@@@std@@SAXAEAV?$allocator@V?$basic_string@DU?$char_traits@D@std@@V?$allocator@D@2@@std@@@1@QEAV?$basic_string@DU?$char_traits@D@std@@V?$allocator@D@2@@1@@Z
	??$destroy@V?$vector@PEBUwhisper_grammar_element@@V?$allocator@PEBUwhisper_grammar_element@@@std@@@std@@@?$_Default_allocator_traits@V?$allocator@V?$vector@PEBUwhisper_grammar_element@@V?$allocator@PEBUwhisper_grammar_element@@@std@@@std@@@std@@@std@@SAXAEAV?$allocator@V?$vector@PEBUwhisper_grammar_element@@V?$allocator@PEBUwhisper_grammar_element@@@std@@@std@@@1@QEAV?$vector@PEBUwhisper_grammar_element@@V?$allocator@PEBUwhisper_grammar_element@@@std@@@1@@Z
	??$destroy@V?$vector@Uwhisper_grammar_element@@V?$allocator@Uwhisper_grammar_element@@@std@@@std@@@?$_Default_allocator_traits@V?$allocator@V?$vector@Uwhisper_grammar_element@@V?$allocator@Uwhisper_grammar_element@@@std@@@std@@@std@@@std@@SAXAEAV?$allocator@V?$vector@Uwhisper_grammar_element@@V?$allocator@Uwhisper_grammar_element@@@std@@@std@@@1@QEAV?$vector@Uwhisper_grammar_element@@V?$allocator@Uwhisper_grammar_element@@@std@@@1@@Z
	??$destroy@Vthread@std@@@?$_Default_allocator_traits@V?$allocator@Vthread@std@@@std@@@std@@SAXAEAV?$allocator@Vthread@std@@@1@QEAVthread@1@@Z
	??$distance@PEAH@std@@YA_JPEAH0@Z
	??$distance@PEAUwhisper_token_data@@@std@@YA_JPEAUwhisper_token_data@@0@Z
	??$distance@PEBD@std@@YA_JPEBD0@Z
	??$distance@PEBH@std@@YA_JPEBH0@Z
	??$distance@PEBM@std@@YA_JPEBM0@Z
	??$distance@PEBN@std@@YA_JPEBN0@Z
	??$distance@PEBQEBUwhisper_grammar_element@@@std@@YA_JPEBQEBUwhisper_grammar_element@@0@Z
	??$distance@PEBUvad_time_mapping@@@std@@YA_JPEBUvad_time_mapping@@0@Z
	??$distance@V?$_String_const_iterator@V?$_String_val@U?$_Simple_types@D@std@@@std@@@std@@@std@@YA_JV?$_String_const_iterator@V?$_String_val@U?$_Simple_types@D@std@@@std@@@0@0@Z
	??$distance@V?$_Tree_unchecked_const_iterator@V?$_Tree_val@U?$_Tree_simple_types@H@std@@@std@@U_Iterator_base0@2@@std@@@std@@YA_JV?$_Tree_unchecked_const_iterator@V?$_Tree_val@U?$_Tree_simple_types@H@std@@@std@@U_Iterator_base0@2@@0@0@Z
	??$emplace_back@$$V@?$vector@V?$vector@PEBUwhisper_grammar_element@@V?$allocator@PEBUwhisper_grammar_element@@@std@@@std@@V?$allocator@V?$vector@PEBUwhisper_grammar_element@@V?$allocator@PEBUwhisper_grammar_element@@@std@@@std@@@2@@std@@QEAAXXZ
	??$emplace_back@AEAMAEBH@?$vector@U?$whisper_pair@NH@@V?$allocator@U?$whisper_pair@NH@@@std@@@std@@QEAAXAEAMAEBH@Z
	??$emplace_back@AEAPEAUggml_backend_buffer@@@?$vector@PEAUggml_backend_buffer@@V?$allocator@PEAUggml_backend_buffer@@@std@@@std@@QEAAXAEAPEAUggml_backend_buffer@@@Z
	??$emplace_back@AEAPEAUggml_backend_device@@AEAPEAUggml_backend_buffer_type@@@?$vector@U?$pair@PEAUggml_backend_device@@PEAUggml_backend_buffer_type@@@std@@V?$allocator@U?$pair@PEAUggml_backend_device@@PEAUggml_backend_buffer_type@@@std@@@2@@std@@QEAAXAEAPEAUggml_backend_device@@AEAPEAUggml_backend_buffer_type@@@Z
	??$emplace_back@AEAPEAUggml_backend_device@@PEAUggml_backend_buffer_type@@@?$vector@U?$pair@PEAUggml_backend_device@@PEAUggml_backend_buffer_type@@@std@@V?$allocator@U?$pair@PEAUggml_backend_device@@PEAUggml_backend_buffer_type@@@std@@@2@@std@@QEAAXAEAPEAUggml_backend_device@@$$QEAPEAUggml_backend_buffer_type@@@Z
	??$emplace_back@AEAPEAUggml_context@@@?$vector@PEAUggml_context@@V?$allocator@PEAUggml_context@@@std@@@std@@QEAAXAEAPEAUggml_context@@@Z
	??$end@$$CBD$01@std@@YAPEBDAEAY01$$CBD@Z
	??$end@D$0BF@@std@@YAPEADAEAY0BF@D@Z
	??$equal@PEBDPEBD@std@@YA_NQEBD00@Z
	??$equal@PEBDPEBDU?$_Cmp_icase@V?$_Regex_traits@D@std@@@std@@@std@@YA_NQEBD000U?$_Cmp_icase@V?$_Regex_traits@D@std@@@0@@Z
	??$equal@PEBDPEBDU?$_Cmp_icase@V?$_Regex_traits@D@std@@@std@@@std@@YA_NQEBD00U?$_Cmp_icase@V?$_Regex_traits@D@std@@@0@@Z
	??$equal@PEBDPEBDU?$equal_to@X@std@@@std@@YA_NQEBD00U?$equal_to@X@0@@Z
	??$exchange@PEAH$$T@std@@YAPEAHAEAPEAH$$QEA$$T@Z
	??$exchange@PEAI$$T@std@@YAPEAIAEAPEAI$$QEA$$T@Z
	??$exchange@PEAM$$T@std@@YAPEAMAEAPEAM$$QEA$$T@Z
	??$exchange@PEAPEAUggml_backend@@$$T@std@@YAPEAPEAUggml_backend@@AEAPEAPEAU1@$$QEA$$T@Z
	??$exchange@PEAPEBUwhisper_grammar_element@@$$T@std@@YAPEAPEBUwhisper_grammar_element@@AEAPEAPEBU1@$$QEA$$T@Z
	??$exchange@PEAU?$_Tree_node@HPEAX@std@@$$T@std@@YAPEAU?$_Tree_node@HPEAX@0@AEAPEAU10@$$QEA$$T@Z
	??$exchange@PEAU?$_Tree_node@HPEAX@std@@AEAPEAU12@@std@@YAPEAU?$_Tree_node@HPEAX@0@AEAPEAU10@0@Z
	??$exchange@PEAU?$_Tree_node@U?$pair@$$CBHH@std@@PEAX@std@@$$T@std@@YAPEAU?$_Tree_node@U?$pair@$$CBHH@std@@PEAX@0@AEAPEAU10@$$QEA$$T@Z
	??$exchange@PEAU?$_Tree_node@U?$pair@$$CBHH@std@@PEAX@std@@AEAPEAU12@@std@@YAPEAU?$_Tree_node@U?$pair@$$CBHH@std@@PEAX@0@AEAPEAU10@0@Z
	??$exchange@PEAU?$_Tree_node@U?$pair@$$CBHV?$basic_string@DU?$char_traits@D@std@@V?$allocator@D@2@@std@@@std@@PEAX@std@@$$T@std@@YAPEAU?$_Tree_node@U?$pair@$$CBHV?$basic_string@DU?$char_traits@D@std@@V?$allocator@D@2@@std@@@std@@PEAX@0@AEAPEAU10@$$QEA$$T@Z
	??$exchange@PEAU?$_Tree_node@U?$pair@$$CBHV?$basic_string@DU?$char_traits@D@std@@V?$allocator@D@2@@std@@@std@@PEAX@std@@AEAPEAU12@@std@@YAPEAU?$_Tree_node@U?$pair@$$CBHV?$basic_string@DU?$char_traits@D@std@@V?$allocator@D@2@@std@@@std@@PEAX@0@AEAPEAU10@0@Z
	??$exchange@PEAU?$_Tree_node@U?$pair@$$CBV?$basic_string@DU?$char_traits@D@std@@V?$allocator@D@2@@std@@H@std@@PEAX@std@@$$T@std@@YAPEAU?$_Tree_node@U?$pair@$$CBV?$basic_string@DU?$char_traits@D@std@@V?$allocator@D@2@@std@@H@std@@PEAX@0@AEAPEAU10@$$QEA$$T@Z
	??$exchange@PEAU?$_Tree_node@U?$pair@$$CBV?$basic_string@DU?$char_traits@D@std@@V?$allocator@D@2@@std@@H@std@@PEAX@std@@AEAPEAU12@@std@@YAPEAU?$_Tree_node@U?$pair@$$CBV?$basic_string@DU?$char_traits@D@std@@V?$allocator@D@2@@std@@H@std@@PEAX@0@AEAPEAU10@0@Z
	??$exchange@PEAU?$_Tree_node@U?$pair@$$CBV?$basic_string@DU?$char_traits@D@std@@V?$allocator@D@2@@std@@PEAUggml_tensor@@@std@@PEAX@std@@$$T@std@@YAPEAU?$_Tree_node@U?$pair@$$CBV?$basic_string@DU?$char_traits@D@std@@V?$allocator@D@2@@std@@PEAUggml_tensor@@@std@@PEAX@0@AEAPEAU10@$$QEA$$T@Z
	??$exchange@PEAU?$_Tree_node@U?$pair@$$CBV?$basic_string@DU?$char_traits@D@std@@V?$allocator@D@2@@std@@PEAUggml_tensor@@@std@@PEAX@std@@AEAPEAU12@@std@@YAPEAU?$_Tree_node@U?$pair@$$CBV?$basic_string@DU?$char_traits@D@std@@V?$allocator@D@2@@std@@PEAUggml_tensor@@@std@@PEAX@0@AEAPEAU10@0@Z
	??$exchange@PEAU?$_Tree_node@U?$pair@$$CBV?$basic_string@DU?$char_traits@D@std@@V?$allocator@D@2@@std@@U?$pair@HV?$basic_string@DU?$char_traits@D@std@@V?$allocator@D@2@@std@@@2@@std@@PEAX@std@@$$T@std@@YAPEAU?$_Tree_node@U?$pair@$$CBV?$basic_string@DU?$char_traits@D@std@@V?$allocator@D@2@@std@@U?$pair@HV?$basic_string@DU?$char_traits@D@std@@V?$allocator@D@2@@std@@@2@@std@@PEAX@0@AEAPEAU10@$$QEA$$T@Z
	??$exchange@PEAU?$_Tree_node@U?$pair@$$CBV?$basic_string@DU?$char_traits@D@std@@V?$allocator@D@2@@std@@U?$pair@HV?$basic_string@DU?$char_traits@D@std@@V?$allocator@D@2@@std@@@2@@std@@PEAX@std@@AEAPEAU12@@std@@YAPEAU?$_Tree_node@U?$pair@$$CBV?$basic_string@DU?$char_traits@D@std@@V?$allocator@D@2@@std@@U?$pair@HV?$basic_string@DU?$char_traits@D@std@@V?$allocator@D@2@@std@@@2@@std@@PEAX@0@AEAPEAU10@0@Z
	??$exchange@PEAU?$_Tree_node@U?$pair@$$CBW4asr_system@@V?$map@W4asr_tensor@@PEBDU?$less@W4asr_tensor@@@std@@V?$allocator@U?$pair@$$CBW4asr_tensor@@PEBD@std@@@3@@std@@@std@@PEAX@std@@$$T@std@@YAPEAU?$_Tree_node@U?$pair@$$CBW4asr_system@@V?$map@W4asr_tensor@@PEBDU?$less@W4asr_tensor@@@std@@V?$allocator@U?$pair@$$CBW4asr_tensor@@PEBD@std@@@3@@std@@@std@@PEAX@0@AEAPEAU10@$$QEA$$T@Z
	??$exchange@PEAU?$_Tree_node@U?$pair@$$CBW4asr_system@@V?$map@W4asr_tensor@@PEBDU?$less@W4asr_tensor@@@std@@V?$allocator@U?$pair@$$CBW4asr_tensor@@PEBD@std@@@3@@std@@@std@@PEAX@std@@AEAPEAU12@@std@@YAPEAU?$_Tree_node@U?$pair@$$CBW4asr_system@@V?$map@W4asr_tensor@@PEBDU?$less@W4asr_tensor@@@std@@V?$allocator@U?$pair@$$CBW4asr_tensor@@PEBD@std@@@3@@std@@@std@@PEAX@0@AEAPEAU10@0@Z
	??$exchange@PEAU?$_Tree_node@U?$pair@$$CBW4asr_tensor@@PEBD@std@@PEAX@std@@$$T@std@@YAPEAU?$_Tree_node@U?$pair@$$CBW4asr_tensor@@PEBD@std@@PEAX@0@AEAPEAU10@$$QEA$$T@Z
	??$exchange@PEAU?$_Tree_node@U?$pair@$$CBW4asr_tensor@@PEBD@std@@PEAX@std@@AEAPEAU12@@std@@YAPEAU?$_Tree_node@U?$pair@$$CBW4asr_tensor@@PEBD@std@@PEAX@0@AEAPEAU10@0@Z
	??$exchange@PEAU?$_Tree_node@U?$pair@$$CBW4asr_tensor@@W4ggml_op@@@std@@PEAX@std@@$$T@std@@YAPEAU?$_Tree_node@U?$pair@$$CBW4asr_tensor@@W4ggml_op@@@std@@PEAX@0@AEAPEAU10@$$QEA$$T@Z
	??$exchange@PEAU?$_Tree_node@U?$pair@$$CBW4asr_tensor@@W4ggml_op@@@std@@PEAX@std@@AEAPEAU12@@std@@YAPEAU?$_Tree_node@U?$pair@$$CBW4asr_tensor@@W4ggml_op@@@std@@PEAX@0@AEAPEAU10@0@Z
	??$exchange@PEAU?$_Tree_node@U?$pair@$$CBW4e_model@@V?$basic_string@DU?$char_traits@D@std@@V?$allocator@D@2@@std@@@std@@PEAX@std@@$$T@std@@YAPEAU?$_Tree_node@U?$pair@$$CBW4e_model@@V?$basic_string@DU?$char_traits@D@std@@V?$allocator@D@2@@std@@@std@@PEAX@0@AEAPEAU10@$$QEA$$T@Z
	??$exchange@PEAU?$_Tree_node@U?$pair@$$CBW4e_model@@V?$basic_string@DU?$char_traits@D@std@@V?$allocator@D@2@@std@@@std@@PEAX@std@@AEAPEAU12@@std@@YAPEAU?$_Tree_node@U?$pair@$$CBW4e_model@@V?$basic_string@DU?$char_traits@D@std@@V?$allocator@D@2@@std@@@std@@PEAX@0@AEAPEAU10@0@Z
	??$exchange@PEAU?$_Tree_node@U?$pair@$$CBW4vad_tensor@@PEBD@std@@PEAX@std@@$$T@std@@YAPEAU?$_Tree_node@U?$pair@$$CBW4vad_tensor@@PEBD@std@@PEAX@0@AEAPEAU10@$$QEA$$T@Z
	??$exchange@PEAU?$_Tree_node@U?$pair@$$CBW4vad_tensor@@PEBD@std@@PEAX@std@@AEAPEAU12@@std@@YAPEAU?$_Tree_node@U?$pair@$$CBW4vad_tensor@@PEBD@std@@PEAX@0@AEAPEAU10@0@Z
	??$exchange@PEAU?$_Tree_node@U?$pair@$$CBW4vad_tensor@@W4ggml_op@@@std@@PEAX@std@@$$T@std@@YAPEAU?$_Tree_node@U?$pair@$$CBW4vad_tensor@@W4ggml_op@@@std@@PEAX@0@AEAPEAU10@$$QEA$$T@Z
	??$exchange@PEAU?$_Tree_node@U?$pair@$$CBW4vad_tensor@@W4ggml_op@@@std@@PEAX@std@@AEAPEAU12@@std@@YAPEAU?$_Tree_node@U?$pair@$$CBW4vad_tensor@@W4ggml_op@@@std@@PEAX@0@AEAPEAU10@0@Z
	??$exchange@PEAU?$_Tree_node@U?$pair@$$CBW4whisper_alignment_heads_preset@@Uwhisper_aheads@@@std@@PEAX@std@@$$T@std@@YAPEAU?$_Tree_node@U?$pair@$$CBW4whisper_alignment_heads_preset@@Uwhisper_aheads@@@std@@PEAX@0@AEAPEAU10@$$QEA$$T@Z
	??$exchange@PEAU?$_Tree_node@U?$pair@$$CBW4whisper_alignment_heads_preset@@Uwhisper_aheads@@@std@@PEAX@std@@AEAPEAU12@@std@@YAPEAU?$_Tree_node@U?$pair@$$CBW4whisper_alignment_heads_preset@@Uwhisper_aheads@@@std@@PEAX@0@AEAPEAU10@0@Z
	??$exchange@PEAU?$_Tree_node@U?$pair@QEAUggml_backend_buffer_type@@PEAUggml_context@@@std@@PEAX@std@@$$T@std@@YAPEAU?$_Tree_node@U?$pair@QEAUggml_backend_buffer_type@@PEAUggml_context@@@std@@PEAX@0@AEAPEAU10@$$QEA$$T@Z
	??$exchange@PEAU?$_Tree_node@U?$pair@QEAUggml_backend_buffer_type@@PEAUggml_context@@@std@@PEAX@std@@AEAPEAU12@@std@@YAPEAU?$_Tree_node@U?$pair@QEAUggml_backend_buffer_type@@PEAUggml_context@@@std@@PEAX@0@AEAPEAU10@0@Z
	??$exchange@PEAU?$pair@PEAUggml_backend_device@@PEAUggml_backend_buffer_type@@@std@@$$T@std@@YAPEAU?$pair@PEAUggml_backend_device@@PEAUggml_backend_buffer_type@@@0@AEAPEAU10@$$QEA$$T@Z
	??$exchange@PEAU_Grp_t@?$_Tgt_state_t@PEBD@std@@$$T@std@@YAPEAU_Grp_t@?$_Tgt_state_t@PEBD@0@AEAPEAU120@$$QEA$$T@Z
	??$exchange@PEAU_Grp_t@?$_Tgt_state_t@V?$_String_const_iterator@V?$_String_val@U?$_Simple_types@D@std@@@std@@@std@@@std@@$$T@std@@YAPEAU_Grp_t@?$_Tgt_state_t@V?$_String_const_iterator@V?$_String_val@U?$_Simple_types@D@std@@@std@@@std@@@0@AEAPEAU120@$$QEA$$T@Z
	??$exchange@PEAUwhisper_grammar_candidate@@$$T@std@@YAPEAUwhisper_grammar_candidate@@AEAPEAU1@$$QEA$$T@Z
	??$exchange@PEAUwhisper_token_data@@$$T@std@@YAPEAUwhisper_token_data@@AEAPEAU1@$$QEA$$T@Z
	??$exchange@PEAV?$tuple@P6AHPEAUwhisper_context@@PEAUwhisper_state@@Uwhisper_full_params@@PEBMH@ZPEAU1@PEAU2@U3@PEBMH@std@@$$T@std@@YAPEAV?$tuple@P6AHPEAUwhisper_context@@PEAUwhisper_state@@Uwhisper_full_params@@PEBMH@ZPEAU1@PEAU2@U3@PEBMH@0@AEAPEAV10@$$QEA$$T@Z
	??$exchange@PEAV?$tuple@P6AXHPEBMAEBV?$vector@MV?$allocator@M@std@@@std@@HHHHAEBUwhisper_filters@@AEAUwhisper_mel@@@ZHPEBMV?$reference_wrapper@$$CBV?$vector@MV?$allocator@M@std@@@std@@@2@_JHHHV?$reference_wrapper@$$CBUwhisper_filters@@@2@V?$reference_wrapper@Uwhisper_mel@@@2@@std@@$$T@std@@YAPEAV?$tuple@P6AXHPEBMAEBV?$vector@MV?$allocator@M@std@@@std@@HHHHAEBUwhisper_filters@@AEAUwhisper_mel@@@ZHPEBMV?$reference_wrapper@$$CBV?$vector@MV?$allocator@M@std@@@std@@@2@_JHHHV?$reference_wrapper@$$CBUwhisper_filters@@@2@V?$reference_wrapper@Uwhisper_mel@@@2@@0@AEAPEAV10@$$QEA$$T@Z
	??$exchange@PEAV?$vector@PEBUwhisper_grammar_element@@V?$allocator@PEBUwhisper_grammar_element@@@std@@@std@@$$T@std@@YAPEAV?$vector@PEBUwhisper_grammar_element@@V?$allocator@PEBUwhisper_grammar_element@@@std@@@0@AEAPEAV10@$$QEA$$T@Z
	??$exchange@PEAV?$vector@Uwhisper_grammar_element@@V?$allocator@Uwhisper_grammar_element@@@std@@@std@@$$T@std@@YAPEAV?$vector@Uwhisper_grammar_element@@V?$allocator@Uwhisper_grammar_element@@@std@@@0@AEAPEAV10@$$QEA$$T@Z
	??$exchange@PEAV_Facet_base@std@@$$T@std@@YAPEAV_Facet_base@0@AEAPEAV10@$$QEA$$T@Z
	??$exchange@PEAV_Node_assert@std@@$$T@std@@YAPEAV_Node_assert@0@AEAPEAV10@$$QEA$$T@Z
	??$exchange@U_Thrd_t@@U1@@std@@YA?AU_Thrd_t@@AEAU1@$$QEAU1@@Z
	??$exchange@_K_K@std@@YA_KAEA_K$$QEA_K@Z
	??$fill@PEANN@std@@YAXQEAN0AEBN@Z
	??$fill@V?$_Vb_iterator@U?$_Wrap_alloc@V?$allocator@I@std@@@std@@@std@@_N@std@@YAXV?$_Vb_iterator@U?$_Wrap_alloc@V?$allocator@I@std@@@std@@@0@0AEB_N@Z
	??$fill@V?$_Vector_iterator@V?$_Vector_val@U?$_Simple_types@M@std@@@std@@@std@@H@std@@YAXV?$_Vector_iterator@V?$_Vector_val@U?$_Simple_types@M@std@@@std@@@0@0AEBH@Z
	??$fill@V?$_Vector_iterator@V?$_Vector_val@U?$_Simple_types@M@std@@@std@@@std@@M@std@@YAXV?$_Vector_iterator@V?$_Vector_val@U?$_Simple_types@M@std@@@std@@@0@0AEBM@Z
	??$fill@V?$_Vector_iterator@V?$_Vector_val@U?$_Simple_types@M@std@@@std@@@std@@N@std@@YAXV?$_Vector_iterator@V?$_Vector_val@U?$_Simple_types@M@std@@@std@@@0@0AEBN@Z
	??$fill_n@V?$_Vb_iterator@U?$_Wrap_alloc@V?$allocator@I@std@@@std@@@std@@_K_N@std@@YA?AV?$_Vb_iterator@U?$_Wrap_alloc@V?$allocator@I@std@@@std@@@0@V10@_KAEB_N@Z
	??$find@PEBDD@std@@YAPEBDPEBDQEBDAEBD@Z
	??$find_first_of@V?$_String_const_iterator@V?$_String_val@U?$_Simple_types@D@std@@@std@@@std@@PEBD@std@@YA?AV?$_String_const_iterator@V?$_String_val@U?$_Simple_types@D@std@@@std@@@0@V10@0QEBD1@Z
	??$find_first_of@V?$_String_const_iterator@V?$_String_val@U?$_Simple_types@D@std@@@std@@@std@@PEBDU?$equal_to@X@2@@std@@YA?AV?$_String_const_iterator@V?$_String_val@U?$_Simple_types@D@std@@@std@@@0@V10@V10@QEBD2U?$equal_to@X@0@@Z
	??$forward@A6AHPEAUwhisper_context@@PEAUwhisper_state@@Uwhisper_full_params@@PEBMH@Z@std@@YAA6AHPEAUwhisper_context@@PEAUwhisper_state@@Uwhisper_full_params@@PEBMH@ZA6AH0123H@Z@Z
	??$forward@A6AXHPEBMAEBV?$vector@MV?$allocator@M@std@@@std@@HHHHAEBUwhisper_filters@@AEAUwhisper_mel@@@Z@std@@YAA6AXHPEBMAEBV?$vector@MV?$allocator@M@std@@@0@HHHHAEBUwhisper_filters@@AEAUwhisper_mel@@@ZA6AXH01HHHH23@Z@Z
	??$forward@AEAH@std@@YAAEAHAEAH@Z
	??$forward@AEAI@std@@YAAEAIAEAI@Z
	??$forward@AEAM@std@@YAAEAMAEAM@Z
	??$forward@AEAPEAD@std@@YAAEAPEADAEAPEAD@Z
	??$forward@AEAPEAM@std@@YAAEAPEAMAEAPEAM@Z
	??$forward@AEAPEAU?$_Tree_node@HPEAX@std@@@std@@YAAEAPEAU?$_Tree_node@HPEAX@0@AEAPEAU10@@Z
	??$forward@AEAPEAU?$_Tree_node@U?$pair@$$CBHH@std@@PEAX@std@@@std@@YAAEAPEAU?$_Tree_node@U?$pair@$$CBHH@std@@PEAX@0@AEAPEAU10@@Z
	??$forward@AEAPEAU?$_Tree_node@U?$pair@$$CBHV?$basic_string@DU?$char_traits@D@std@@V?$allocator@D@2@@std@@@std@@PEAX@std@@@std@@YAAEAPEAU?$_Tree_node@U?$pair@$$CBHV?$basic_string@DU?$char_traits@D@std@@V?$allocator@D@2@@std@@@std@@PEAX@0@AEAPEAU10@@Z
	??$forward@AEAPEAU?$_Tree_node@U?$pair@$$CBV?$basic_string@DU?$char_traits@D@std@@V?$allocator@D@2@@std@@H@std@@PEAX@std@@@std@@YAAEAPEAU?$_Tree_node@U?$pair@$$CBV?$basic_string@DU?$char_traits@D@std@@V?$allocator@D@2@@std@@H@std@@PEAX@0@AEAPEAU10@@Z
	??$forward@AEAPEAU?$_Tree_node@U?$pair@$$CBV?$basic_string@DU?$char_traits@D@std@@V?$allocator@D@2@@std@@PEAUggml_tensor@@@std@@PEAX@std@@@std@@YAAEAPEAU?$_Tree_node@U?$pair@$$CBV?$basic_string@DU?$char_traits@D@std@@V?$allocator@D@2@@std@@PEAUggml_tensor@@@std@@PEAX@0@AEAPEAU10@@Z
	??$forward@AEAPEAU?$_Tree_node@U?$pair@$$CBV?$basic_string@DU?$char_traits@D@std@@V?$allocator@D@2@@std@@U?$pair@HV?$basic_string@DU?$char_traits@D@std@@V?$allocator@D@2@@std@@@2@@std@@PEAX@std@@@std@@YAAEAPEAU?$_Tree_node@U?$pair@$$CBV?$basic_string@DU?$char_traits@D@std@@V?$allocator@D@2@@std@@U?$pair@HV?$basic_string@DU?$char_traits@D@std@@V?$allocator@D@2@@std@@@2@@std@@PEAX@0@AEAPEAU10@@Z
	??$forward@AEAPEAU?$_Tree_node@U?$pair@$$CBW4asr_system@@V?$map@W4asr_tensor@@PEBDU?$less@W4asr_tensor@@@std@@V?$allocator@U?$pair@$$CBW4asr_tensor@@PEBD@std@@@3@@std@@@std@@PEAX@std@@@std@@YAAEAPEAU?$_Tree_node@U?$pair@$$CBW4asr_system@@V?$map@W4asr_tensor@@PEBDU?$less@W4asr_tensor@@@std@@V?$allocator@U?$pair@$$CBW4asr_tensor@@PEBD@std@@@3@@std@@@std@@PEAX@0@AEAPEAU10@@Z
	??$forward@AEAPEAU?$_Tree_node@U?$pair@$$CBW4asr_tensor@@PEBD@std@@PEAX@std@@@std@@YAAEAPEAU?$_Tree_node@U?$pair@$$CBW4asr_tensor@@PEBD@std@@PEAX@0@AEAPEAU10@@Z
	??$forward@AEAPEAU?$_Tree_node@U?$pair@$$CBW4asr_tensor@@W4ggml_op@@@std@@PEAX@std@@@std@@YAAEAPEAU?$_Tree_node@U?$pair@$$CBW4asr_tensor@@W4ggml_op@@@std@@PEAX@0@AEAPEAU10@@Z
	??$forward@AEAPEAU?$_Tree_node@U?$pair@$$CBW4e_model@@V?$basic_string@DU?$char_traits@D@std@@V?$allocator@D@2@@std@@@std@@PEAX@std@@@std@@YAAEAPEAU?$_Tree_node@U?$pair@$$CBW4e_model@@V?$basic_string@DU?$char_traits@D@std@@V?$allocator@D@2@@std@@@std@@PEAX@0@AEAPEAU10@@Z
	??$forward@AEAPEAU?$_Tree_node@U?$pair@$$CBW4vad_tensor@@PEBD@std@@PEAX@std@@@std@@YAAEAPEAU?$_Tree_node@U?$pair@$$CBW4vad_tensor@@PEBD@std@@PEAX@0@AEAPEAU10@@Z
	??$forward@AEAPEAU?$_Tree_node@U?$pair@$$CBW4vad_tensor@@W4ggml_op@@@std@@PEAX@std@@@std@@YAAEAPEAU?$_Tree_node@U?$pair@$$CBW4vad_tensor@@W4ggml_op@@@std@@PEAX@0@AEAPEAU10@@Z
	??$forward@AEAPEAU?$_Tree_node@U?$pair@$$CBW4whisper_alignment_heads_preset@@Uwhisper_aheads@@@std@@PEAX@std@@@std@@YAAEAPEAU?$_Tree_node@U?$pair@$$CBW4whisper_alignment_heads_preset@@Uwhisper_aheads@@@std@@PEAX@0@AEAPEAU10@@Z
	??$forward@AEAPEAU?$_Tree_node@U?$pair@QEAUggml_backend_buffer_type@@PEAUggml_context@@@std@@PEAX@std@@@std@@YAAEAPEAU?$_Tree_node@U?$pair@QEAUggml_backend_buffer_type@@PEAUggml_context@@@std@@PEAX@0@AEAPEAU10@@Z
	??$forward@AEAPEAU?$whisper_pair@NH@@@std@@YAAEAPEAU?$whisper_pair@NH@@AEAPEAU1@@Z
	??$forward@AEAPEAUggml_backend@@@std@@YAAEAPEAUggml_backend@@AEAPEAU1@@Z
	??$forward@AEAPEAUggml_backend_buffer@@@std@@YAAEAPEAUggml_backend_buffer@@AEAPEAU1@@Z
	??$forward@AEAPEAUggml_backend_buffer_type@@@std@@YAAEAPEAUggml_backend_buffer_type@@AEAPEAU1@@Z
	??$forward@AEAPEAUggml_backend_device@@@std@@YAAEAPEAUggml_backend_device@@AEAPEAU1@@Z
	??$forward@AEAPEAUggml_context@@@std@@YAAEAPEAUggml_context@@AEAPEAU1@@Z
	??$forward@AEAPEAUvad_time_mapping@@@std@@YAAEAPEAUvad_time_mapping@@AEAPEAU1@@Z
	??$forward@AEAPEAUwhisper_context@@@std@@YAAEAPEAUwhisper_context@@AEAPEAU1@@Z
	??$forward@AEAPEAUwhisper_state@@@std@@YAAEAPEAUwhisper_state@@AEAPEAU1@@Z
	??$forward@AEAPEAV?$tuple@P6AHPEAUwhisper_context@@PEAUwhisper_state@@Uwhisper_full_params@@PEBMH@ZPEAU1@PEAU2@U3@PEBMH@std@@@std@@YAAEAPEAV?$tuple@P6AHPEAUwhisper_context@@PEAUwhisper_state@@Uwhisper_full_params@@PEBMH@ZPEAU1@PEAU2@U3@PEBMH@0@AEAPEAV10@@Z
	??$forward@AEAPEAV?$tuple@P6AXHPEBMAEBV?$vector@MV?$allocator@M@std@@@std@@HHHHAEBUwhisper_filters@@AEAUwhisper_mel@@@ZHPEBMV?$reference_wrapper@$$CBV?$vector@MV?$allocator@M@std@@@std@@@2@_JHHHV?$reference_wrapper@$$CBUwhisper_filters@@@2@V?$reference_wrapper@Uwhisper_mel@@@2@@std@@@std@@YAAEAPEAV?$tuple@P6AXHPEBMAEBV?$vector@MV?$allocator@M@std@@@std@@HHHHAEBUwhisper_filters@@AEAUwhisper_mel@@@ZHPEBMV?$reference_wrapper@$$CBV?$vector@MV?$allocator@M@std@@@std@@@2@_JHHHV?$reference_wrapper@$$CBUwhisper_filters@@@2@V?$reference_wrapper@Uwhisper_mel@@@2@@0@AEAPEAV10@@Z
	??$forward@AEAPEAV_Facet_base@std@@@std@@YAAEAPEAV_Facet_base@0@AEAPEAV10@@Z
	??$forward@AEAPEAV_Node_assert@std@@@std@@YAAEAPEAV_Node_assert@0@AEAPEAV10@@Z
	??$forward@AEAPEA_W@std@@YAAEAPEA_WAEAPEA_W@Z
	??$forward@AEAPEBD@std@@YAAEAPEBDAEAPEBD@Z
	??$forward@AEAPEBM@std@@YAAEAPEBMAEAPEBM@Z
	??$forward@AEAPEBN@std@@YAAEAPEBNAEAPEBN@Z
	??$forward@AEAPEBUvad_time_mapping@@@std@@YAAEAPEBUvad_time_mapping@@AEAPEBU1@@Z
	??$forward@AEAPEBUwhisper_grammar_element@@@std@@YAAEAPEBUwhisper_grammar_element@@AEAPEBU1@@Z
	??$forward@AEAU?$pair@$$CBW4asr_tensor@@PEBD@std@@@std@@YAAEAU?$pair@$$CBW4asr_tensor@@PEBD@0@AEAU10@@Z
	??$forward@AEAU?$pair@PEAUggml_backend_device@@PEAUggml_backend_buffer_type@@@std@@@std@@YAAEAU?$pair@PEAUggml_backend_device@@PEAUggml_backend_buffer_type@@@0@AEAU10@@Z
	??$forward@AEAU_Grp_t@?$_Tgt_state_t@PEBD@std@@@std@@YAAEAU_Grp_t@?$_Tgt_state_t@PEBD@0@AEAU120@@Z
	??$forward@AEAU_Grp_t@?$_Tgt_state_t@V?$_String_const_iterator@V?$_String_val@U?$_Simple_types@D@std@@@std@@@std@@@std@@@std@@YAAEAU_Grp_t@?$_Tgt_state_t@V?$_String_const_iterator@V?$_String_val@U?$_Simple_types@D@std@@@std@@@std@@@0@AEAU120@@Z
	??$forward@AEAUwhisper_grammar_element@@@std@@YAAEAUwhisper_grammar_element@@AEAU1@@Z
	??$forward@AEAUwhisper_kv_cell@@@std@@YAAEAUwhisper_kv_cell@@AEAU1@@Z
	??$forward@AEAUwhisper_token_data@@@std@@YAAEAUwhisper_token_data@@AEAU1@@Z
	??$forward@AEAV?$allocator@D@std@@@std@@YAAEAV?$allocator@D@0@AEAV10@@Z
	??$forward@AEAV?$vector@PEBUwhisper_grammar_element@@V?$allocator@PEBUwhisper_grammar_element@@@std@@@std@@@std@@YAAEAV?$vector@PEBUwhisper_grammar_element@@V?$allocator@PEBUwhisper_grammar_element@@@std@@@0@AEAV10@@Z
	??$forward@AEAV?$vector@Uwhisper_grammar_element@@V?$allocator@Uwhisper_grammar_element@@@std@@@std@@@std@@YAAEAV?$vector@Uwhisper_grammar_element@@V?$allocator@Uwhisper_grammar_element@@@std@@@0@AEAV10@@Z
	??$forward@AEAY03$$CBD@std@@YAAEAY03$$CBDAEAY03$$CBD@Z
	??$forward@AEAY04$$CBD@std@@YAAEAY04$$CBDAEAY04$$CBD@Z
	??$forward@AEAY05$$CBD@std@@YAAEAY05$$CBDAEAY05$$CBD@Z
	??$forward@AEAY06$$CBD@std@@YAAEAY06$$CBDAEAY06$$CBD@Z
	??$forward@AEAY07$$CBD@std@@YAAEAY07$$CBDAEAY07$$CBD@Z
	??$forward@AEAY08$$CBD@std@@YAAEAY08$$CBDAEAY08$$CBD@Z
	??$forward@AEAY09$$CBD@std@@YAAEAY09$$CBDAEAY09$$CBD@Z
	??$forward@AEAY0BA@$$CBD@std@@YAAEAY0BA@$$CBDAEAY0BA@$$CBD@Z
	??$forward@AEAY0BC@$$CBD@std@@YAAEAY0BC@$$CBDAEAY0BC@$$CBD@Z
	??$forward@AEAY0BD@$$CBD@std@@YAAEAY0BD@$$CBDAEAY0BD@$$CBD@Z
	??$forward@AEAY0BF@$$CBD@std@@YAAEAY0BF@$$CBDAEAY0BF@$$CBD@Z
	??$forward@AEAY0BH@$$CBD@std@@YAAEAY0BH@$$CBDAEAY0BH@$$CBD@Z
	??$forward@AEAY0BL@$$CBD@std@@YAAEAY0BL@$$CBDAEAY0BL@$$CBD@Z
	??$forward@AEAY0BN@$$CBD@std@@YAAEAY0BN@$$CBDAEAY0BN@$$CBD@Z
	??$forward@AEAY0BO@$$CBD@std@@YAAEAY0BO@$$CBDAEAY0BO@$$CBD@Z
	??$forward@AEAY0BP@$$CBD@std@@YAAEAY0BP@$$CBDAEAY0BP@$$CBD@Z
	??$forward@AEAY0CA@$$CBD@std@@YAAEAY0CA@$$CBDAEAY0CA@$$CBD@Z
	??$forward@AEAY0CB@$$CBD@std@@YAAEAY0CB@$$CBDAEAY0CB@$$CBD@Z
	??$forward@AEAY0CC@$$CBD@std@@YAAEAY0CC@$$CBDAEAY0CC@$$CBD@Z
	??$forward@AEAY0CD@$$CBD@std@@YAAEAY0CD@$$CBDAEAY0CD@$$CBD@Z
	??$forward@AEAY0CE@$$CBD@std@@YAAEAY0CE@$$CBDAEAY0CE@$$CBD@Z
	??$forward@AEAY0CF@$$CBD@std@@YAAEAY0CF@$$CBDAEAY0CF@$$CBD@Z
	??$forward@AEAY0CG@$$CBD@std@@YAAEAY0CG@$$CBDAEAY0CG@$$CBD@Z
	??$forward@AEAY0CH@$$CBD@std@@YAAEAY0CH@$$CBDAEAY0CH@$$CBD@Z
	??$forward@AEAY0CI@$$CBD@std@@YAAEAY0CI@$$CBDAEAY0CI@$$CBD@Z
	??$forward@AEAY0CK@$$CBD@std@@YAAEAY0CK@$$CBDAEAY0CK@$$CBD@Z
	??$forward@AEAY0L@$$CBD@std@@YAAEAY0L@$$CBDAEAY0L@$$CBD@Z
	??$forward@AEAY0M@$$CBD@std@@YAAEAY0M@$$CBDAEAY0M@$$CBD@Z
	??$forward@AEAY0O@$$CBD@std@@YAAEAY0O@$$CBDAEAY0O@$$CBD@Z
	??$forward@AEAY0P@$$CBD@std@@YAAEAY0P@$$CBDAEAY0P@$$CBD@Z
	??$forward@AEBD@std@@YAAEBDAEBD@Z
	??$forward@AEBH@std@@YAAEBHAEBH@Z
	??$forward@AEBI@std@@YAAEBIAEBI@Z
	??$forward@AEBM@std@@YAAEBMAEBM@Z
	??$forward@AEBN@std@@YAAEBNAEBN@Z
	??$forward@AEBQEAD@std@@YAAEBQEADAEBQEAD@Z
	??$forward@AEBQEAI@std@@YAAEBQEAIAEBQEAI@Z
	??$forward@AEBQEAPEAUggml_backend@@@std@@YAAEBQEAPEAUggml_backend@@AEBQEAPEAU1@@Z
	??$forward@AEBQEAPEBUwhisper_grammar_element@@@std@@YAAEBQEAPEBUwhisper_grammar_element@@AEBQEAPEBU1@@Z
	??$forward@AEBQEAU?$_Tree_node@HPEAX@std@@@std@@YAAEBQEAU?$_Tree_node@HPEAX@0@AEBQEAU10@@Z
	??$forward@AEBQEAU?$_Tree_node@U?$pair@$$CBHH@std@@PEAX@std@@@std@@YAAEBQEAU?$_Tree_node@U?$pair@$$CBHH@std@@PEAX@0@AEBQEAU10@@Z
	??$forward@AEBQEAU?$_Tree_node@U?$pair@$$CBHV?$basic_string@DU?$char_traits@D@std@@V?$allocator@D@2@@std@@@std@@PEAX@std@@@std@@YAAEBQEAU?$_Tree_node@U?$pair@$$CBHV?$basic_string@DU?$char_traits@D@std@@V?$allocator@D@2@@std@@@std@@PEAX@0@AEBQEAU10@@Z
	??$forward@AEBQEAU?$_Tree_node@U?$pair@$$CBV?$basic_string@DU?$char_traits@D@std@@V?$allocator@D@2@@std@@H@std@@PEAX@std@@@std@@YAAEBQEAU?$_Tree_node@U?$pair@$$CBV?$basic_string@DU?$char_traits@D@std@@V?$allocator@D@2@@std@@H@std@@PEAX@0@AEBQEAU10@@Z
	??$forward@AEBQEAU?$_Tree_node@U?$pair@$$CBV?$basic_string@DU?$char_traits@D@std@@V?$allocator@D@2@@std@@PEAUggml_tensor@@@std@@PEAX@std@@@std@@YAAEBQEAU?$_Tree_node@U?$pair@$$CBV?$basic_string@DU?$char_traits@D@std@@V?$allocator@D@2@@std@@PEAUggml_tensor@@@std@@PEAX@0@AEBQEAU10@@Z
	??$forward@AEBQEAU?$_Tree_node@U?$pair@$$CBV?$basic_string@DU?$char_traits@D@std@@V?$allocator@D@2@@std@@U?$pair@HV?$basic_string@DU?$char_traits@D@std@@V?$allocator@D@2@@std@@@2@@std@@PEAX@std@@@std@@YAAEBQEAU?$_Tree_node@U?$pair@$$CBV?$basic_string@DU?$char_traits@D@std@@V?$allocator@D@2@@std@@U?$pair@HV?$basic_string@DU?$char_traits@D@std@@V?$allocator@D@2@@std@@@2@@std@@PEAX@0@AEBQEAU10@@Z
	??$forward@AEBQEAU?$_Tree_node@U?$pair@$$CBW4asr_system@@V?$map@W4asr_tensor@@PEBDU?$less@W4asr_tensor@@@std@@V?$allocator@U?$pair@$$CBW4asr_tensor@@PEBD@std@@@3@@std@@@std@@PEAX@std@@@std@@YAAEBQEAU?$_Tree_node@U?$pair@$$CBW4asr_system@@V?$map@W4asr_tensor@@PEBDU?$less@W4asr_tensor@@@std@@V?$allocator@U?$pair@$$CBW4asr_tensor@@PEBD@std@@@3@@std@@@std@@PEAX@0@AEBQEAU10@@Z
	??$forward@AEBQEAU?$_Tree_node@U?$pair@$$CBW4asr_tensor@@PEBD@std@@PEAX@std@@@std@@YAAEBQEAU?$_Tree_node@U?$pair@$$CBW4asr_tensor@@PEBD@std@@PEAX@0@AEBQEAU10@@Z
	??$forward@AEBQEAU?$_Tree_node@U?$pair@$$CBW4asr_tensor@@W4ggml_op@@@std@@PEAX@std@@@std@@YAAEBQEAU?$_Tree_node@U?$pair@$$CBW4asr_tensor@@W4ggml_op@@@std@@PEAX@0@AEBQEAU10@@Z
	??$forward@AEBQEAU?$_Tree_node@U?$pair@$$CBW4e_model@@V?$basic_string@DU?$char_traits@D@std@@V?$allocator@D@2@@std@@@std@@PEAX@std@@@std@@YAAEBQEAU?$_Tree_node@U?$pair@$$CBW4e_model@@V?$basic_string@DU?$char_traits@D@std@@V?$allocator@D@2@@std@@@std@@PEAX@0@AEBQEAU10@@Z
	??$forward@AEBQEAU?$_Tree_node@U?$pair@$$CBW4vad_tensor@@PEBD@std@@PEAX@std@@@std@@YAAEBQEAU?$_Tree_node@U?$pair@$$CBW4vad_tensor@@PEBD@std@@PEAX@0@AEBQEAU10@@Z
	??$forward@AEBQEAU?$_Tree_node@U?$pair@$$CBW4vad_tensor@@W4ggml_op@@@std@@PEAX@std@@@std@@YAAEBQEAU?$_Tree_node@U?$pair@$$CBW4vad_tensor@@W4ggml_op@@@std@@PEAX@0@AEBQEAU10@@Z
	??$forward@AEBQEAU?$_Tree_node@U?$pair@$$CBW4whisper_alignment_heads_preset@@Uwhisper_aheads@@@std@@PEAX@std@@@std@@YAAEBQEAU?$_Tree_node@U?$pair@$$CBW4whisper_alignment_heads_preset@@Uwhisper_aheads@@@std@@PEAX@0@AEBQEAU10@@Z
	??$forward@AEBQEAU?$_Tree_node@U?$pair@QEAUggml_backend_buffer_type@@PEAUggml_context@@@std@@PEAX@std@@@std@@YAAEBQEAU?$_Tree_node@U?$pair@QEAUggml_backend_buffer_type@@PEAUggml_context@@@std@@PEAX@0@AEBQEAU10@@Z
	??$forward@AEBQEAU?$pair@PEAUggml_backend_device@@PEAUggml_backend_buffer_type@@@std@@@std@@YAAEBQEAU?$pair@PEAUggml_backend_device@@PEAUggml_backend_buffer_type@@@0@AEBQEAU10@@Z
	??$forward@AEBQEAU_Grp_t@?$_Tgt_state_t@PEBD@std@@@std@@YAAEBQEAU_Grp_t@?$_Tgt_state_t@PEBD@0@AEBQEAU120@@Z
	??$forward@AEBQEAU_Grp_t@?$_Tgt_state_t@V?$_String_const_iterator@V?$_String_val@U?$_Simple_types@D@std@@@std@@@std@@@std@@@std@@YAAEBQEAU_Grp_t@?$_Tgt_state_t@V?$_String_const_iterator@V?$_String_val@U?$_Simple_types@D@std@@@std@@@std@@@0@AEBQEAU120@@Z
	??$forward@AEBQEAUggml_backend@@@std@@YAAEBQEAUggml_backend@@AEBQEAU1@@Z
	??$forward@AEBQEAUggml_backend_buffer_type@@@std@@YAAEBQEAUggml_backend_buffer_type@@AEBQEAU1@@Z
	??$forward@AEBQEAUvad_time_mapping@@@std@@YAAEBQEAUvad_time_mapping@@AEBQEAU1@@Z
	??$forward@AEBQEAUwhisper_grammar_element@@@std@@YAAEBQEAUwhisper_grammar_element@@AEBQEAU1@@Z
	??$forward@AEBQEAUwhisper_token_data@@@std@@YAAEBQEAUwhisper_token_data@@AEBQEAU1@@Z
	??$forward@AEBQEAV?$vector@PEBUwhisper_grammar_element@@V?$allocator@PEBUwhisper_grammar_element@@@std@@@std@@@std@@YAAEBQEAV?$vector@PEBUwhisper_grammar_element@@V?$allocator@PEBUwhisper_grammar_element@@@std@@@0@AEBQEAV10@@Z
	??$forward@AEBQEAV?$vector@Uwhisper_grammar_element@@V?$allocator@Uwhisper_grammar_element@@@std@@@std@@@std@@YAAEBQEAV?$vector@Uwhisper_grammar_element@@V?$allocator@Uwhisper_grammar_element@@@std@@@0@AEBQEAV10@@Z
	??$forward@AEBQEA_W@std@@YAAEBQEA_WAEBQEA_W@Z
	??$forward@AEBQEBUwhisper_grammar_element@@@std@@YAAEBQEBUwhisper_grammar_element@@AEBQEBU1@@Z
	??$forward@AEBU?$less@H@std@@@std@@YAAEBU?$less@H@0@AEBU10@@Z
	??$forward@AEBU?$less@PEAUggml_backend_buffer_type@@@std@@@std@@YAAEBU?$less@PEAUggml_backend_buffer_type@@@0@AEBU10@@Z
	??$forward@AEBU?$less@V?$basic_string@DU?$char_traits@D@std@@V?$allocator@D@2@@std@@@std@@@std@@YAAEBU?$less@V?$basic_string@DU?$char_traits@D@std@@V?$allocator@D@2@@std@@@0@AEBU10@@Z
	??$forward@AEBU?$less@W4asr_system@@@std@@@std@@YAAEBU?$less@W4asr_system@@@0@AEBU10@@Z
	??$forward@AEBU?$less@W4asr_tensor@@@std@@@std@@YAAEBU?$less@W4asr_tensor@@@0@AEBU10@@Z
	??$forward@AEBU?$less@W4e_model@@@std@@@std@@YAAEBU?$less@W4e_model@@@0@AEBU10@@Z
	??$forward@AEBU?$less@W4vad_tensor@@@std@@@std@@YAAEBU?$less@W4vad_tensor@@@0@AEBU10@@Z
	??$forward@AEBU?$less@W4whisper_alignment_heads_preset@@@std@@@std@@YAAEBU?$less@W4whisper_alignment_heads_preset@@@0@AEBU10@@Z
	??$forward@AEBU?$pair@$$CBV?$basic_string@DU?$char_traits@D@std@@V?$allocator@D@2@@std@@U?$pair@HV?$basic_string@DU?$char_traits@D@std@@V?$allocator@D@2@@std@@@2@@std@@@std@@YAAEBU?$pair@$$CBV?$basic_string@DU?$char_traits@D@std@@V?$allocator@D@2@@std@@U?$pair@HV?$basic_string@DU?$char_traits@D@std@@V?$allocator@D@2@@std@@@2@@0@AEBU10@@Z
	??$forward@AEBU?$pair@$$CBW4asr_system@@V?$map@W4asr_tensor@@PEBDU?$less@W4asr_tensor@@@std@@V?$allocator@U?$pair@$$CBW4asr_tensor@@PEBD@std@@@3@@std@@@std@@@std@@YAAEBU?$pair@$$CBW4asr_system@@V?$map@W4asr_tensor@@PEBDU?$less@W4asr_tensor@@@std@@V?$allocator@U?$pair@$$CBW4asr_tensor@@PEBD@std@@@3@@std@@@0@AEBU10@@Z
	??$forward@AEBU?$pair@$$CBW4asr_tensor@@PEBD@std@@@std@@YAAEBU?$pair@$$CBW4asr_tensor@@PEBD@0@AEBU10@@Z
	??$forward@AEBU?$pair@$$CBW4asr_tensor@@W4ggml_op@@@std@@@std@@YAAEBU?$pair@$$CBW4asr_tensor@@W4ggml_op@@@0@AEBU10@@Z
	??$forward@AEBU?$pair@$$CBW4e_model@@V?$basic_string@DU?$char_traits@D@std@@V?$allocator@D@2@@std@@@std@@@std@@YAAEBU?$pair@$$CBW4e_model@@V?$basic_string@DU?$char_traits@D@std@@V?$allocator@D@2@@std@@@0@AEBU10@@Z
	??$forward@AEBU?$pair@$$CBW4vad_tensor@@PEBD@std@@@std@@YAAEBU?$pair@$$CBW4vad_tensor@@PEBD@0@AEBU10@@Z
	??$forward@AEBU?$pair@$$CBW4vad_tensor@@W4ggml_op@@@std@@@std@@YAAEBU?$pair@$$CBW4vad_tensor@@W4ggml_op@@@0@AEBU10@@Z
	??$forward@AEBU?$pair@$$CBW4whisper_alignment_heads_preset@@Uwhisper_aheads@@@std@@@std@@YAAEBU?$pair@$$CBW4whisper_alignment_heads_preset@@Uwhisper_aheads@@@0@AEBU10@@Z
	??$forward@AEBUpiecewise_construct_t@std@@@std@@YAAEBUpiecewise_construct_t@0@AEBU10@@Z
	??$forward@AEBUvad_segment_info@whisper_state@@@std@@YAAEBUvad_segment_info@whisper_state@@AEBU12@@Z
	??$forward@AEBUvad_time_mapping@@@std@@YAAEBUvad_time_mapping@@AEBU1@@Z
	??$forward@AEBUwhisper_grammar_candidate@@@std@@YAAEBUwhisper_grammar_candidate@@AEBU1@@Z
	??$forward@AEBUwhisper_grammar_element@@@std@@YAAEBUwhisper_grammar_element@@AEBU1@@Z
	??$forward@AEBUwhisper_token_data@@@std@@YAAEBUwhisper_token_data@@AEBU1@@Z
	??$forward@AEBV?$_Tgt_state_t@PEBD@std@@@std@@YAAEBV?$_Tgt_state_t@PEBD@0@AEBV10@@Z
	??$forward@AEBV?$_Tgt_state_t@V?$_String_const_iterator@V?$_String_val@U?$_Simple_types@D@std@@@std@@@std@@@std@@@std@@YAAEBV?$_Tgt_state_t@V?$_String_const_iterator@V?$_String_val@U?$_Simple_types@D@std@@@std@@@std@@@0@AEBV10@@Z
	??$forward@AEBV?$allocator@D@std@@@std@@YAAEBV?$allocator@D@0@AEBV10@@Z
	??$forward@AEBV?$allocator@E@std@@@std@@YAAEBV?$allocator@E@0@AEBV10@@Z
	??$forward@AEBV?$allocator@H@std@@@std@@YAAEBV?$allocator@H@0@AEBV10@@Z
	??$forward@AEBV?$allocator@I@std@@@std@@YAAEBV?$allocator@I@0@AEBV10@@Z
	??$forward@AEBV?$allocator@M@std@@@std@@YAAEBV?$allocator@M@0@AEBV10@@Z
	??$forward@AEBV?$allocator@N@std@@@std@@YAAEBV?$allocator@N@0@AEBV10@@Z
	??$forward@AEBV?$allocator@PEBUwhisper_grammar_element@@@std@@@std@@YAAEBV?$allocator@PEBUwhisper_grammar_element@@@0@AEBV10@@Z
	??$forward@AEBV?$allocator@V?$basic_string@DU?$char_traits@D@std@@V?$allocator@D@2@@std@@@std@@@std@@YAAEBV?$allocator@V?$basic_string@DU?$char_traits@D@std@@V?$allocator@D@2@@std@@@0@AEBV10@@Z
	??$forward@AEBV?$allocator@V?$vector@Uwhisper_grammar_element@@V?$allocator@Uwhisper_grammar_element@@@std@@@std@@@std@@@std@@YAAEBV?$allocator@V?$vector@Uwhisper_grammar_element@@V?$allocator@Uwhisper_grammar_element@@@std@@@std@@@0@AEBV10@@Z
	??$forward@AEBV?$allocator@Vthread@std@@@std@@@std@@YAAEBV?$allocator@Vthread@std@@@0@AEBV10@@Z
	??$forward@AEBV?$allocator@_K@std@@@std@@YAAEBV?$allocator@_K@0@AEBV10@@Z
	??$forward@AEBV?$basic_string@DU?$char_traits@D@std@@V?$allocator@D@2@@std@@@std@@YAAEBV?$basic_string@DU?$char_traits@D@std@@V?$allocator@D@2@@0@AEBV10@@Z
	??$forward@AEBV?$vector@PEBUwhisper_grammar_element@@V?$allocator@PEBUwhisper_grammar_element@@@std@@@std@@@std@@YAAEBV?$vector@PEBUwhisper_grammar_element@@V?$allocator@PEBUwhisper_grammar_element@@@std@@@0@AEBV10@@Z
	??$forward@AEB_K@std@@YAAEB_KAEB_K@Z
	??$forward@AEB_N@std@@YAAEB_NAEB_N@Z
	??$forward@D@std@@YA$$QEADAEAD@Z
	??$forward@E@std@@YA$$QEAEAEAE@Z
	??$forward@H@std@@YA$$QEAHAEAH@Z
	??$forward@I@std@@YA$$QEAIAEAI@Z
	??$forward@M@std@@YA$$QEAMAEAM@Z
	??$forward@N@std@@YA$$QEANAEAN@Z
	??$forward@PEAH@std@@YA$$QEAPEAHAEAPEAH@Z
	??$forward@PEAI@std@@YA$$QEAPEAIAEAPEAI@Z
	??$forward@PEAM@std@@YA$$QEAPEAMAEAPEAM@Z
	??$forward@PEAPEAUggml_backend@@@std@@YA$$QEAPEAPEAUggml_backend@@AEAPEAPEAU1@@Z
	??$forward@PEAPEBUwhisper_grammar_element@@@std@@YA$$QEAPEAPEBUwhisper_grammar_element@@AEAPEAPEBU1@@Z
	??$forward@PEAU?$_Tree_node@HPEAX@std@@@std@@YA$$QEAPEAU?$_Tree_node@HPEAX@0@AEAPEAU10@@Z
	??$forward@PEAU?$_Tree_node@U?$pair@$$CBHH@std@@PEAX@std@@@std@@YA$$QEAPEAU?$_Tree_node@U?$pair@$$CBHH@std@@PEAX@0@AEAPEAU10@@Z
	??$forward@PEAU?$_Tree_node@U?$pair@$$CBHV?$basic_string@DU?$char_traits@D@std@@V?$allocator@D@2@@std@@@std@@PEAX@std@@@std@@YA$$QEAPEAU?$_Tree_node@U?$pair@$$CBHV?$basic_string@DU?$char_traits@D@std@@V?$allocator@D@2@@std@@@std@@PEAX@0@AEAPEAU10@@Z
	??$forward@PEAU?$_Tree_node@U?$pair@$$CBV?$basic_string@DU?$char_traits@D@std@@V?$allocator@D@2@@std@@H@std@@PEAX@std@@@std@@YA$$QEAPEAU?$_Tree_node@U?$pair@$$CBV?$basic_string@DU?$char_traits@D@std@@V?$allocator@D@2@@std@@H@std@@PEAX@0@AEAPEAU10@@Z
	??$forward@PEAU?$_Tree_node@U?$pair@$$CBV?$basic_string@DU?$char_traits@D@std@@V?$allocator@D@2@@std@@PEAUggml_tensor@@@std@@PEAX@std@@@std@@YA$$QEAPEAU?$_Tree_node@U?$pair@$$CBV?$basic_string@DU?$char_traits@D@std@@V?$allocator@D@2@@std@@PEAUggml_tensor@@@std@@PEAX@0@AEAPEAU10@@Z
	??$forward@PEAU?$_Tree_node@U?$pair@QEAUggml_backend_buffer_type@@PEAUggml_context@@@std@@PEAX@std@@@std@@YA$$QEAPEAU?$_Tree_node@U?$pair@QEAUggml_backend_buffer_type@@PEAUggml_context@@@std@@PEAX@0@AEAPEAU10@@Z
	??$forward@PEAU?$pair@PEAUggml_backend_device@@PEAUggml_backend_buffer_type@@@std@@@std@@YA$$QEAPEAU?$pair@PEAUggml_backend_device@@PEAUggml_backend_buffer_type@@@0@AEAPEAU10@@Z
	??$forward@PEAU_Grp_t@?$_Tgt_state_t@PEBD@std@@@std@@YA$$QEAPEAU_Grp_t@?$_Tgt_state_t@PEBD@0@AEAPEAU120@@Z
	??$forward@PEAU_Grp_t@?$_Tgt_state_t@V?$_String_const_iterator@V?$_String_val@U?$_Simple_types@D@std@@@std@@@std@@@std@@@std@@YA$$QEAPEAU_Grp_t@?$_Tgt_state_t@V?$_String_const_iterator@V?$_String_val@U?$_Simple_types@D@std@@@std@@@std@@@0@AEAPEAU120@@Z
	??$forward@PEAUggml_backend@@@std@@YA$$QEAPEAUggml_backend@@AEAPEAU1@@Z
	??$forward@PEAUggml_backend_buffer@@@std@@YA$$QEAPEAUggml_backend_buffer@@AEAPEAU1@@Z
	??$forward@PEAUggml_backend_buffer_type@@@std@@YA$$QEAPEAUggml_backend_buffer_type@@AEAPEAU1@@Z
	??$forward@PEAUggml_context@@@std@@YA$$QEAPEAUggml_context@@AEAPEAU1@@Z
	??$forward@PEAUggml_tensor@@@std@@YA$$QEAPEAUggml_tensor@@AEAPEAU1@@Z
	??$forward@PEAUwhisper_grammar_candidate@@@std@@YA$$QEAPEAUwhisper_grammar_candidate@@AEAPEAU1@@Z
	??$forward@PEAUwhisper_state@@@std@@YA$$QEAPEAUwhisper_state@@AEAPEAU1@@Z
	??$forward@PEAUwhisper_token_data@@@std@@YA$$QEAPEAUwhisper_token_data@@AEAPEAU1@@Z
	??$forward@PEAV?$tuple@P6AHPEAUwhisper_context@@PEAUwhisper_state@@Uwhisper_full_params@@PEBMH@ZPEAU1@PEAU2@U3@PEBMH@std@@@std@@YA$$QEAPEAV?$tuple@P6AHPEAUwhisper_context@@PEAUwhisper_state@@Uwhisper_full_params@@PEBMH@ZPEAU1@PEAU2@U3@PEBMH@0@AEAPEAV10@@Z
	??$forward@PEAV?$tuple@P6AXHPEBMAEBV?$vector@MV?$allocator@M@std@@@std@@HHHHAEBUwhisper_filters@@AEAUwhisper_mel@@@ZHPEBMV?$reference_wrapper@$$CBV?$vector@MV?$allocator@M@std@@@std@@@2@_JHHHV?$reference_wrapper@$$CBUwhisper_filters@@@2@V?$reference_wrapper@Uwhisper_mel@@@2@@std@@@std@@YA$$QEAPEAV?$tuple@P6AXHPEBMAEBV?$vector@MV?$allocator@M@std@@@std@@HHHHAEBUwhisper_filters@@AEAUwhisper_mel@@@ZHPEBMV?$reference_wrapper@$$CBV?$vector@MV?$allocator@M@std@@@std@@@2@_JHHHV?$reference_wrapper@$$CBUwhisper_filters@@@2@V?$reference_wrapper@Uwhisper_mel@@@2@@0@AEAPEAV10@@Z
	??$forward@PEAV?$vector@PEBUwhisper_grammar_element@@V?$allocator@PEBUwhisper_grammar_element@@@std@@@std@@@std@@YA$$QEAPEAV?$vector@PEBUwhisper_grammar_element@@V?$allocator@PEBUwhisper_grammar_element@@@std@@@0@AEAPEAV10@@Z
	??$forward@PEAV?$vector@Uwhisper_grammar_element@@V?$allocator@Uwhisper_grammar_element@@@std@@@std@@@std@@YA$$QEAPEAV?$vector@Uwhisper_grammar_element@@V?$allocator@Uwhisper_grammar_element@@@std@@@0@AEAPEAV10@@Z
	??$forward@PEAV_Node_assert@std@@@std@@YA$$QEAPEAV_Node_assert@0@AEAPEAV10@@Z
	??$forward@PEBD@std@@YA$$QEAPEBDAEAPEBD@Z
	??$forward@PEBH@std@@YA$$QEAPEBHAEAPEBH@Z
	??$forward@PEBM@std@@YA$$QEAPEBMAEAPEBM@Z
	??$forward@PEBQEBUwhisper_grammar_element@@@std@@YA$$QEAPEBQEBUwhisper_grammar_element@@AEAPEBQEBU1@@Z
	??$forward@PEBUwhisper_grammar_element@@@std@@YA$$QEAPEBUwhisper_grammar_element@@AEAPEBU1@@Z
	??$forward@PEBV?$basic_string@DU?$char_traits@D@std@@V?$allocator@D@2@@std@@@std@@YA$$QEAPEBV?$basic_string@DU?$char_traits@D@std@@V?$allocator@D@2@@0@AEAPEBV10@@Z
	??$forward@PEB_K@std@@YA$$QEAPEB_KAEAPEB_K@Z
	??$forward@U?$default_delete@V?$tuple@P6AHPEAUwhisper_context@@PEAUwhisper_state@@Uwhisper_full_params@@PEBMH@ZPEAU1@PEAU2@U3@PEBMH@std@@@std@@@std@@YA$$QEAU?$default_delete@V?$tuple@P6AHPEAUwhisper_context@@PEAUwhisper_state@@Uwhisper_full_params@@PEBMH@ZPEAU1@PEAU2@U3@PEBMH@std@@@0@AEAU10@@Z
	??$forward@U?$default_delete@V?$tuple@P6AXHPEBMAEBV?$vector@MV?$allocator@M@std@@@std@@HHHHAEBUwhisper_filters@@AEAUwhisper_mel@@@ZHPEBMV?$reference_wrapper@$$CBV?$vector@MV?$allocator@M@std@@@std@@@2@_JHHHV?$reference_wrapper@$$CBUwhisper_filters@@@2@V?$reference_wrapper@Uwhisper_mel@@@2@@std@@@std@@@std@@YA$$QEAU?$default_delete@V?$tuple@P6AXHPEBMAEBV?$vector@MV?$allocator@M@std@@@std@@HHHHAEBUwhisper_filters@@AEAUwhisper_mel@@@ZHPEBMV?$reference_wrapper@$$CBV?$vector@MV?$allocator@M@std@@@std@@@2@_JHHHV?$reference_wrapper@$$CBUwhisper_filters@@@2@V?$reference_wrapper@Uwhisper_mel@@@2@@std@@@0@AEAU10@@Z
	??$forward@U?$default_delete@V_Node_assert@std@@@std@@@std@@YA$$QEAU?$default_delete@V_Node_assert@std@@@0@AEAU10@@Z
	??$forward@U?$less@H@std@@@std@@YA$$QEAU?$less@H@0@AEAU10@@Z
	??$forward@U?$less@W4asr_tensor@@@std@@@std@@YA$$QEAU?$less@W4asr_tensor@@@0@AEAU10@@Z
	??$forward@U?$pair@PEAUggml_backend_device@@PEAUggml_backend_buffer_type@@@std@@@std@@YA$$QEAU?$pair@PEAUggml_backend_device@@PEAUggml_backend_buffer_type@@@0@AEAU10@@Z
	??$forward@U?$pair@V?$vector@IV?$allocator@I@std@@@std@@Uwhisper_partial_utf8@@@std@@@std@@YA$$QEAU?$pair@V?$vector@IV?$allocator@I@std@@@std@@Uwhisper_partial_utf8@@@0@AEAU10@@Z
	??$forward@U?$whisper_pair@NH@@@std@@YA$$QEAU?$whisper_pair@NH@@AEAU1@@Z
	??$forward@U_Grp_t@?$_Tgt_state_t@PEBD@std@@@std@@YA$$QEAU_Grp_t@?$_Tgt_state_t@PEBD@0@AEAU120@@Z
	??$forward@U_Grp_t@?$_Tgt_state_t@V?$_String_const_iterator@V?$_String_val@U?$_Simple_types@D@std@@@std@@@std@@@std@@@std@@YA$$QEAU_Grp_t@?$_Tgt_state_t@V?$_String_const_iterator@V?$_String_val@U?$_Simple_types@D@std@@@std@@@std@@@0@AEAU120@@Z
	??$forward@U_Loop_vals_v2_t@std@@@std@@YA$$QEAU_Loop_vals_v2_t@0@AEAU10@@Z
	??$forward@U_One_then_variadic_args_t@std@@@std@@YA$$QEAU_One_then_variadic_args_t@0@AEAU10@@Z
	??$forward@U_Zero_then_variadic_args_t@std@@@std@@YA$$QEAU_Zero_then_variadic_args_t@0@AEAU10@@Z
	??$forward@Uvad_segment_info@whisper_state@@@std@@YA$$QEAUvad_segment_info@whisper_state@@AEAU12@@Z
	??$forward@Uvad_time_mapping@@@std@@YA$$QEAUvad_time_mapping@@AEAU1@@Z
	??$forward@Uwhisper_full_params@@@std@@YA$$QEAUwhisper_full_params@@AEAU1@@Z
	??$forward@Uwhisper_grammar_candidate@@@std@@YA$$QEAUwhisper_grammar_candidate@@AEAU1@@Z
	??$forward@Uwhisper_grammar_element@@@std@@YA$$QEAUwhisper_grammar_element@@AEAU1@@Z
	??$forward@Uwhisper_layer_decoder@@@std@@YA$$QEAUwhisper_layer_decoder@@AEAU1@@Z
	??$forward@Uwhisper_layer_encoder@@@std@@YA$$QEAUwhisper_layer_encoder@@AEAU1@@Z
	??$forward@Uwhisper_partial_utf8@@@std@@YA$$QEAUwhisper_partial_utf8@@AEAU1@@Z
	??$forward@Uwhisper_segment@@@std@@YA$$QEAUwhisper_segment@@AEAU1@@Z
	??$forward@Uwhisper_token_data@@@std@@YA$$QEAUwhisper_token_data@@AEAU1@@Z
	??$forward@Uwhisper_vad_segment@@@std@@YA$$QEAUwhisper_vad_segment@@AEAU1@@Z
	??$forward@V?$_Tgt_state_t@PEBD@std@@@std@@YA$$QEAV?$_Tgt_state_t@PEBD@0@AEAV10@@Z
	??$forward@V?$_Tgt_state_t@V?$_String_const_iterator@V?$_String_val@U?$_Simple_types@D@std@@@std@@@std@@@std@@@std@@YA$$QEAV?$_Tgt_state_t@V?$_String_const_iterator@V?$_String_val@U?$_Simple_types@D@std@@@std@@@std@@@0@AEAV10@@Z
	??$forward@V?$_Tree_const_iterator@V?$_Tree_val@U?$_Tree_simple_types@H@std@@@std@@@std@@@std@@YA$$QEAV?$_Tree_const_iterator@V?$_Tree_val@U?$_Tree_simple_types@H@std@@@std@@@0@AEAV10@@Z
	??$forward@V?$_Vb_iterator@U?$_Wrap_alloc@V?$allocator@I@std@@@std@@@std@@@std@@YA$$QEAV?$_Vb_iterator@U?$_Wrap_alloc@V?$allocator@I@std@@@std@@@0@AEAV10@@Z
	??$forward@V?$allocator@D@std@@@std@@YA$$QEAV?$allocator@D@0@AEAV10@@Z
	??$forward@V?$allocator@H@std@@@std@@YA$$QEAV?$allocator@H@0@AEAV10@@Z
	??$forward@V?$allocator@I@std@@@std@@YA$$QEAV?$allocator@I@0@AEAV10@@Z
	??$forward@V?$allocator@M@std@@@std@@YA$$QEAV?$allocator@M@0@AEAV10@@Z
	??$forward@V?$allocator@PEAUggml_backend@@@std@@@std@@YA$$QEAV?$allocator@PEAUggml_backend@@@0@AEAV10@@Z
	??$forward@V?$allocator@PEBUwhisper_grammar_element@@@std@@@std@@YA$$QEAV?$allocator@PEBUwhisper_grammar_element@@@0@AEAV10@@Z
	??$forward@V?$allocator@U?$_Tree_node@HPEAX@std@@@std@@@std@@YA$$QEAV?$allocator@U?$_Tree_node@HPEAX@std@@@0@AEAV10@@Z
	??$forward@V?$allocator@U?$_Tree_node@U?$pair@$$CBW4asr_tensor@@PEBD@std@@PEAX@std@@@std@@@std@@YA$$QEAV?$allocator@U?$_Tree_node@U?$pair@$$CBW4asr_tensor@@PEBD@std@@PEAX@std@@@0@AEAV10@@Z
	??$forward@V?$allocator@U?$pair@PEAUggml_backend_device@@PEAUggml_backend_buffer_type@@@std@@@std@@@std@@YA$$QEAV?$allocator@U?$pair@PEAUggml_backend_device@@PEAUggml_backend_buffer_type@@@std@@@0@AEAV10@@Z
	??$forward@V?$allocator@U_Grp_t@?$_Tgt_state_t@PEBD@std@@@std@@@std@@YA$$QEAV?$allocator@U_Grp_t@?$_Tgt_state_t@PEBD@std@@@0@AEAV10@@Z
	??$forward@V?$allocator@U_Grp_t@?$_Tgt_state_t@V?$_String_const_iterator@V?$_String_val@U?$_Simple_types@D@std@@@std@@@std@@@std@@@std@@@std@@YA$$QEAV?$allocator@U_Grp_t@?$_Tgt_state_t@V?$_String_const_iterator@V?$_String_val@U?$_Simple_types@D@std@@@std@@@std@@@std@@@0@AEAV10@@Z
	??$forward@V?$allocator@Uwhisper_grammar_candidate@@@std@@@std@@YA$$QEAV?$allocator@Uwhisper_grammar_candidate@@@0@AEAV10@@Z
	??$forward@V?$allocator@Uwhisper_grammar_element@@@std@@@std@@YA$$QEAV?$allocator@Uwhisper_grammar_element@@@0@AEAV10@@Z
	??$forward@V?$allocator@Uwhisper_token_data@@@std@@@std@@YA$$QEAV?$allocator@Uwhisper_token_data@@@0@AEAV10@@Z
	??$forward@V?$allocator@V?$vector@PEBUwhisper_grammar_element@@V?$allocator@PEBUwhisper_grammar_element@@@std@@@std@@@std@@@std@@YA$$QEAV?$allocator@V?$vector@PEBUwhisper_grammar_element@@V?$allocator@PEBUwhisper_grammar_element@@@std@@@std@@@0@AEAV10@@Z
	??$forward@V?$allocator@V?$vector@Uwhisper_grammar_element@@V?$allocator@Uwhisper_grammar_element@@@std@@@std@@@std@@@std@@YA$$QEAV?$allocator@V?$vector@Uwhisper_grammar_element@@V?$allocator@Uwhisper_grammar_element@@@std@@@std@@@0@AEAV10@@Z
	??$forward@V?$allocator@_W@std@@@std@@YA$$QEAV?$allocator@_W@0@AEAV10@@Z
	??$forward@V?$basic_string@DU?$char_traits@D@std@@V?$allocator@D@2@@std@@@std@@YA$$QEAV?$basic_string@DU?$char_traits@D@std@@V?$allocator@D@2@@0@AEAV10@@Z
	??$forward@V?$reference_wrapper@$$CBUwhisper_filters@@@std@@@std@@YA$$QEAV?$reference_wrapper@$$CBUwhisper_filters@@@0@AEAV10@@Z
	??$forward@V?$reference_wrapper@$$CBV?$vector@MV?$allocator@M@std@@@std@@@std@@@std@@YA$$QEAV?$reference_wrapper@$$CBV?$vector@MV?$allocator@M@std@@@std@@@0@AEAV10@@Z
	??$forward@V?$reference_wrapper@Uwhisper_mel@@@std@@@std@@YA$$QEAV?$reference_wrapper@Uwhisper_mel@@@0@AEAV10@@Z
	??$forward@V?$sub_match@PEBD@std@@@std@@YA$$QEAV?$sub_match@PEBD@0@AEAV10@@Z
	??$forward@V?$sub_match@V?$_String_const_iterator@V?$_String_val@U?$_Simple_types@D@std@@@std@@@std@@@std@@@std@@YA$$QEAV?$sub_match@V?$_String_const_iterator@V?$_String_val@U?$_Simple_types@D@std@@@std@@@std@@@0@AEAV10@@Z
	??$forward@V?$tuple@$$QEAV?$basic_string@DU?$char_traits@D@std@@V?$allocator@D@2@@std@@@std@@@std@@YA$$QEAV?$tuple@$$QEAV?$basic_string@DU?$char_traits@D@std@@V?$allocator@D@2@@std@@@0@AEAV10@@Z
	??$forward@V?$tuple@$$V@std@@@std@@YA$$QEAV?$tuple@$$V@0@AEAV10@@Z
	??$forward@V?$tuple@AEBH@std@@@std@@YA$$QEAV?$tuple@AEBH@0@AEAV10@@Z
	??$forward@V?$tuple@AEBQEAUggml_backend_buffer_type@@@std@@@std@@YA$$QEAV?$tuple@AEBQEAUggml_backend_buffer_type@@@0@AEAV10@@Z
	??$forward@V?$tuple@AEBV?$basic_string@DU?$char_traits@D@std@@V?$allocator@D@2@@std@@@std@@@std@@YA$$QEAV?$tuple@AEBV?$basic_string@DU?$char_traits@D@std@@V?$allocator@D@2@@std@@@0@AEAV10@@Z
	??$forward@V?$vector@IV?$allocator@I@std@@@std@@@std@@YA$$QEAV?$vector@IV?$allocator@I@std@@@0@AEAV10@@Z
	??$forward@V?$vector@PEBUwhisper_grammar_element@@V?$allocator@PEBUwhisper_grammar_element@@@std@@@std@@@std@@YA$$QEAV?$vector@PEBUwhisper_grammar_element@@V?$allocator@PEBUwhisper_grammar_element@@@std@@@0@AEAV10@@Z
	??$forward@W4_Node_type@std@@@std@@YA$$QEAW4_Node_type@0@AEAW410@@Z
	??$forward@W4asr_tensor@@@std@@YA$$QEAW4asr_tensor@@AEAW41@@Z
	??$forward@W4e_model@@@std@@YA$$QEAW4e_model@@AEAW41@@Z
	??$forward@W4ggml_op@@@std@@YA$$QEAW4ggml_op@@AEAW41@@Z
	??$forward@W4vad_tensor@@@std@@YA$$QEAW4vad_tensor@@AEAW41@@Z
	??$forward@_J@std@@YA$$QEA_JAEA_J@Z
	??$forward@_N@std@@YA$$QEA_NAEA_N@Z
	??$forward_as_tuple@$$V@std@@YA?AV?$tuple@$$V@0@XZ
	??$forward_as_tuple@AEBH@std@@YA?AV?$tuple@AEBH@0@AEBH@Z
	??$forward_as_tuple@AEBQEAUggml_backend_buffer_type@@@std@@YA?AV?$tuple@AEBQEAUggml_backend_buffer_type@@@0@AEBQEAUggml_backend_buffer_type@@@Z
	??$forward_as_tuple@AEBV?$basic_string@DU?$char_traits@D@std@@V?$allocator@D@2@@std@@@std@@YA?AV?$tuple@AEBV?$basic_string@DU?$char_traits@D@std@@V?$allocator@D@2@@std@@@0@AEBV?$basic_string@DU?$char_traits@D@std@@V?$allocator@D@2@@0@@Z
	??$forward_as_tuple@V?$basic_string@DU?$char_traits@D@std@@V?$allocator@D@2@@std@@@std@@YA?AV?$tuple@$$QEAV?$basic_string@DU?$char_traits@D@std@@V?$allocator@D@2@@std@@@0@$$QEAV?$basic_string@DU?$char_traits@D@std@@V?$allocator@D@2@@0@@Z
	??$generate_canonical@N$0DF@V?$mersenne_twister_engine@I$0CA@$0CHA@$0BIN@$0BP@$0JJAILANP@$0L@$0PPPPPPPP@$06$0JNCMFGIA@$0P@$0OPMGAAAA@$0BC@$0GMAHIJGF@@std@@@std@@YANAEAV?$mersenne_twister_engine@I$0CA@$0CHA@$0BIN@$0BP@$0JJAILANP@$0L@$0PPPPPPPP@$06$0JNCMFGIA@$0P@$0OPMGAAAA@$0BC@$0GMAHIJGF@@0@@Z
	??$get@$00P6AHPEAUwhisper_context@@PEAUwhisper_state@@Uwhisper_full_params@@PEBMH@ZPEAU1@PEAU2@U3@PEBMH@std@@YAAEAPEAUwhisper_context@@AEAV?$tuple@P6AHPEAUwhisper_context@@PEAUwhisper_state@@Uwhisper_full_params@@PEBMH@ZPEAU1@PEAU2@U3@PEBMH@0@@Z
	??$get@$00P6AXHPEBMAEBV?$vector@MV?$allocator@M@std@@@std@@HHHHAEBUwhisper_filters@@AEAUwhisper_mel@@@ZHPEBMV?$reference_wrapper@$$CBV?$vector@MV?$allocator@M@std@@@std@@@2@_JHHHV?$reference_wrapper@$$CBUwhisper_filters@@@2@V?$reference_wrapper@Uwhisper_mel@@@2@@std@@YAAEAHAEAV?$tuple@P6AXHPEBMAEBV?$vector@MV?$allocator@M@std@@@std@@HHHHAEBUwhisper_filters@@AEAUwhisper_mel@@@ZHPEBMV?$reference_wrapper@$$CBV?$vector@MV?$allocator@M@std@@@std@@@2@_JHHHV?$reference_wrapper@$$CBUwhisper_filters@@@2@V?$reference_wrapper@Uwhisper_mel@@@2@@0@@Z
	??$get@$01P6AHPEAUwhisper_context@@PEAUwhisper_state@@Uwhisper_full_params@@PEBMH@ZPEAU1@PEAU2@U3@PEBMH@std@@YAAEAPEAUwhisper_state@@AEAV?$tuple@P6AHPEAUwhisper_context@@PEAUwhisper_state@@Uwhisper_full_params@@PEBMH@ZPEAU1@PEAU2@U3@PEBMH@0@@Z
	??$get@$01P6AXHPEBMAEBV?$vector@MV?$allocator@M@std@@@std@@HHHHAEBUwhisper_filters@@AEAUwhisper_mel@@@ZHPEBMV?$reference_wrapper@$$CBV?$vector@MV?$allocator@M@std@@@std@@@2@_JHHHV?$reference_wrapper@$$CBUwhisper_filters@@@2@V?$reference_wrapper@Uwhisper_mel@@@2@@std@@YAAEAPEBMAEAV?$tuple@P6AXHPEBMAEBV?$vector@MV?$allocator@M@std@@@std@@HHHHAEBUwhisper_filters@@AEAUwhisper_mel@@@ZHPEBMV?$reference_wrapper@$$CBV?$vector@MV?$allocator@M@std@@@std@@@2@_JHHHV?$reference_wrapper@$$CBUwhisper_filters@@@2@V?$reference_wrapper@Uwhisper_mel@@@2@@0@@Z
	??$get@$02P6AHPEAUwhisper_context@@PEAUwhisper_state@@Uwhisper_full_params@@PEBMH@ZPEAU1@PEAU2@U3@PEBMH@std@@YAAEAUwhisper_full_params@@AEAV?$tuple@P6AHPEAUwhisper_context@@PEAUwhisper_state@@Uwhisper_full_params@@PEBMH@ZPEAU1@PEAU2@U3@PEBMH@0@@Z
	??$get@$02P6AXHPEBMAEBV?$vector@MV?$allocator@M@std@@@std@@HHHHAEBUwhisper_filters@@AEAUwhisper_mel@@@ZHPEBMV?$reference_wrapper@$$CBV?$vector@MV?$allocator@M@std@@@std@@@2@_JHHHV?$reference_wrapper@$$CBUwhisper_filters@@@2@V?$reference_wrapper@Uwhisper_mel@@@2@@std@@YAAEAV?$reference_wrapper@$$CBV?$vector@MV?$allocator@M@std@@@std@@@0@AEAV?$tuple@P6AXHPEBMAEBV?$vector@MV?$allocator@M@std@@@std@@HHHHAEBUwhisper_filters@@AEAUwhisper_mel@@@ZHPEBMV?$reference_wrapper@$$CBV?$vector@MV?$allocator@M@std@@@std@@@2@_JHHHV?$reference_wrapper@$$CBUwhisper_filters@@@2@V?$reference_wrapper@Uwhisper_mel@@@2@@0@@Z
	??$get@$03P6AHPEAUwhisper_context@@PEAUwhisper_state@@Uwhisper_full_params@@PEBMH@ZPEAU1@PEAU2@U3@PEBMH@std@@YAAEAPEBMAEAV?$tuple@P6AHPEAUwhisper_context@@PEAUwhisper_state@@Uwhisper_full_params@@PEBMH@ZPEAU1@PEAU2@U3@PEBMH@0@@Z
	??$get@$03P6AXHPEBMAEBV?$vector@MV?$allocator@M@std@@@std@@HHHHAEBUwhisper_filters@@AEAUwhisper_mel@@@ZHPEBMV?$reference_wrapper@$$CBV?$vector@MV?$allocator@M@std@@@std@@@2@_JHHHV?$reference_wrapper@$$CBUwhisper_filters@@@2@V?$reference_wrapper@Uwhisper_mel@@@2@@std@@YAAEA_JAEAV?$tuple@P6AXHPEBMAEBV?$vector@MV?$allocator@M@std@@@std@@HHHHAEBUwhisper_filters@@AEAUwhisper_mel@@@ZHPEBMV?$reference_wrapper@$$CBV?$vector@MV?$allocator@M@std@@@std@@@2@_JHHHV?$reference_wrapper@$$CBUwhisper_filters@@@2@V?$reference_wrapper@Uwhisper_mel@@@2@@0@@Z
	??$get@$04P6AHPEAUwhisper_context@@PEAUwhisper_state@@Uwhisper_full_params@@PEBMH@ZPEAU1@PEAU2@U3@PEBMH@std@@YAAEAHAEAV?$tuple@P6AHPEAUwhisper_context@@PEAUwhisper_state@@Uwhisper_full_params@@PEBMH@ZPEAU1@PEAU2@U3@PEBMH@0@@Z
	??$get@$04P6AXHPEBMAEBV?$vector@MV?$allocator@M@std@@@std@@HHHHAEBUwhisper_filters@@AEAUwhisper_mel@@@ZHPEBMV?$reference_wrapper@$$CBV?$vector@MV?$allocator@M@std@@@std@@@2@_JHHHV?$reference_wrapper@$$CBUwhisper_filters@@@2@V?$reference_wrapper@Uwhisper_mel@@@2@@std@@YAAEAHAEAV?$tuple@P6AXHPEBMAEBV?$vector@MV?$allocator@M@std@@@std@@HHHHAEBUwhisper_filters@@AEAUwhisper_mel@@@ZHPEBMV?$reference_wrapper@$$CBV?$vector@MV?$allocator@M@std@@@std@@@2@_JHHHV?$reference_wrapper@$$CBUwhisper_filters@@@2@V?$reference_wrapper@Uwhisper_mel@@@2@@0@@Z
	??$get@$05P6AXHPEBMAEBV?$vector@MV?$allocator@M@std@@@std@@HHHHAEBUwhisper_filters@@AEAUwhisper_mel@@@ZHPEBMV?$reference_wrapper@$$CBV?$vector@MV?$allocator@M@std@@@std@@@2@_JHHHV?$reference_wrapper@$$CBUwhisper_filters@@@2@V?$reference_wrapper@Uwhisper_mel@@@2@@std@@YAAEAHAEAV?$tuple@P6AXHPEBMAEBV?$vector@MV?$allocator@M@std@@@std@@HHHHAEBUwhisper_filters@@AEAUwhisper_mel@@@ZHPEBMV?$reference_wrapper@$$CBV?$vector@MV?$allocator@M@std@@@std@@@2@_JHHHV?$reference_wrapper@$$CBUwhisper_filters@@@2@V?$reference_wrapper@Uwhisper_mel@@@2@@0@@Z
	??$get@$06P6AXHPEBMAEBV?$vector@MV?$allocator@M@std@@@std@@HHHHAEBUwhisper_filters@@AEAUwhisper_mel@@@ZHPEBMV?$reference_wrapper@$$CBV?$vector@MV?$allocator@M@std@@@std@@@2@_JHHHV?$reference_wrapper@$$CBUwhisper_filters@@@2@V?$reference_wrapper@Uwhisper_mel@@@2@@std@@YAAEAHAEAV?$tuple@P6AXHPEBMAEBV?$vector@MV?$allocator@M@std@@@std@@HHHHAEBUwhisper_filters@@AEAUwhisper_mel@@@ZHPEBMV?$reference_wrapper@$$CBV?$vector@MV?$allocator@M@std@@@std@@@2@_JHHHV?$reference_wrapper@$$CBUwhisper_filters@@@2@V?$reference_wrapper@Uwhisper_mel@@@2@@0@@Z
	??$get@$07P6AXHPEBMAEBV?$vector@MV?$allocator@M@std@@@std@@HHHHAEBUwhisper_filters@@AEAUwhisper_mel@@@ZHPEBMV?$reference_wrapper@$$CBV?$vector@MV?$allocator@M@std@@@std@@@2@_JHHHV?$reference_wrapper@$$CBUwhisper_filters@@@2@V?$reference_wrapper@Uwhisper_mel@@@2@@std@@YAAEAV?$reference_wrapper@$$CBUwhisper_filters@@@0@AEAV?$tuple@P6AXHPEBMAEBV?$vector@MV?$allocator@M@std@@@std@@HHHHAEBUwhisper_filters@@AEAUwhisper_mel@@@ZHPEBMV?$reference_wrapper@$$CBV?$vector@MV?$allocator@M@std@@@std@@@2@_JHHHV?$reference_wrapper@$$CBUwhisper_filters@@@2@V?$reference_wrapper@Uwhisper_mel@@@2@@0@@Z
	??$get@$08P6AXHPEBMAEBV?$vector@MV?$allocator@M@std@@@std@@HHHHAEBUwhisper_filters@@AEAUwhisper_mel@@@ZHPEBMV?$reference_wrapper@$$CBV?$vector@MV?$allocator@M@std@@@std@@@2@_JHHHV?$reference_wrapper@$$CBUwhisper_filters@@@2@V?$reference_wrapper@Uwhisper_mel@@@2@@std@@YAAEAV?$reference_wrapper@Uwhisper_mel@@@0@AEAV?$tuple@P6AXHPEBMAEBV?$vector@MV?$allocator@M@std@@@std@@HHHHAEBUwhisper_filters@@AEAUwhisper_mel@@@ZHPEBMV?$reference_wrapper@$$CBV?$vector@MV?$allocator@M@std@@@std@@@2@_JHHHV?$reference_wrapper@$$CBUwhisper_filters@@@2@V?$reference_wrapper@Uwhisper_mel@@@2@@0@@Z
	??$get@$0A@P6AHPEAUwhisper_context@@PEAUwhisper_state@@Uwhisper_full_params@@PEBMH@ZPEAU1@PEAU2@U3@PEBMH@std@@YAAEAP6AHPEAUwhisper_context@@PEAUwhisper_state@@Uwhisper_full_params@@PEBMH@ZAEAV?$tuple@P6AHPEAUwhisper_context@@PEAUwhisper_state@@Uwhisper_full_params@@PEBMH@ZPEAU1@PEAU2@U3@PEBMH@0@@Z
	??$get@$0A@P6AXHPEBMAEBV?$vector@MV?$allocator@M@std@@@std@@HHHHAEBUwhisper_filters@@AEAUwhisper_mel@@@ZHPEBMV?$reference_wrapper@$$CBV?$vector@MV?$allocator@M@std@@@std@@@2@_JHHHV?$reference_wrapper@$$CBUwhisper_filters@@@2@V?$reference_wrapper@Uwhisper_mel@@@2@@std@@YAAEAP6AXHPEBMAEBV?$vector@MV?$allocator@M@std@@@0@HHHHAEBUwhisper_filters@@AEAUwhisper_mel@@@ZAEAV?$tuple@P6AXHPEBMAEBV?$vector@MV?$allocator@M@std@@@std@@HHHHAEBUwhisper_filters@@AEAUwhisper_mel@@@ZHPEBMV?$reference_wrapper@$$CBV?$vector@MV?$allocator@M@std@@@std@@@2@_JHHHV?$reference_wrapper@$$CBUwhisper_filters@@@2@V?$reference_wrapper@Uwhisper_mel@@@2@@0@@Z
	??$insert@$0A@$0A@@?$_Tree@V?$_Tset_traits@HU?$less@H@std@@V?$allocator@H@2@$0A@@std@@@std@@QEAA?AU?$pair@V?$_Tree_const_iterator@V?$_Tree_val@U?$_Tree_simple_types@H@std@@@std@@@std@@_N@1@AEBH@Z
	??$insert@V?$_Vector_iterator@V?$_Vector_val@U?$_Simple_types@H@std@@@std@@@std@@$0A@@?$vector@HV?$allocator@H@std@@@std@@QEAA?AV?$_Vector_iterator@V?$_Vector_val@U?$_Simple_types@H@std@@@std@@@1@V?$_Vector_const_iterator@V?$_Vector_val@U?$_Simple_types@H@std@@@std@@@1@V21@1@Z
	??$insert@V?$_Vector_iterator@V?$_Vector_val@U?$_Simple_types@Uwhisper_token_data@@@std@@@std@@@std@@$0A@@?$vector@Uwhisper_token_data@@V?$allocator@Uwhisper_token_data@@@std@@@std@@QEAA?AV?$_Vector_iterator@V?$_Vector_val@U?$_Simple_types@Uwhisper_token_data@@@std@@@std@@@1@V?$_Vector_const_iterator@V?$_Vector_val@U?$_Simple_types@Uwhisper_token_data@@@std@@@std@@@1@V21@1@Z
	??$invoke@P6AHPEAUwhisper_context@@PEAUwhisper_state@@Uwhisper_full_params@@PEBMH@ZPEAU1@PEAU2@U3@PEBMH@std@@YAH$$QEAP6AHPEAUwhisper_context@@PEAUwhisper_state@@Uwhisper_full_params@@PEBMH@Z$$QEAPEAU1@$$QEAPEAU2@$$QEAU3@$$QEAPEBM$$QEAH@Z
	??$invoke@P6AXHPEBMAEBV?$vector@MV?$allocator@M@std@@@std@@HHHHAEBUwhisper_filters@@AEAUwhisper_mel@@@ZHPEBMV?$reference_wrapper@$$CBV?$vector@MV?$allocator@M@std@@@std@@@2@_JHHHV?$reference_wrapper@$$CBUwhisper_filters@@@2@V?$reference_wrapper@Uwhisper_mel@@@2@@std@@YAX$$QEAP6AXHPEBMAEBV?$vector@MV?$allocator@M@std@@@0@HHHHAEBUwhisper_filters@@AEAUwhisper_mel@@@Z$$QEAH$$QEAPEBM$$QEAV?$reference_wrapper@$$CBV?$vector@MV?$allocator@M@std@@@std@@@0@$$QEA_J555$$QEAV?$reference_wrapper@$$CBUwhisper_filters@@@0@$$QEAV?$reference_wrapper@Uwhisper_mel@@@0@@Z
	??$lookup_classname@PEBD@?$_Regex_traits@D@std@@QEBAFPEBD0_N@Z
	??$lookup_collatename@PEBD@?$_Regex_traits@D@std@@QEBA?AV?$basic_string@DU?$char_traits@D@std@@V?$allocator@D@2@@1@PEBD0@Z
	??$lower_bound@V?$_Vector_const_iterator@V?$_Vector_val@U?$_Simple_types@N@std@@@std@@@std@@N@std@@YA?AV?$_Vector_const_iterator@V?$_Vector_val@U?$_Simple_types@N@std@@@std@@@0@V10@0AEBN@Z
	??$lower_bound@V?$_Vector_const_iterator@V?$_Vector_val@U?$_Simple_types@N@std@@@std@@@std@@NU?$less@X@2@@std@@YA?AV?$_Vector_const_iterator@V?$_Vector_val@U?$_Simple_types@N@std@@@std@@@0@V10@V10@AEBNU?$less@X@0@@Z
	??$make_pair@V?$vector@IV?$allocator@I@std@@@std@@Uwhisper_partial_utf8@@@std@@YA?AU?$pair@V?$vector@IV?$allocator@I@std@@@std@@Uwhisper_partial_utf8@@@0@$$QEAV?$vector@IV?$allocator@I@std@@@0@$$QEAUwhisper_partial_utf8@@@Z
	??$make_pair@_NAEAPEBUwhisper_grammar_element@@@std@@YA?AU?$pair@_NPEBUwhisper_grammar_element@@@0@$$QEA_NAEAPEBUwhisper_grammar_element@@@Z
	??$make_unique@V?$tuple@P6AHPEAUwhisper_context@@PEAUwhisper_state@@Uwhisper_full_params@@PEBMH@ZPEAU1@PEAU2@U3@PEBMH@std@@A6AHPEAUwhisper_context@@PEAUwhisper_state@@Uwhisper_full_params@@PEBMH@ZAEAPEAU3@AEAPEAU4@U5@PEBMAEBH$0A@@std@@YA?AV?$unique_ptr@V?$tuple@P6AHPEAUwhisper_context@@PEAUwhisper_state@@Uwhisper_full_params@@PEBMH@ZPEAU1@PEAU2@U3@PEBMH@std@@U?$default_delete@V?$tuple@P6AHPEAUwhisper_context@@PEAUwhisper_state@@Uwhisper_full_params@@PEBMH@ZPEAU1@PEAU2@U3@PEBMH@std@@@2@@0@A6AHPEAUwhisper_context@@PEAUwhisper_state@@Uwhisper_full_params@@PEBMH@ZAEAPEAU2@AEAPEAU3@$$QEAU4@$$QEAPEBMAEBH@Z
	??$make_unique@V?$tuple@P6AXHPEBMAEBV?$vector@MV?$allocator@M@std@@@std@@HHHHAEBUwhisper_filters@@AEAUwhisper_mel@@@ZHPEBMV?$reference_wrapper@$$CBV?$vector@MV?$allocator@M@std@@@std@@@2@_JHHHV?$reference_wrapper@$$CBUwhisper_filters@@@2@V?$reference_wrapper@Uwhisper_mel@@@2@@std@@A6AXHPEBMAEBV?$vector@MV?$allocator@M@std@@@2@HHHHAEBUwhisper_filters@@AEAUwhisper_mel@@@ZHAEAPEBMV?$reference_wrapper@$$CBV?$vector@MV?$allocator@M@std@@@std@@@2@_JAEBHAEBHAEBHV?$reference_wrapper@$$CBUwhisper_filters@@@2@V?$reference_wrapper@Uwhisper_mel@@@2@$0A@@std@@YA?AV?$unique_ptr@V?$tuple@P6AXHPEBMAEBV?$vector@MV?$allocator@M@std@@@std@@HHHHAEBUwhisper_filters@@AEAUwhisper_mel@@@ZHPEBMV?$reference_wrapper@$$CBV?$vector@MV?$allocator@M@std@@@std@@@2@_JHHHV?$reference_wrapper@$$CBUwhisper_filters@@@2@V?$reference_wrapper@Uwhisper_mel@@@2@@std@@U?$default_delete@V?$tuple@P6AXHPEBMAEBV?$vector@MV?$allocator@M@std@@@std@@HHHHAEBUwhisper_filters@@AEAUwhisper_mel@@@ZHPEBMV?$reference_wrapper@$$CBV?$vector@MV?$allocator@M@std@@@std@@@2@_JHHHV?$reference_wrapper@$$CBUwhisper_filters@@@2@V?$reference_wrapper@Uwhisper_mel@@@2@@std@@@2@@0@A6AXHPEBMAEBV?$vector@MV?$allocator@M@std@@@0@HHHHAEBUwhisper_filters@@AEAUwhisper_mel@@@Z$$QEAHAEAPEBM$$QEAV?$reference_wrapper@$$CBV?$vector@MV?$allocator@M@std@@@std@@@0@$$QEA_JAEBH99$$QEAV?$reference_wrapper@$$CBUwhisper_filters@@@0@$$QEAV?$reference_wrapper@Uwhisper_mel@@@0@@Z
	??$make_unique@V_Node_assert@std@@W4_Node_type@2@$0A@@std@@YA?AV?$unique_ptr@V_Node_assert@std@@U?$default_delete@V_Node_assert@std@@@2@@0@$$QEAW4_Node_type@0@@Z
	??$max@H@std@@YAAEBHAEBH0@Z
	??$max@I@std@@YAAEBIAEBI0@Z
	??$max@N@std@@YAAEBNAEBN0@Z
	??$max@_J@std@@YAAEB_JAEB_J0@Z
	??$max@_K@std@@YAAEB_KAEB_K0@Z
	??$max_element@V?$_Vector_const_iterator@V?$_Vector_val@U?$_Simple_types@M@std@@@std@@@std@@@std@@YA?AV?$_Vector_const_iterator@V?$_Vector_val@U?$_Simple_types@M@std@@@std@@@0@V10@0@Z
	??$max_element@V?$_Vector_const_iterator@V?$_Vector_val@U?$_Simple_types@M@std@@@std@@@std@@U?$less@X@2@@std@@YA?AV?$_Vector_const_iterator@V?$_Vector_val@U?$_Simple_types@M@std@@@std@@@0@V10@0U?$less@X@0@@Z
	??$max_element@V?$_Vector_iterator@V?$_Vector_val@U?$_Simple_types@M@std@@@std@@@std@@@std@@YA?AV?$_Vector_iterator@V?$_Vector_val@U?$_Simple_types@M@std@@@std@@@0@V10@0@Z
	??$max_element@V?$_Vector_iterator@V?$_Vector_val@U?$_Simple_types@M@std@@@std@@@std@@U?$less@X@2@@std@@YA?AV?$_Vector_iterator@V?$_Vector_val@U?$_Simple_types@M@std@@@std@@@0@V10@0U?$less@X@0@@Z
	??$min@H@std@@YAAEBHAEBH0@Z
	??$min@I@std@@YAAEBIAEBI0@Z
	??$min@_J@std@@YAAEB_JAEB_J0@Z
	??$min@_K@std@@YAAEB_KAEB_K0@Z
	??$move@AEAD@std@@YA$$QEADAEAD@Z
	??$move@AEAE@std@@YA$$QEAEAEAE@Z
	??$move@AEAH@std@@YA$$QEAHAEAH@Z
	??$move@AEAI@std@@YA$$QEAIAEAI@Z
	??$move@AEAM@std@@YA$$QEAMAEAM@Z
	??$move@AEAN@std@@YA$$QEANAEAN@Z
	??$move@AEAP6AHPEAUwhisper_context@@PEAUwhisper_state@@Uwhisper_full_params@@PEBMH@Z@std@@YA$$QEAP6AHPEAUwhisper_context@@PEAUwhisper_state@@Uwhisper_full_params@@PEBMH@ZAEAP6AH0123H@Z@Z
	??$move@AEAP6AXHPEBMAEBV?$vector@MV?$allocator@M@std@@@std@@HHHHAEBUwhisper_filters@@AEAUwhisper_mel@@@Z@std@@YA$$QEAP6AXHPEBMAEBV?$vector@MV?$allocator@M@std@@@0@HHHHAEBUwhisper_filters@@AEAUwhisper_mel@@@ZAEAP6AXH01HHHH23@Z@Z
	??$move@AEAPEAD@std@@YA$$QEAPEADAEAPEAD@Z
	??$move@AEAPEAE@std@@YA$$QEAPEAEAEAPEAE@Z
	??$move@AEAPEAH@std@@YA$$QEAPEAHAEAPEAH@Z
	??$move@AEAPEAI@std@@YA$$QEAPEAIAEAPEAI@Z
	??$move@AEAPEAM@std@@YA$$QEAPEAMAEAPEAM@Z
	??$move@AEAPEAN@std@@YA$$QEAPEANAEAPEAN@Z
	??$move@AEAPEAPEAUggml_backend@@@std@@YA$$QEAPEAPEAUggml_backend@@AEAPEAPEAU1@@Z
	??$move@AEAPEAPEAUggml_backend_buffer@@@std@@YA$$QEAPEAPEAUggml_backend_buffer@@AEAPEAPEAU1@@Z
	??$move@AEAPEAPEAUggml_context@@@std@@YA$$QEAPEAPEAUggml_context@@AEAPEAPEAU1@@Z
	??$move@AEAPEAPEAUggml_tensor@@@std@@YA$$QEAPEAPEAUggml_tensor@@AEAPEAPEAU1@@Z
	??$move@AEAPEAPEAUwhisper_state@@@std@@YA$$QEAPEAPEAUwhisper_state@@AEAPEAPEAU1@@Z
	??$move@AEAPEAPEBUwhisper_grammar_element@@@std@@YA$$QEAPEAPEBUwhisper_grammar_element@@AEAPEAPEBU1@@Z
	??$move@AEAPEAU?$pair@PEAUggml_backend_device@@PEAUggml_backend_buffer_type@@@std@@@std@@YA$$QEAPEAU?$pair@PEAUggml_backend_device@@PEAUggml_backend_buffer_type@@@0@AEAPEAU10@@Z
	??$move@AEAPEAU?$whisper_pair@NH@@@std@@YA$$QEAPEAU?$whisper_pair@NH@@AEAPEAU1@@Z
	??$move@AEAPEAU_Grp_t@?$_Tgt_state_t@PEBD@std@@@std@@YA$$QEAPEAU_Grp_t@?$_Tgt_state_t@PEBD@0@AEAPEAU120@@Z
	??$move@AEAPEAU_Grp_t@?$_Tgt_state_t@V?$_String_const_iterator@V?$_String_val@U?$_Simple_types@D@std@@@std@@@std@@@std@@@std@@YA$$QEAPEAU_Grp_t@?$_Tgt_state_t@V?$_String_const_iterator@V?$_String_val@U?$_Simple_types@D@std@@@std@@@std@@@0@AEAPEAU120@@Z
	??$move@AEAPEAU_Loop_vals_v2_t@std@@@std@@YA$$QEAPEAU_Loop_vals_v2_t@0@AEAPEAU10@@Z
	??$move@AEAPEAUggml_backend@@@std@@YA$$QEAPEAUggml_backend@@AEAPEAU1@@Z
	??$move@AEAPEAUggml_backend_buffer@@@std@@YA$$QEAPEAUggml_backend_buffer@@AEAPEAU1@@Z
	??$move@AEAPEAUggml_context@@@std@@YA$$QEAPEAUggml_context@@AEAPEAU1@@Z
	??$move@AEAPEAUggml_tensor@@@std@@YA$$QEAPEAUggml_tensor@@AEAPEAU1@@Z
	??$move@AEAPEAUvad_segment_info@whisper_state@@@std@@YA$$QEAPEAUvad_segment_info@whisper_state@@AEAPEAU12@@Z
	??$move@AEAPEAUvad_time_mapping@@@std@@YA$$QEAPEAUvad_time_mapping@@AEAPEAU1@@Z
	??$move@AEAPEAUwhisper_context@@@std@@YA$$QEAPEAUwhisper_context@@AEAPEAU1@@Z
	??$move@AEAPEAUwhisper_grammar_candidate@@@std@@YA$$QEAPEAUwhisper_grammar_candidate@@AEAPEAU1@@Z
	??$move@AEAPEAUwhisper_grammar_element@@@std@@YA$$QEAPEAUwhisper_grammar_element@@AEAPEAU1@@Z
	??$move@AEAPEAUwhisper_kv_cell@@@std@@YA$$QEAPEAUwhisper_kv_cell@@AEAPEAU1@@Z
	??$move@AEAPEAUwhisper_layer_decoder@@@std@@YA$$QEAPEAUwhisper_layer_decoder@@AEAPEAU1@@Z
	??$move@AEAPEAUwhisper_layer_encoder@@@std@@YA$$QEAPEAUwhisper_layer_encoder@@AEAPEAU1@@Z
	??$move@AEAPEAUwhisper_state@@@std@@YA$$QEAPEAUwhisper_state@@AEAPEAU1@@Z
	??$move@AEAPEAUwhisper_token_data@@@std@@YA$$QEAPEAUwhisper_token_data@@AEAPEAU1@@Z
	??$move@AEAPEAUwhisper_vad_segment@@@std@@YA$$QEAPEAUwhisper_vad_segment@@AEAPEAU1@@Z
	??$move@AEAPEAV?$sub_match@PEBD@std@@@std@@YA$$QEAPEAV?$sub_match@PEBD@0@AEAPEAV10@@Z
	??$move@AEAPEAV?$sub_match@V?$_String_const_iterator@V?$_String_val@U?$_Simple_types@D@std@@@std@@@std@@@std@@@std@@YA$$QEAPEAV?$sub_match@V?$_String_const_iterator@V?$_String_val@U?$_Simple_types@D@std@@@std@@@std@@@0@AEAPEAV10@@Z
	??$move@AEAPEAV?$vector@PEBUwhisper_grammar_element@@V?$allocator@PEBUwhisper_grammar_element@@@std@@@std@@@std@@YA$$QEAPEAV?$vector@PEBUwhisper_grammar_element@@V?$allocator@PEBUwhisper_grammar_element@@@std@@@0@AEAPEAV10@@Z
	??$move@AEAPEAV?$vector@Uwhisper_grammar_element@@V?$allocator@Uwhisper_grammar_element@@@std@@@std@@@std@@YA$$QEAPEAV?$vector@Uwhisper_grammar_element@@V?$allocator@Uwhisper_grammar_element@@@std@@@0@AEAPEAV10@@Z
	??$move@AEAPEAV_Node_base@std@@@std@@YA$$QEAPEAV_Node_base@0@AEAPEAV10@@Z
	??$move@AEAPEA_K@std@@YA$$QEAPEA_KAEAPEA_K@Z
	??$move@AEAPEBD@std@@YA$$QEAPEBDAEAPEBD@Z
	??$move@AEAPEBH@std@@YA$$QEAPEBHAEAPEBH@Z
	??$move@AEAPEBM@std@@YA$$QEAPEBMAEAPEBM@Z
	??$move@AEAPEBQEBUwhisper_grammar_element@@@std@@YA$$QEAPEBQEBUwhisper_grammar_element@@AEAPEBQEBU1@@Z
	??$move@AEAPEBUwhisper_grammar_element@@@std@@YA$$QEAPEBUwhisper_grammar_element@@AEAPEBU1@@Z
	??$move@AEAPEBV?$basic_string@DU?$char_traits@D@std@@V?$allocator@D@2@@std@@@std@@YA$$QEAPEBV?$basic_string@DU?$char_traits@D@std@@V?$allocator@D@2@@0@AEAPEBV10@@Z
	??$move@AEAPEB_K@std@@YA$$QEAPEB_KAEAPEB_K@Z
	??$move@AEAU?$pair@PEAUggml_backend_device@@PEAUggml_backend_buffer_type@@@std@@@std@@YA$$QEAU?$pair@PEAUggml_backend_device@@PEAUggml_backend_buffer_type@@@0@AEAU10@@Z
	??$move@AEAU?$pair@V?$vector@IV?$allocator@I@std@@@std@@Uwhisper_partial_utf8@@@std@@@std@@YA$$QEAU?$pair@V?$vector@IV?$allocator@I@std@@@std@@Uwhisper_partial_utf8@@@0@AEAU10@@Z
	??$move@AEAU?$whisper_pair@NH@@@std@@YA$$QEAU?$whisper_pair@NH@@AEAU1@@Z
	??$move@AEAU_Grp_t@?$_Tgt_state_t@PEBD@std@@@std@@YA$$QEAU_Grp_t@?$_Tgt_state_t@PEBD@0@AEAU120@@Z
	??$move@AEAU_Grp_t@?$_Tgt_state_t@V?$_String_const_iterator@V?$_String_val@U?$_Simple_types@D@std@@@std@@@std@@@std@@@std@@YA$$QEAU_Grp_t@?$_Tgt_state_t@V?$_String_const_iterator@V?$_String_val@U?$_Simple_types@D@std@@@std@@@std@@@0@AEAU120@@Z
	??$move@AEAU_Loop_vals_v2_t@std@@@std@@YA$$QEAU_Loop_vals_v2_t@0@AEAU10@@Z
	??$move@AEAUvad_segment_info@whisper_state@@@std@@YA$$QEAUvad_segment_info@whisper_state@@AEAU12@@Z
	??$move@AEAUvad_time_mapping@@@std@@YA$$QEAUvad_time_mapping@@AEAU1@@Z
	??$move@AEAUwhisper_full_params@@@std@@YA$$QEAUwhisper_full_params@@AEAU1@@Z
	??$move@AEAUwhisper_grammar_candidate@@@std@@YA$$QEAUwhisper_grammar_candidate@@AEAU1@@Z
	??$move@AEAUwhisper_grammar_element@@@std@@YA$$QEAUwhisper_grammar_element@@AEAU1@@Z
	??$move@AEAUwhisper_layer_decoder@@@std@@YA$$QEAUwhisper_layer_decoder@@AEAU1@@Z
	??$move@AEAUwhisper_layer_encoder@@@std@@YA$$QEAUwhisper_layer_encoder@@AEAU1@@Z
	??$move@AEAUwhisper_segment@@@std@@YA$$QEAUwhisper_segment@@AEAU1@@Z
	??$move@AEAUwhisper_token_data@@@std@@YA$$QEAUwhisper_token_data@@AEAU1@@Z
	??$move@AEAUwhisper_vad_segment@@@std@@YA$$QEAUwhisper_vad_segment@@AEAU1@@Z
	??$move@AEAV?$_Tgt_state_t@PEBD@std@@@std@@YA$$QEAV?$_Tgt_state_t@PEBD@0@AEAV10@@Z
	??$move@AEAV?$_Tgt_state_t@V?$_String_const_iterator@V?$_String_val@U?$_Simple_types@D@std@@@std@@@std@@@std@@@std@@YA$$QEAV?$_Tgt_state_t@V?$_String_const_iterator@V?$_String_val@U?$_Simple_types@D@std@@@std@@@std@@@0@AEAV10@@Z
	??$move@AEAV?$_Vb_iterator@U?$_Wrap_alloc@V?$allocator@I@std@@@std@@@std@@@std@@YA$$QEAV?$_Vb_iterator@U?$_Wrap_alloc@V?$allocator@I@std@@@std@@@0@AEAV10@@Z
	??$move@AEAV?$_Vector_iterator@V?$_Vector_val@U?$_Simple_types@M@std@@@std@@@std@@@std@@YA$$QEAV?$_Vector_iterator@V?$_Vector_val@U?$_Simple_types@M@std@@@std@@@0@AEAV10@@Z
	??$move@AEAV?$allocator@D@std@@@std@@YA$$QEAV?$allocator@D@0@AEAV10@@Z
	??$move@AEAV?$allocator@H@std@@@std@@YA$$QEAV?$allocator@H@0@AEAV10@@Z
	??$move@AEAV?$allocator@I@std@@@std@@YA$$QEAV?$allocator@I@0@AEAV10@@Z
	??$move@AEAV?$allocator@M@std@@@std@@YA$$QEAV?$allocator@M@0@AEAV10@@Z
	??$move@AEAV?$allocator@PEAUggml_backend@@@std@@@std@@YA$$QEAV?$allocator@PEAUggml_backend@@@0@AEAV10@@Z
	??$move@AEAV?$allocator@PEBUwhisper_grammar_element@@@std@@@std@@YA$$QEAV?$allocator@PEBUwhisper_grammar_element@@@0@AEAV10@@Z
	??$move@AEAV?$allocator@U?$pair@PEAUggml_backend_device@@PEAUggml_backend_buffer_type@@@std@@@std@@@std@@YA$$QEAV?$allocator@U?$pair@PEAUggml_backend_device@@PEAUggml_backend_buffer_type@@@std@@@0@AEAV10@@Z
	??$move@AEAV?$allocator@U_Grp_t@?$_Tgt_state_t@PEBD@std@@@std@@@std@@YA$$QEAV?$allocator@U_Grp_t@?$_Tgt_state_t@PEBD@std@@@0@AEAV10@@Z
	??$move@AEAV?$allocator@U_Grp_t@?$_Tgt_state_t@V?$_String_const_iterator@V?$_String_val@U?$_Simple_types@D@std@@@std@@@std@@@std@@@std@@@std@@YA$$QEAV?$allocator@U_Grp_t@?$_Tgt_state_t@V?$_String_const_iterator@V?$_String_val@U?$_Simple_types@D@std@@@std@@@std@@@std@@@0@AEAV10@@Z
	??$move@AEAV?$allocator@Uwhisper_grammar_candidate@@@std@@@std@@YA$$QEAV?$allocator@Uwhisper_grammar_candidate@@@0@AEAV10@@Z
	??$move@AEAV?$allocator@Uwhisper_token_data@@@std@@@std@@YA$$QEAV?$allocator@Uwhisper_token_data@@@0@AEAV10@@Z
	??$move@AEAV?$allocator@Uwhisper_vad_segment@@@std@@@std@@YA$$QEAV?$allocator@Uwhisper_vad_segment@@@0@AEAV10@@Z
	??$move@AEAV?$allocator@V?$vector@PEBUwhisper_grammar_element@@V?$allocator@PEBUwhisper_grammar_element@@@std@@@std@@@std@@@std@@YA$$QEAV?$allocator@V?$vector@PEBUwhisper_grammar_element@@V?$allocator@PEBUwhisper_grammar_element@@@std@@@std@@@0@AEAV10@@Z
	??$move@AEAV?$allocator@V?$vector@Uwhisper_grammar_element@@V?$allocator@Uwhisper_grammar_element@@@std@@@std@@@std@@@std@@YA$$QEAV?$allocator@V?$vector@Uwhisper_grammar_element@@V?$allocator@Uwhisper_grammar_element@@@std@@@std@@@0@AEAV10@@Z
	??$move@AEAV?$allocator@_W@std@@@std@@YA$$QEAV?$allocator@_W@0@AEAV10@@Z
	??$move@AEAV?$basic_string@DU?$char_traits@D@std@@V?$allocator@D@2@@std@@@std@@YA$$QEAV?$basic_string@DU?$char_traits@D@std@@V?$allocator@D@2@@0@AEAV10@@Z
	??$move@AEAV?$reference_wrapper@$$CBUwhisper_filters@@@std@@@std@@YA$$QEAV?$reference_wrapper@$$CBUwhisper_filters@@@0@AEAV10@@Z
	??$move@AEAV?$reference_wrapper@$$CBV?$vector@MV?$allocator@M@std@@@std@@@std@@@std@@YA$$QEAV?$reference_wrapper@$$CBV?$vector@MV?$allocator@M@std@@@std@@@0@AEAV10@@Z
	??$move@AEAV?$reference_wrapper@Uwhisper_mel@@@std@@@std@@YA$$QEAV?$reference_wrapper@Uwhisper_mel@@@0@AEAV10@@Z
	??$move@AEAV?$sub_match@PEBD@std@@@std@@YA$$QEAV?$sub_match@PEBD@0@AEAV10@@Z
	??$move@AEAV?$sub_match@V?$_String_const_iterator@V?$_String_val@U?$_Simple_types@D@std@@@std@@@std@@@std@@@std@@YA$$QEAV?$sub_match@V?$_String_const_iterator@V?$_String_val@U?$_Simple_types@D@std@@@std@@@std@@@0@AEAV10@@Z
	??$move@AEAV?$tuple@$$QEAV?$basic_string@DU?$char_traits@D@std@@V?$allocator@D@2@@std@@@std@@@std@@YA$$QEAV?$tuple@$$QEAV?$basic_string@DU?$char_traits@D@std@@V?$allocator@D@2@@std@@@0@AEAV10@@Z
	??$move@AEAV?$tuple@AEBH@std@@@std@@YA$$QEAV?$tuple@AEBH@0@AEAV10@@Z
	??$move@AEAV?$tuple@AEBQEAUggml_backend_buffer_type@@@std@@@std@@YA$$QEAV?$tuple@AEBQEAUggml_backend_buffer_type@@@0@AEAV10@@Z
	??$move@AEAV?$tuple@AEBV?$basic_string@DU?$char_traits@D@std@@V?$allocator@D@2@@std@@@std@@@std@@YA$$QEAV?$tuple@AEBV?$basic_string@DU?$char_traits@D@std@@V?$allocator@D@2@@std@@@0@AEAV10@@Z
	??$move@AEAV?$vector@IV?$allocator@I@std@@@std@@@std@@YA$$QEAV?$vector@IV?$allocator@I@std@@@0@AEAV10@@Z
	??$move@AEAV?$vector@PEBUwhisper_grammar_element@@V?$allocator@PEBUwhisper_grammar_element@@@std@@@std@@@std@@YA$$QEAV?$vector@PEBUwhisper_grammar_element@@V?$allocator@PEBUwhisper_grammar_element@@@std@@@0@AEAV10@@Z
	??$move@AEAV?$vector@Uwhisper_vad_segment@@V?$allocator@Uwhisper_vad_segment@@@std@@@std@@@std@@YA$$QEAV?$vector@Uwhisper_vad_segment@@V?$allocator@Uwhisper_vad_segment@@@std@@@0@AEAV10@@Z
	??$move@AEAV?$vector@V?$vector@PEBUwhisper_grammar_element@@V?$allocator@PEBUwhisper_grammar_element@@@std@@@std@@V?$allocator@V?$vector@PEBUwhisper_grammar_element@@V?$allocator@PEBUwhisper_grammar_element@@@std@@@std@@@2@@std@@@std@@YA$$QEAV?$vector@V?$vector@PEBUwhisper_grammar_element@@V?$allocator@PEBUwhisper_grammar_element@@@std@@@std@@V?$allocator@V?$vector@PEBUwhisper_grammar_element@@V?$allocator@PEBUwhisper_grammar_element@@@std@@@std@@@2@@0@AEAV10@@Z
	??$move@AEAV?$vector@V?$vector@Uwhisper_grammar_element@@V?$allocator@Uwhisper_grammar_element@@@std@@@std@@V?$allocator@V?$vector@Uwhisper_grammar_element@@V?$allocator@Uwhisper_grammar_element@@@std@@@std@@@2@@std@@@std@@YA$$QEAV?$vector@V?$vector@Uwhisper_grammar_element@@V?$allocator@Uwhisper_grammar_element@@@std@@@std@@V?$allocator@V?$vector@Uwhisper_grammar_element@@V?$allocator@Uwhisper_grammar_element@@@std@@@std@@@2@@0@AEAV10@@Z
	??$move@AEAV?$vector@_NV?$allocator@_N@std@@@std@@@std@@YA$$QEAV?$vector@_NV?$allocator@_N@std@@@0@AEAV10@@Z
	??$move@AEA_J@std@@YA$$QEA_JAEA_J@Z
	??$next@PEBD@std@@YAPEBDPEBD_J@Z
	??$next@PEBN@std@@YAPEBNPEBN_J@Z
	??$next@PEBUvad_time_mapping@@@std@@YAPEBUvad_time_mapping@@PEBU1@_J@Z
	??$pow@MN$0A@@@YANMN@Z
	??$pow@NM$0A@@@YANNM@Z
	??$ref@Uwhisper_mel@@@std@@YA?AV?$reference_wrapper@Uwhisper_mel@@@0@AEAUwhisper_mel@@@Z
	??$regex_match@U?$char_traits@D@std@@V?$allocator@D@2@DV?$regex_traits@D@2@@std@@YA_NAEBV?$basic_string@DU?$char_traits@D@std@@V?$allocator@D@2@@0@AEBV?$basic_regex@DV?$regex_traits@D@std@@@0@W4match_flag_type@regex_constants@0@@Z
	??$regex_search@U?$char_traits@D@std@@V?$allocator@D@2@V?$allocator@V?$sub_match@V?$_String_const_iterator@V?$_String_val@U?$_Simple_types@D@std@@@std@@@std@@@std@@@2@DV?$regex_traits@D@2@@std@@YA_NAEBV?$basic_string@DU?$char_traits@D@std@@V?$allocator@D@2@@0@AEAV?$match_results@V?$_String_const_iterator@V?$_String_val@U?$_Simple_types@D@std@@@std@@@std@@V?$allocator@V?$sub_match@V?$_String_const_iterator@V?$_String_val@U?$_Simple_types@D@std@@@std@@@std@@@std@@@2@@0@AEBV?$basic_regex@DV?$regex_traits@D@std@@@0@W4match_flag_type@regex_constants@0@@Z
	??$reverse@PEAH@std@@YAXQEAH0@Z
	??$reverse_copy@PEBMV?$_Vector_iterator@V?$_Vector_val@U?$_Simple_types@M@std@@@std@@@std@@@std@@YA?AV?$_Vector_iterator@V?$_Vector_val@U?$_Simple_types@M@std@@@std@@@0@PEBM0V10@@Z
	??$rotate@V?$_Vector_iterator@V?$_Vector_val@U?$_Simple_types@H@std@@@std@@@std@@@std@@YA?AV?$_Vector_iterator@V?$_Vector_val@U?$_Simple_types@H@std@@@std@@@0@V10@00@Z
	??$search@V?$_String_const_iterator@V?$_String_val@U?$_Simple_types@D@std@@@std@@@std@@PEBDU?$_Cmp_icase_translateleft@V?$regex_traits@D@std@@@2@@std@@YA?AV?$_String_const_iterator@V?$_String_val@U?$_Simple_types@D@std@@@std@@@0@V10@0QEBD1U?$_Cmp_icase_translateleft@V?$regex_traits@D@std@@@0@@Z
	??$search@V?$_String_const_iterator@V?$_String_val@U?$_Simple_types@D@std@@@std@@@std@@PEBDU?$equal_to@D@2@@std@@YA?AV?$_String_const_iterator@V?$_String_val@U?$_Simple_types@D@std@@@std@@@0@V10@0QEBD1U?$equal_to@D@0@@Z
	??$sort@V?$_Vector_iterator@V?$_Vector_val@U?$_Simple_types@M@std@@@std@@@std@@@std@@YAXV?$_Vector_iterator@V?$_Vector_val@U?$_Simple_types@M@std@@@std@@@0@0@Z
	??$sort@V?$_Vector_iterator@V?$_Vector_val@U?$_Simple_types@M@std@@@std@@@std@@U?$less@X@2@@std@@YAXV?$_Vector_iterator@V?$_Vector_val@U?$_Simple_types@M@std@@@std@@@0@0U?$less@X@0@@Z
	??$swap@D$0A@@std@@YAXAEAD0@Z
	??$swap@H$0A@@std@@YAXAEAH0@Z
	??$swap@M$0A@@std@@YAXAEAM0@Z
	??$swap@PEAV_Node_base@std@@$0A@@std@@YAXAEAPEAV_Node_base@0@0@Z
	??$swap@U?$whisper_pair@NH@@$0A@@std@@YAXAEAU?$whisper_pair@NH@@0@Z
	??$swap@Uvad_time_mapping@@$0A@@std@@YAXAEAUvad_time_mapping@@0@Z
	??$transform@PEAD@?$_Regex_traits@D@std@@QEBA?AV?$basic_string@DU?$char_traits@D@std@@V?$allocator@D@2@@1@PEAD0@Z
	??$transform@PEBD@?$_Regex_traits@D@std@@QEBA?AV?$basic_string@DU?$char_traits@D@std@@V?$allocator@D@2@@1@PEBD0@Z
	??$transform_primary@PEAD@?$_Regex_traits@D@std@@QEBA?AV?$basic_string@DU?$char_traits@D@std@@V?$allocator@D@2@@1@PEAD0@Z
	??$transform_primary@PEBD@?$_Regex_traits@D@std@@QEBA?AV?$basic_string@DU?$char_traits@D@std@@V?$allocator@D@2@@1@PEBD0@Z
	??$transform_primary@V?$_String_iterator@V?$_String_val@U?$_Simple_types@D@std@@@std@@@std@@@?$_Regex_traits@D@std@@QEBA?AV?$basic_string@DU?$char_traits@D@std@@V?$allocator@D@2@@1@V?$_String_iterator@V?$_String_val@U?$_Simple_types@D@std@@@std@@@1@0@Z
	??$use_facet@V?$codecvt@DDU_Mbstatet@@@std@@@std@@YAAEBV?$codecvt@DDU_Mbstatet@@@0@AEBVlocale@0@@Z
	??$use_facet@V?$collate@D@std@@@std@@YAAEBV?$collate@D@0@AEBVlocale@0@@Z
	??$use_facet@V?$ctype@D@std@@@std@@YAAEBV?$ctype@D@0@AEBVlocale@0@@Z
	??0?$_Alloc_construct_ptr@V?$allocator@U?$_Tree_node@HPEAX@std@@@std@@@std@@QEAA@AEAV?$allocator@U?$_Tree_node@HPEAX@std@@@1@@Z
	??0?$_Alloc_construct_ptr@V?$allocator@U?$_Tree_node@U?$pair@$$CBHH@std@@PEAX@std@@@std@@@std@@QEAA@AEAV?$allocator@U?$_Tree_node@U?$pair@$$CBHH@std@@PEAX@std@@@1@@Z
	??0?$_Alloc_construct_ptr@V?$allocator@U?$_Tree_node@U?$pair@$$CBHV?$basic_string@DU?$char_traits@D@std@@V?$allocator@D@2@@std@@@std@@PEAX@std@@@std@@@std@@QEAA@AEAV?$allocator@U?$_Tree_node@U?$pair@$$CBHV?$basic_string@DU?$char_traits@D@std@@V?$allocator@D@2@@std@@@std@@PEAX@std@@@1@@Z
	??0?$_Alloc_construct_ptr@V?$allocator@U?$_Tree_node@U?$pair@$$CBV?$basic_string@DU?$char_traits@D@std@@V?$allocator@D@2@@std@@H@std@@PEAX@std@@@std@@@std@@QEAA@AEAV?$allocator@U?$_Tree_node@U?$pair@$$CBV?$basic_string@DU?$char_traits@D@std@@V?$allocator@D@2@@std@@H@std@@PEAX@std@@@1@@Z
	??0?$_Alloc_construct_ptr@V?$allocator@U?$_Tree_node@U?$pair@$$CBV?$basic_string@DU?$char_traits@D@std@@V?$allocator@D@2@@std@@PEAUggml_tensor@@@std@@PEAX@std@@@std@@@std@@QEAA@AEAV?$allocator@U?$_Tree_node@U?$pair@$$CBV?$basic_string@DU?$char_traits@D@std@@V?$allocator@D@2@@std@@PEAUggml_tensor@@@std@@PEAX@std@@@1@@Z
	??0?$_Alloc_construct_ptr@V?$allocator@U?$_Tree_node@U?$pair@$$CBV?$basic_string@DU?$char_traits@D@std@@V?$allocator@D@2@@std@@U?$pair@HV?$basic_string@DU?$char_traits@D@std@@V?$allocator@D@2@@std@@@2@@std@@PEAX@std@@@std@@@std@@QEAA@AEAV?$allocator@U?$_Tree_node@U?$pair@$$CBV?$basic_string@DU?$char_traits@D@std@@V?$allocator@D@2@@std@@U?$pair@HV?$basic_string@DU?$char_traits@D@std@@V?$allocator@D@2@@std@@@2@@std@@PEAX@std@@@1@@Z
	??0?$_Alloc_construct_ptr@V?$allocator@U?$_Tree_node@U?$pair@$$CBW4asr_system@@V?$map@W4asr_tensor@@PEBDU?$less@W4asr_tensor@@@std@@V?$allocator@U?$pair@$$CBW4asr_tensor@@PEBD@std@@@3@@std@@@std@@PEAX@std@@@std@@@std@@QEAA@AEAV?$allocator@U?$_Tree_node@U?$pair@$$CBW4asr_system@@V?$map@W4asr_tensor@@PEBDU?$less@W4asr_tensor@@@std@@V?$allocator@U?$pair@$$CBW4asr_tensor@@PEBD@std@@@3@@std@@@std@@PEAX@std@@@1@@Z
	??0?$_Alloc_construct_ptr@V?$allocator@U?$_Tree_node@U?$pair@$$CBW4asr_tensor@@PEBD@std@@PEAX@std@@@std@@@std@@QEAA@AEAV?$allocator@U?$_Tree_node@U?$pair@$$CBW4asr_tensor@@PEBD@std@@PEAX@std@@@1@@Z
	??0?$_Alloc_construct_ptr@V?$allocator@U?$_Tree_node@U?$pair@$$CBW4asr_tensor@@W4ggml_op@@@std@@PEAX@std@@@std@@@std@@QEAA@AEAV?$allocator@U?$_Tree_node@U?$pair@$$CBW4asr_tensor@@W4ggml_op@@@std@@PEAX@std@@@1@@Z
	??0?$_Alloc_construct_ptr@V?$allocator@U?$_Tree_node@U?$pair@$$CBW4e_model@@V?$basic_string@DU?$char_traits@D@std@@V?$allocator@D@2@@std@@@std@@PEAX@std@@@std@@@std@@QEAA@AEAV?$allocator@U?$_Tree_node@U?$pair@$$CBW4e_model@@V?$basic_string@DU?$char_traits@D@std@@V?$allocator@D@2@@std@@@std@@PEAX@std@@@1@@Z
	??0?$_Alloc_construct_ptr@V?$allocator@U?$_Tree_node@U?$pair@$$CBW4vad_tensor@@PEBD@std@@PEAX@std@@@std@@@std@@QEAA@AEAV?$allocator@U?$_Tree_node@U?$pair@$$CBW4vad_tensor@@PEBD@std@@PEAX@std@@@1@@Z
	??0?$_Alloc_construct_ptr@V?$allocator@U?$_Tree_node@U?$pair@$$CBW4vad_tensor@@W4ggml_op@@@std@@PEAX@std@@@std@@@std@@QEAA@AEAV?$allocator@U?$_Tree_node@U?$pair@$$CBW4vad_tensor@@W4ggml_op@@@std@@PEAX@std@@@1@@Z
	??0?$_Alloc_construct_ptr@V?$allocator@U?$_Tree_node@U?$pair@$$CBW4whisper_alignment_heads_preset@@Uwhisper_aheads@@@std@@PEAX@std@@@std@@@std@@QEAA@AEAV?$allocator@U?$_Tree_node@U?$pair@$$CBW4whisper_alignment_heads_preset@@Uwhisper_aheads@@@std@@PEAX@std@@@1@@Z
	??0?$_Alloc_construct_ptr@V?$allocator@U?$_Tree_node@U?$pair@QEAUggml_backend_buffer_type@@PEAUggml_context@@@std@@PEAX@std@@@std@@@std@@QEAA@AEAV?$allocator@U?$_Tree_node@U?$pair@QEAUggml_backend_buffer_type@@PEAUggml_context@@@std@@PEAX@std@@@1@@Z
	??0?$_Atomic_integral@H$03@std@@QEAA@AEBH@Z
	??0?$_Atomic_integral_facade@H@std@@QEAA@AEBH@Z
	??0?$_Atomic_storage@H$03@std@@QEAA@AEBH@Z
	??0?$_Bt_state_t@PEBD@std@@QEAA@$$QEAV01@@Z
	??0?$_Bt_state_t@PEBD@std@@QEAA@AEBV01@@Z
	??0?$_Bt_state_t@PEBD@std@@QEAA@XZ
	??0?$_Bt_state_t@V?$_String_const_iterator@V?$_String_val@U?$_Simple_types@D@std@@@std@@@std@@@std@@QEAA@$$QEAV01@@Z
	??0?$_Bt_state_t@V?$_String_const_iterator@V?$_String_val@U?$_Simple_types@D@std@@@std@@@std@@@std@@QEAA@AEBV01@@Z
	??0?$_Bt_state_t@V?$_String_const_iterator@V?$_String_val@U?$_Simple_types@D@std@@@std@@@std@@@std@@QEAA@XZ
	??0?$_Buf@D@std@@QEAA@XZ
	??0?$_Builder2@PEBDDV?$regex_traits@D@std@@@std@@QEAA@AEBV?$regex_traits@D@1@W4syntax_option_type@regex_constants@1@@Z
	??0?$_Cmp_icase@V?$_Regex_traits@D@std@@@std@@QEAA@AEBV?$_Regex_traits@D@1@@Z
	??0?$_Cmp_icase@V?$regex_traits@D@std@@@std@@QEAA@AEBV?$regex_traits@D@1@@Z
	??0?$_Cmp_icase_translateleft@V?$regex_traits@D@std@@@std@@QEAA@AEBV?$regex_traits@D@1@@Z
	??0?$_Func_base@PEAUggml_cgraph@@$$V@std@@QEAA@XZ
	??0?$_Func_class@PEAUggml_cgraph@@$$V@std@@QEAA@XZ
	??0?$_Matcher2@PEBDDV?$regex_traits@D@std@@PEBDX@std@@QEAA@PEBD0AEBV?$regex_traits@D@1@PEAV_Root_node@1@IW4syntax_option_type@regex_constants@1@W4match_flag_type@51@@Z
	??0?$_Matcher2@V?$_String_const_iterator@V?$_String_val@U?$_Simple_types@D@std@@@std@@@std@@DV?$regex_traits@D@2@V12@X@std@@QEAA@V?$_String_const_iterator@V?$_String_val@U?$_Simple_types@D@std@@@std@@@1@0AEBV?$regex_traits@D@1@PEAV_Root_node@1@IW4syntax_option_type@regex_constants@1@W4match_flag_type@61@@Z
	??0?$_Node_class@DV?$regex_traits@D@std@@@std@@QEAA@W4_Node_type@1@W4_Node_flags@1@@Z
	??0?$_Node_str@D@std@@QEAA@W4_Node_flags@1@@Z
	??0?$_Parser2@PEBDDV?$regex_traits@D@std@@@std@@QEAA@AEBV?$regex_traits@D@1@PEBD1W4syntax_option_type@regex_constants@1@@Z
	??0?$_Regex_traits@D@std@@QEAA@XZ
	??0?$_Sequence@D@std@@QEAA@I@Z
	??0?$_String_const_iterator@V?$_String_val@U?$_Simple_types@D@std@@@std@@@std@@QEAA@PEBDPEBU_Container_base0@1@@Z
	??0?$_String_const_iterator@V?$_String_val@U?$_Simple_types@D@std@@@std@@@std@@QEAA@XZ
	??0?$_String_iterator@V?$_String_val@U?$_Simple_types@D@std@@@std@@@std@@QEAA@PEBDPEBU_Container_base0@1@@Z
	??0?$_String_val@U?$_Simple_types@D@std@@@std@@QEAA@XZ
	??0?$_String_val@U?$_Simple_types@_W@std@@@std@@QEAA@XZ
	??0?$_Tgt_state_t@PEBD@std@@QEAA@$$QEAV01@@Z
	??0?$_Tgt_state_t@PEBD@std@@QEAA@AEBV01@@Z
	??0?$_Tgt_state_t@PEBD@std@@QEAA@XZ
	??0?$_Tgt_state_t@V?$_String_const_iterator@V?$_String_val@U?$_Simple_types@D@std@@@std@@@std@@@std@@QEAA@$$QEAV01@@Z
	??0?$_Tgt_state_t@V?$_String_const_iterator@V?$_String_val@U?$_Simple_types@D@std@@@std@@@std@@@std@@QEAA@AEBV01@@Z
	??0?$_Tgt_state_t@V?$_String_const_iterator@V?$_String_val@U?$_Simple_types@D@std@@@std@@@std@@@std@@QEAA@XZ
	??0?$_Tree@V?$_Tmap_traits@HHU?$less@H@std@@V?$allocator@U?$pair@$$CBHH@std@@@2@$0A@@std@@@std@@QEAA@AEBU?$less@H@1@@Z
	??0?$_Tree@V?$_Tmap_traits@HV?$basic_string@DU?$char_traits@D@std@@V?$allocator@D@2@@std@@U?$less@H@2@V?$allocator@U?$pair@$$CBHV?$basic_string@DU?$char_traits@D@std@@V?$allocator@D@2@@std@@@std@@@2@$0A@@std@@@std@@QEAA@AEBU?$less@H@1@@Z
	??0?$_Tree@V?$_Tmap_traits@PEAUggml_backend_buffer_type@@PEAUggml_context@@U?$less@PEAUggml_backend_buffer_type@@@std@@V?$allocator@U?$pair@QEAUggml_backend_buffer_type@@PEAUggml_context@@@std@@@4@$0A@@std@@@std@@QEAA@AEBU?$less@PEAUggml_backend_buffer_type@@@1@@Z
	??0?$_Tree@V?$_Tmap_traits@V?$basic_string@DU?$char_traits@D@std@@V?$allocator@D@2@@std@@HU?$less@V?$basic_string@DU?$char_traits@D@std@@V?$allocator@D@2@@std@@@2@V?$allocator@U?$pair@$$CBV?$basic_string@DU?$char_traits@D@std@@V?$allocator@D@2@@std@@H@std@@@2@$0A@@std@@@std@@QEAA@AEBU?$less@V?$basic_string@DU?$char_traits@D@std@@V?$allocator@D@2@@std@@@1@@Z
	??0?$_Tree@V?$_Tmap_traits@V?$basic_string@DU?$char_traits@D@std@@V?$allocator@D@2@@std@@PEAUggml_tensor@@U?$less@V?$basic_string@DU?$char_traits@D@std@@V?$allocator@D@2@@std@@@2@V?$allocator@U?$pair@$$CBV?$basic_string@DU?$char_traits@D@std@@V?$allocator@D@2@@std@@PEAUggml_tensor@@@std@@@2@$0A@@std@@@std@@QEAA@AEBU?$less@V?$basic_string@DU?$char_traits@D@std@@V?$allocator@D@2@@std@@@1@@Z
	??0?$_Tree@V?$_Tmap_traits@V?$basic_string@DU?$char_traits@D@std@@V?$allocator@D@2@@std@@U?$pair@HV?$basic_string@DU?$char_traits@D@std@@V?$allocator@D@2@@std@@@2@U?$less@V?$basic_string@DU?$char_traits@D@std@@V?$allocator@D@2@@std@@@2@V?$allocator@U?$pair@$$CBV?$basic_string@DU?$char_traits@D@std@@V?$allocator@D@2@@std@@U?$pair@HV?$basic_string@DU?$char_traits@D@std@@V?$allocator@D@2@@std@@@2@@std@@@2@$0A@@std@@@std@@QEAA@AEBU?$less@V?$basic_string@DU?$char_traits@D@std@@V?$allocator@D@2@@std@@@1@@Z
	??0?$_Tree@V?$_Tmap_traits@W4asr_system@@V?$map@W4asr_tensor@@PEBDU?$less@W4asr_tensor@@@std@@V?$allocator@U?$pair@$$CBW4asr_tensor@@PEBD@std@@@3@@std@@U?$less@W4asr_system@@@3@V?$allocator@U?$pair@$$CBW4asr_system@@V?$map@W4asr_tensor@@PEBDU?$less@W4asr_tensor@@@std@@V?$allocator@U?$pair@$$CBW4asr_tensor@@PEBD@std@@@3@@std@@@std@@@3@$0A@@std@@@std@@QEAA@AEBU?$less@W4asr_system@@@1@@Z
	??0?$_Tree@V?$_Tmap_traits@W4asr_tensor@@PEBDU?$less@W4asr_tensor@@@std@@V?$allocator@U?$pair@$$CBW4asr_tensor@@PEBD@std@@@3@$0A@@std@@@std@@QEAA@AEBU?$less@W4asr_tensor@@@1@@Z
	??0?$_Tree@V?$_Tmap_traits@W4asr_tensor@@W4ggml_op@@U?$less@W4asr_tensor@@@std@@V?$allocator@U?$pair@$$CBW4asr_tensor@@W4ggml_op@@@std@@@4@$0A@@std@@@std@@QEAA@AEBU?$less@W4asr_tensor@@@1@@Z
	??0?$_Tree@V?$_Tmap_traits@W4e_model@@V?$basic_string@DU?$char_traits@D@std@@V?$allocator@D@2@@std@@U?$less@W4e_model@@@3@V?$allocator@U?$pair@$$CBW4e_model@@V?$basic_string@DU?$char_traits@D@std@@V?$allocator@D@2@@std@@@std@@@3@$0A@@std@@@std@@QEAA@AEBU?$less@W4e_model@@@1@@Z
	??0?$_Tree@V?$_Tmap_traits@W4vad_tensor@@PEBDU?$less@W4vad_tensor@@@std@@V?$allocator@U?$pair@$$CBW4vad_tensor@@PEBD@std@@@3@$0A@@std@@@std@@QEAA@AEBU?$less@W4vad_tensor@@@1@@Z
	??0?$_Tree@V?$_Tmap_traits@W4vad_tensor@@W4ggml_op@@U?$less@W4vad_tensor@@@std@@V?$allocator@U?$pair@$$CBW4vad_tensor@@W4ggml_op@@@std@@@4@$0A@@std@@@std@@QEAA@AEBU?$less@W4vad_tensor@@@1@@Z
	??0?$_Tree@V?$_Tmap_traits@W4whisper_alignment_heads_preset@@Uwhisper_aheads@@U?$less@W4whisper_alignment_heads_preset@@@std@@V?$allocator@U?$pair@$$CBW4whisper_alignment_heads_preset@@Uwhisper_aheads@@@std@@@4@$0A@@std@@@std@@QEAA@AEBU?$less@W4whisper_alignment_heads_preset@@@1@@Z
	??0?$_Tree@V?$_Tset_traits@HU?$less@H@std@@V?$allocator@H@2@$0A@@std@@@std@@QEAA@AEBU?$less@H@1@@Z
	??0?$_Tree_const_iterator@V?$_Tree_val@U?$_Tree_simple_types@H@std@@@std@@@std@@QEAA@PEAU?$_Tree_node@HPEAX@1@PEBV?$_Tree_val@U?$_Tree_simple_types@H@std@@@1@@Z
	??0?$_Tree_const_iterator@V?$_Tree_val@U?$_Tree_simple_types@U?$pair@$$CBV?$basic_string@DU?$char_traits@D@std@@V?$allocator@D@2@@std@@H@std@@@std@@@std@@@std@@QEAA@PEAU?$_Tree_node@U?$pair@$$CBV?$basic_string@DU?$char_traits@D@std@@V?$allocator@D@2@@std@@H@std@@PEAX@1@PEBV?$_Tree_val@U?$_Tree_simple_types@U?$pair@$$CBV?$basic_string@DU?$char_traits@D@std@@V?$allocator@D@2@@std@@H@std@@@std@@@1@@Z
	??0?$_Tree_const_iterator@V?$_Tree_val@U?$_Tree_simple_types@U?$pair@$$CBV?$basic_string@DU?$char_traits@D@std@@V?$allocator@D@2@@std@@PEAUggml_tensor@@@std@@@std@@@std@@@std@@QEAA@PEAU?$_Tree_node@U?$pair@$$CBV?$basic_string@DU?$char_traits@D@std@@V?$allocator@D@2@@std@@PEAUggml_tensor@@@std@@PEAX@1@PEBV?$_Tree_val@U?$_Tree_simple_types@U?$pair@$$CBV?$basic_string@DU?$char_traits@D@std@@V?$allocator@D@2@@std@@PEAUggml_tensor@@@std@@@std@@@1@@Z
	??0?$_Tree_const_iterator@V?$_Tree_val@U?$_Tree_simple_types@U?$pair@QEAUggml_backend_buffer_type@@PEAUggml_context@@@std@@@std@@@std@@@std@@QEAA@PEAU?$_Tree_node@U?$pair@QEAUggml_backend_buffer_type@@PEAUggml_context@@@std@@PEAX@1@PEBV?$_Tree_val@U?$_Tree_simple_types@U?$pair@QEAUggml_backend_buffer_type@@PEAUggml_context@@@std@@@std@@@1@@Z
	??0?$_Tree_head_scoped_ptr@V?$allocator@U?$_Tree_node@HPEAX@std@@@std@@V?$_Tree_val@U?$_Tree_simple_types@H@std@@@2@@std@@QEAA@AEAV?$allocator@U?$_Tree_node@HPEAX@std@@@1@AEAV?$_Tree_val@U?$_Tree_simple_types@H@std@@@1@@Z
	??0?$_Tree_head_scoped_ptr@V?$allocator@U?$_Tree_node@U?$pair@$$CBW4asr_tensor@@PEBD@std@@PEAX@std@@@std@@V?$_Tree_val@U?$_Tree_simple_types@U?$pair@$$CBW4asr_tensor@@PEBD@std@@@std@@@2@@std@@QEAA@AEAV?$allocator@U?$_Tree_node@U?$pair@$$CBW4asr_tensor@@PEBD@std@@PEAX@std@@@1@AEAV?$_Tree_val@U?$_Tree_simple_types@U?$pair@$$CBW4asr_tensor@@PEBD@std@@@std@@@1@@Z
	??0?$_Tree_iterator@V?$_Tree_val@U?$_Tree_simple_types@U?$pair@$$CBV?$basic_string@DU?$char_traits@D@std@@V?$allocator@D@2@@std@@PEAUggml_tensor@@@std@@@std@@@std@@@std@@QEAA@PEAU?$_Tree_node@U?$pair@$$CBV?$basic_string@DU?$char_traits@D@std@@V?$allocator@D@2@@std@@PEAUggml_tensor@@@std@@PEAX@1@PEBV?$_Tree_val@U?$_Tree_simple_types@U?$pair@$$CBV?$basic_string@DU?$char_traits@D@std@@V?$allocator@D@2@@std@@PEAUggml_tensor@@@std@@@std@@@1@@Z
	??0?$_Tree_iterator@V?$_Tree_val@U?$_Tree_simple_types@U?$pair@QEAUggml_backend_buffer_type@@PEAUggml_context@@@std@@@std@@@std@@@std@@QEAA@PEAU?$_Tree_node@U?$pair@QEAUggml_backend_buffer_type@@PEAUggml_context@@@std@@PEAX@1@PEBV?$_Tree_val@U?$_Tree_simple_types@U?$pair@QEAUggml_backend_buffer_type@@PEAUggml_context@@@std@@@std@@@1@@Z
	??0?$_Tree_temp_node_alloc@V?$allocator@U?$_Tree_node@HPEAX@std@@@std@@@std@@QEAA@AEAV?$allocator@U?$_Tree_node@HPEAX@std@@@1@@Z
	??0?$_Tree_temp_node_alloc@V?$allocator@U?$_Tree_node@U?$pair@$$CBHH@std@@PEAX@std@@@std@@@std@@QEAA@AEAV?$allocator@U?$_Tree_node@U?$pair@$$CBHH@std@@PEAX@std@@@1@@Z
	??0?$_Tree_temp_node_alloc@V?$allocator@U?$_Tree_node@U?$pair@$$CBHV?$basic_string@DU?$char_traits@D@std@@V?$allocator@D@2@@std@@@std@@PEAX@std@@@std@@@std@@QEAA@AEAV?$allocator@U?$_Tree_node@U?$pair@$$CBHV?$basic_string@DU?$char_traits@D@std@@V?$allocator@D@2@@std@@@std@@PEAX@std@@@1@@Z
	??0?$_Tree_temp_node_alloc@V?$allocator@U?$_Tree_node@U?$pair@$$CBV?$basic_string@DU?$char_traits@D@std@@V?$allocator@D@2@@std@@H@std@@PEAX@std@@@std@@@std@@QEAA@AEAV?$allocator@U?$_Tree_node@U?$pair@$$CBV?$basic_string@DU?$char_traits@D@std@@V?$allocator@D@2@@std@@H@std@@PEAX@std@@@1@@Z
	??0?$_Tree_temp_node_alloc@V?$allocator@U?$_Tree_node@U?$pair@$$CBV?$basic_string@DU?$char_traits@D@std@@V?$allocator@D@2@@std@@PEAUggml_tensor@@@std@@PEAX@std@@@std@@@std@@QEAA@AEAV?$allocator@U?$_Tree_node@U?$pair@$$CBV?$basic_string@DU?$char_traits@D@std@@V?$allocator@D@2@@std@@PEAUggml_tensor@@@std@@PEAX@std@@@1@@Z
	??0?$_Tree_temp_node_alloc@V?$allocator@U?$_Tree_node@U?$pair@$$CBV?$basic_string@DU?$char_traits@D@std@@V?$allocator@D@2@@std@@U?$pair@HV?$basic_string@DU?$char_traits@D@std@@V?$allocator@D@2@@std@@@2@@std@@PEAX@std@@@std@@@std@@QEAA@AEAV?$allocator@U?$_Tree_node@U?$pair@$$CBV?$basic_string@DU?$char_traits@D@std@@V?$allocator@D@2@@std@@U?$pair@HV?$basic_string@DU?$char_traits@D@std@@V?$allocator@D@2@@std@@@2@@std@@PEAX@std@@@1@@Z
	??0?$_Tree_temp_node_alloc@V?$allocator@U?$_Tree_node@U?$pair@$$CBW4asr_system@@V?$map@W4asr_tensor@@PEBDU?$less@W4asr_tensor@@@std@@V?$allocator@U?$pair@$$CBW4asr_tensor@@PEBD@std@@@3@@std@@@std@@PEAX@std@@@std@@@std@@QEAA@AEAV?$allocator@U?$_Tree_node@U?$pair@$$CBW4asr_system@@V?$map@W4asr_tensor@@PEBDU?$less@W4asr_tensor@@@std@@V?$allocator@U?$pair@$$CBW4asr_tensor@@PEBD@std@@@3@@std@@@std@@PEAX@std@@@1@@Z
	??0?$_Tree_temp_node_alloc@V?$allocator@U?$_Tree_node@U?$pair@$$CBW4asr_tensor@@PEBD@std@@PEAX@std@@@std@@@std@@QEAA@AEAV?$allocator@U?$_Tree_node@U?$pair@$$CBW4asr_tensor@@PEBD@std@@PEAX@std@@@1@@Z
	??0?$_Tree_temp_node_alloc@V?$allocator@U?$_Tree_node@U?$pair@$$CBW4asr_tensor@@W4ggml_op@@@std@@PEAX@std@@@std@@@std@@QEAA@AEAV?$allocator@U?$_Tree_node@U?$pair@$$CBW4asr_tensor@@W4ggml_op@@@std@@PEAX@std@@@1@@Z
	??0?$_Tree_temp_node_alloc@V?$allocator@U?$_Tree_node@U?$pair@$$CBW4e_model@@V?$basic_string@DU?$char_traits@D@std@@V?$allocator@D@2@@std@@@std@@PEAX@std@@@std@@@std@@QEAA@AEAV?$allocator@U?$_Tree_node@U?$pair@$$CBW4e_model@@V?$basic_string@DU?$char_traits@D@std@@V?$allocator@D@2@@std@@@std@@PEAX@std@@@1@@Z
	??0?$_Tree_temp_node_alloc@V?$allocator@U?$_Tree_node@U?$pair@$$CBW4vad_tensor@@PEBD@std@@PEAX@std@@@std@@@std@@QEAA@AEAV?$allocator@U?$_Tree_node@U?$pair@$$CBW4vad_tensor@@PEBD@std@@PEAX@std@@@1@@Z
	??0?$_Tree_temp_node_alloc@V?$allocator@U?$_Tree_node@U?$pair@$$CBW4vad_tensor@@W4ggml_op@@@std@@PEAX@std@@@std@@@std@@QEAA@AEAV?$allocator@U?$_Tree_node@U?$pair@$$CBW4vad_tensor@@W4ggml_op@@@std@@PEAX@std@@@1@@Z
	??0?$_Tree_temp_node_alloc@V?$allocator@U?$_Tree_node@U?$pair@$$CBW4whisper_alignment_heads_preset@@Uwhisper_aheads@@@std@@PEAX@std@@@std@@@std@@QEAA@AEAV?$allocator@U?$_Tree_node@U?$pair@$$CBW4whisper_alignment_heads_preset@@Uwhisper_aheads@@@std@@PEAX@std@@@1@@Z
	??0?$_Tree_temp_node_alloc@V?$allocator@U?$_Tree_node@U?$pair@QEAUggml_backend_buffer_type@@PEAUggml_context@@@std@@PEAX@std@@@std@@@std@@QEAA@AEAV?$allocator@U?$_Tree_node@U?$pair@QEAUggml_backend_buffer_type@@PEAUggml_context@@@std@@PEAX@std@@@1@@Z
	??0?$_Tree_unchecked_const_iterator@V?$_Tree_val@U?$_Tree_simple_types@H@std@@@std@@U_Iterator_base0@2@@std@@QEAA@PEAU?$_Tree_node@HPEAX@1@PEBV?$_Tree_val@U?$_Tree_simple_types@H@std@@@1@@Z
	??0?$_Tree_unchecked_const_iterator@V?$_Tree_val@U?$_Tree_simple_types@U?$pair@$$CBHH@std@@@std@@@std@@U_Iterator_base0@2@@std@@QEAA@PEAU?$_Tree_node@U?$pair@$$CBHH@std@@PEAX@1@PEBV?$_Tree_val@U?$_Tree_simple_types@U?$pair@$$CBHH@std@@@std@@@1@@Z
	??0?$_Tree_unchecked_const_iterator@V?$_Tree_val@U?$_Tree_simple_types@U?$pair@$$CBV?$basic_string@DU?$char_traits@D@std@@V?$allocator@D@2@@std@@H@std@@@std@@@std@@U_Iterator_base0@2@@std@@QEAA@PEAU?$_Tree_node@U?$pair@$$CBV?$basic_string@DU?$char_traits@D@std@@V?$allocator@D@2@@std@@H@std@@PEAX@1@PEBV?$_Tree_val@U?$_Tree_simple_types@U?$pair@$$CBV?$basic_string@DU?$char_traits@D@std@@V?$allocator@D@2@@std@@H@std@@@std@@@1@@Z
	??0?$_Tree_unchecked_const_iterator@V?$_Tree_val@U?$_Tree_simple_types@U?$pair@$$CBV?$basic_string@DU?$char_traits@D@std@@V?$allocator@D@2@@std@@PEAUggml_tensor@@@std@@@std@@@std@@U_Iterator_base0@2@@std@@QEAA@PEAU?$_Tree_node@U?$pair@$$CBV?$basic_string@DU?$char_traits@D@std@@V?$allocator@D@2@@std@@PEAUggml_tensor@@@std@@PEAX@1@PEBV?$_Tree_val@U?$_Tree_simple_types@U?$pair@$$CBV?$basic_string@DU?$char_traits@D@std@@V?$allocator@D@2@@std@@PEAUggml_tensor@@@std@@@std@@@1@@Z
	??0?$_Tree_unchecked_const_iterator@V?$_Tree_val@U?$_Tree_simple_types@U?$pair@$$CBV?$basic_string@DU?$char_traits@D@std@@V?$allocator@D@2@@std@@U?$pair@HV?$basic_string@DU?$char_traits@D@std@@V?$allocator@D@2@@std@@@2@@std@@@std@@@std@@U_Iterator_base0@2@@std@@QEAA@PEAU?$_Tree_node@U?$pair@$$CBV?$basic_string@DU?$char_traits@D@std@@V?$allocator@D@2@@std@@U?$pair@HV?$basic_string@DU?$char_traits@D@std@@V?$allocator@D@2@@std@@@2@@std@@PEAX@1@PEBV?$_Tree_val@U?$_Tree_simple_types@U?$pair@$$CBV?$basic_string@DU?$char_traits@D@std@@V?$allocator@D@2@@std@@U?$pair@HV?$basic_string@DU?$char_traits@D@std@@V?$allocator@D@2@@std@@@2@@std@@@std@@@1@@Z
	??0?$_Tree_unchecked_const_iterator@V?$_Tree_val@U?$_Tree_simple_types@U?$pair@$$CBW4asr_system@@V?$map@W4asr_tensor@@PEBDU?$less@W4asr_tensor@@@std@@V?$allocator@U?$pair@$$CBW4asr_tensor@@PEBD@std@@@3@@std@@@std@@@std@@@std@@U_Iterator_base0@2@@std@@QEAA@PEAU?$_Tree_node@U?$pair@$$CBW4asr_system@@V?$map@W4asr_tensor@@PEBDU?$less@W4asr_tensor@@@std@@V?$allocator@U?$pair@$$CBW4asr_tensor@@PEBD@std@@@3@@std@@@std@@PEAX@1@PEBV?$_Tree_val@U?$_Tree_simple_types@U?$pair@$$CBW4asr_system@@V?$map@W4asr_tensor@@PEBDU?$less@W4asr_tensor@@@std@@V?$allocator@U?$pair@$$CBW4asr_tensor@@PEBD@std@@@3@@std@@@std@@@std@@@1@@Z
	??0?$_Tree_unchecked_const_iterator@V?$_Tree_val@U?$_Tree_simple_types@U?$pair@$$CBW4asr_tensor@@PEBD@std@@@std@@@std@@U_Iterator_base0@2@@std@@QEAA@PEAU?$_Tree_node@U?$pair@$$CBW4asr_tensor@@PEBD@std@@PEAX@1@PEBV?$_Tree_val@U?$_Tree_simple_types@U?$pair@$$CBW4asr_tensor@@PEBD@std@@@std@@@1@@Z
	??0?$_Tree_unchecked_const_iterator@V?$_Tree_val@U?$_Tree_simple_types@U?$pair@$$CBW4asr_tensor@@W4ggml_op@@@std@@@std@@@std@@U_Iterator_base0@2@@std@@QEAA@PEAU?$_Tree_node@U?$pair@$$CBW4asr_tensor@@W4ggml_op@@@std@@PEAX@1@PEBV?$_Tree_val@U?$_Tree_simple_types@U?$pair@$$CBW4asr_tensor@@W4ggml_op@@@std@@@std@@@1@@Z
	??0?$_Tree_unchecked_const_iterator@V?$_Tree_val@U?$_Tree_simple_types@U?$pair@$$CBW4e_model@@V?$basic_string@DU?$char_traits@D@std@@V?$allocator@D@2@@std@@@std@@@std@@@std@@U_Iterator_base0@2@@std@@QEAA@PEAU?$_Tree_node@U?$pair@$$CBW4e_model@@V?$basic_string@DU?$char_traits@D@std@@V?$allocator@D@2@@std@@@std@@PEAX@1@PEBV?$_Tree_val@U?$_Tree_simple_types@U?$pair@$$CBW4e_model@@V?$basic_string@DU?$char_traits@D@std@@V?$allocator@D@2@@std@@@std@@@std@@@1@@Z
	??0?$_Tree_unchecked_const_iterator@V?$_Tree_val@U?$_Tree_simple_types@U?$pair@$$CBW4vad_tensor@@PEBD@std@@@std@@@std@@U_Iterator_base0@2@@std@@QEAA@PEAU?$_Tree_node@U?$pair@$$CBW4vad_tensor@@PEBD@std@@PEAX@1@PEBV?$_Tree_val@U?$_Tree_simple_types@U?$pair@$$CBW4vad_tensor@@PEBD@std@@@std@@@1@@Z
	??0?$_Tree_unchecked_const_iterator@V?$_Tree_val@U?$_Tree_simple_types@U?$pair@$$CBW4vad_tensor@@W4ggml_op@@@std@@@std@@@std@@U_Iterator_base0@2@@std@@QEAA@PEAU?$_Tree_node@U?$pair@$$CBW4vad_tensor@@W4ggml_op@@@std@@PEAX@1@PEBV?$_Tree_val@U?$_Tree_simple_types@U?$pair@$$CBW4vad_tensor@@W4ggml_op@@@std@@@std@@@1@@Z
	??0?$_Tree_unchecked_const_iterator@V?$_Tree_val@U?$_Tree_simple_types@U?$pair@$$CBW4whisper_alignment_heads_preset@@Uwhisper_aheads@@@std@@@std@@@std@@U_Iterator_base0@2@@std@@QEAA@PEAU?$_Tree_node@U?$pair@$$CBW4whisper_alignment_heads_preset@@Uwhisper_aheads@@@std@@PEAX@1@PEBV?$_Tree_val@U?$_Tree_simple_types@U?$pair@$$CBW4whisper_alignment_heads_preset@@Uwhisper_aheads@@@std@@@std@@@1@@Z
	??0?$_Tree_unchecked_const_iterator@V?$_Tree_val@U?$_Tree_simple_types@U?$pair@QEAUggml_backend_buffer_type@@PEAUggml_context@@@std@@@std@@@std@@U_Iterator_base0@2@@std@@QEAA@PEAU?$_Tree_node@U?$pair@QEAUggml_backend_buffer_type@@PEAUggml_context@@@std@@PEAX@1@PEBV?$_Tree_val@U?$_Tree_simple_types@U?$pair@QEAUggml_backend_buffer_type@@PEAUggml_context@@@std@@@std@@@1@@Z
	??0?$_Tree_unchecked_iterator@V?$_Tree_val@U?$_Tree_simple_types@U?$pair@$$CBHH@std@@@std@@@std@@@std@@QEAA@PEAU?$_Tree_node@U?$pair@$$CBHH@std@@PEAX@1@PEBV?$_Tree_val@U?$_Tree_simple_types@U?$pair@$$CBHH@std@@@std@@@1@@Z
	??0?$_Tree_unchecked_iterator@V?$_Tree_val@U?$_Tree_simple_types@U?$pair@QEAUggml_backend_buffer_type@@PEAUggml_context@@@std@@@std@@@std@@@std@@QEAA@PEAU?$_Tree_node@U?$pair@QEAUggml_backend_buffer_type@@PEAUggml_context@@@std@@PEAX@1@PEBV?$_Tree_val@U?$_Tree_simple_types@U?$pair@QEAUggml_backend_buffer_type@@PEAUggml_context@@@std@@@std@@@1@@Z
	??0?$_Tree_val@U?$_Tree_simple_types@H@std@@@std@@QEAA@XZ
	??0?$_Tree_val@U?$_Tree_simple_types@U?$pair@$$CBHH@std@@@std@@@std@@QEAA@XZ
	??0?$_Tree_val@U?$_Tree_simple_types@U?$pair@$$CBHV?$basic_string@DU?$char_traits@D@std@@V?$allocator@D@2@@std@@@std@@@std@@@std@@QEAA@XZ
	??0?$_Tree_val@U?$_Tree_simple_types@U?$pair@$$CBV?$basic_string@DU?$char_traits@D@std@@V?$allocator@D@2@@std@@H@std@@@std@@@std@@QEAA@XZ
	??0?$_Tree_val@U?$_Tree_simple_types@U?$pair@$$CBV?$basic_string@DU?$char_traits@D@std@@V?$allocator@D@2@@std@@PEAUggml_tensor@@@std@@@std@@@std@@QEAA@XZ
	??0?$_Tree_val@U?$_Tree_simple_types@U?$pair@$$CBV?$basic_string@DU?$char_traits@D@std@@V?$allocator@D@2@@std@@U?$pair@HV?$basic_string@DU?$char_traits@D@std@@V?$allocator@D@2@@std@@@2@@std@@@std@@@std@@QEAA@XZ
	??0?$_Tree_val@U?$_Tree_simple_types@U?$pair@$$CBW4asr_system@@V?$map@W4asr_tensor@@PEBDU?$less@W4asr_tensor@@@std@@V?$allocator@U?$pair@$$CBW4asr_tensor@@PEBD@std@@@3@@std@@@std@@@std@@@std@@QEAA@XZ
	??0?$_Tree_val@U?$_Tree_simple_types@U?$pair@$$CBW4asr_tensor@@PEBD@std@@@std@@@std@@QEAA@XZ
	??0?$_Tree_val@U?$_Tree_simple_types@U?$pair@$$CBW4asr_tensor@@W4ggml_op@@@std@@@std@@@std@@QEAA@XZ
	??0?$_Tree_val@U?$_Tree_simple_types@U?$pair@$$CBW4e_model@@V?$basic_string@DU?$char_traits@D@std@@V?$allocator@D@2@@std@@@std@@@std@@@std@@QEAA@XZ
	??0?$_Tree_val@U?$_Tree_simple_types@U?$pair@$$CBW4vad_tensor@@PEBD@std@@@std@@@std@@QEAA@XZ
	??0?$_Tree_val@U?$_Tree_simple_types@U?$pair@$$CBW4vad_tensor@@W4ggml_op@@@std@@@std@@@std@@QEAA@XZ
	??0?$_Tree_val@U?$_Tree_simple_types@U?$pair@$$CBW4whisper_alignment_heads_preset@@Uwhisper_aheads@@@std@@@std@@@std@@QEAA@XZ
	??0?$_Tree_val@U?$_Tree_simple_types@U?$pair@QEAUggml_backend_buffer_type@@PEAUggml_context@@@std@@@std@@@std@@QEAA@XZ
	??0?$_Uninitialized_backout_al@V?$allocator@D@std@@@std@@QEAA@PEADAEAV?$allocator@D@1@@Z
	??0?$_Uninitialized_backout_al@V?$allocator@E@std@@@std@@QEAA@PEAEAEAV?$allocator@E@1@@Z
	??0?$_Uninitialized_backout_al@V?$allocator@H@std@@@std@@QEAA@PEAHAEAV?$allocator@H@1@@Z
	??0?$_Uninitialized_backout_al@V?$allocator@I@std@@@std@@QEAA@PEAIAEAV?$allocator@I@1@@Z
	??0?$_Uninitialized_backout_al@V?$allocator@M@std@@@std@@QEAA@PEAMAEAV?$allocator@M@1@@Z
	??0?$_Uninitialized_backout_al@V?$allocator@N@std@@@std@@QEAA@PEANAEAV?$allocator@N@1@@Z
	??0?$_Uninitialized_backout_al@V?$allocator@PEAUggml_backend@@@std@@@std@@QEAA@PEAPEAUggml_backend@@AEAV?$allocator@PEAUggml_backend@@@1@@Z
	??0?$_Uninitialized_backout_al@V?$allocator@PEAUggml_backend_buffer@@@std@@@std@@QEAA@PEAPEAUggml_backend_buffer@@AEAV?$allocator@PEAUggml_backend_buffer@@@1@@Z
	??0?$_Uninitialized_backout_al@V?$allocator@PEAUggml_context@@@std@@@std@@QEAA@PEAPEAUggml_context@@AEAV?$allocator@PEAUggml_context@@@1@@Z
	??0?$_Uninitialized_backout_al@V?$allocator@PEAUggml_tensor@@@std@@@std@@QEAA@PEAPEAUggml_tensor@@AEAV?$allocator@PEAUggml_tensor@@@1@@Z
	??0?$_Uninitialized_backout_al@V?$allocator@PEAUwhisper_state@@@std@@@std@@QEAA@PEAPEAUwhisper_state@@AEAV?$allocator@PEAUwhisper_state@@@1@@Z
	??0?$_Uninitialized_backout_al@V?$allocator@PEBUwhisper_grammar_element@@@std@@@std@@QEAA@PEAPEBUwhisper_grammar_element@@AEAV?$allocator@PEBUwhisper_grammar_element@@@1@@Z
	??0?$_Uninitialized_backout_al@V?$allocator@U?$pair@PEAUggml_backend_device@@PEAUggml_backend_buffer_type@@@std@@@std@@@std@@QEAA@PEAU?$pair@PEAUggml_backend_device@@PEAUggml_backend_buffer_type@@@1@AEAV?$allocator@U?$pair@PEAUggml_backend_device@@PEAUggml_backend_buffer_type@@@std@@@1@@Z
	??0?$_Uninitialized_backout_al@V?$allocator@U?$pair@V?$vector@IV?$allocator@I@std@@@std@@Uwhisper_partial_utf8@@@std@@@std@@@std@@QEAA@PEAU?$pair@V?$vector@IV?$allocator@I@std@@@std@@Uwhisper_partial_utf8@@@1@AEAV?$allocator@U?$pair@V?$vector@IV?$allocator@I@std@@@std@@Uwhisper_partial_utf8@@@std@@@1@@Z
	??0?$_Uninitialized_backout_al@V?$allocator@U?$whisper_pair@NH@@@std@@@std@@QEAA@PEAU?$whisper_pair@NH@@AEAV?$allocator@U?$whisper_pair@NH@@@1@@Z
	??0?$_Uninitialized_backout_al@V?$allocator@U_Grp_t@?$_Tgt_state_t@PEBD@std@@@std@@@std@@QEAA@PEAU_Grp_t@?$_Tgt_state_t@PEBD@1@AEAV?$allocator@U_Grp_t@?$_Tgt_state_t@PEBD@std@@@1@@Z
	??0?$_Uninitialized_backout_al@V?$allocator@U_Grp_t@?$_Tgt_state_t@V?$_String_const_iterator@V?$_String_val@U?$_Simple_types@D@std@@@std@@@std@@@std@@@std@@@std@@QEAA@PEAU_Grp_t@?$_Tgt_state_t@V?$_String_const_iterator@V?$_String_val@U?$_Simple_types@D@std@@@std@@@std@@@1@AEAV?$allocator@U_Grp_t@?$_Tgt_state_t@V?$_String_const_iterator@V?$_String_val@U?$_Simple_types@D@std@@@std@@@std@@@std@@@1@@Z
	??0?$_Uninitialized_backout_al@V?$allocator@U_Loop_vals_v2_t@std@@@std@@@std@@QEAA@PEAU_Loop_vals_v2_t@1@AEAV?$allocator@U_Loop_vals_v2_t@std@@@1@@Z
	??0?$_Uninitialized_backout_al@V?$allocator@Uvad_segment_info@whisper_state@@@std@@@std@@QEAA@PEAUvad_segment_info@whisper_state@@AEAV?$allocator@Uvad_segment_info@whisper_state@@@1@@Z
	??0?$_Uninitialized_backout_al@V?$allocator@Uvad_time_mapping@@@std@@@std@@QEAA@PEAUvad_time_mapping@@AEAV?$allocator@Uvad_time_mapping@@@1@@Z
	??0?$_Uninitialized_backout_al@V?$allocator@Uwhisper_grammar_candidate@@@std@@@std@@QEAA@PEAUwhisper_grammar_candidate@@AEAV?$allocator@Uwhisper_grammar_candidate@@@1@@Z
	??0?$_Uninitialized_backout_al@V?$allocator@Uwhisper_grammar_element@@@std@@@std@@QEAA@PEAUwhisper_grammar_element@@AEAV?$allocator@Uwhisper_grammar_element@@@1@@Z
	??0?$_Uninitialized_backout_al@V?$allocator@Uwhisper_kv_cell@@@std@@@std@@QEAA@PEAUwhisper_kv_cell@@AEAV?$allocator@Uwhisper_kv_cell@@@1@@Z
	??0?$_Uninitialized_backout_al@V?$allocator@Uwhisper_layer_decoder@@@std@@@std@@QEAA@PEAUwhisper_layer_decoder@@AEAV?$allocator@Uwhisper_layer_decoder@@@1@@Z
	??0?$_Uninitialized_backout_al@V?$allocator@Uwhisper_layer_encoder@@@std@@@std@@QEAA@PEAUwhisper_layer_encoder@@AEAV?$allocator@Uwhisper_layer_encoder@@@1@@Z
	??0?$_Uninitialized_backout_al@V?$allocator@Uwhisper_segment@@@std@@@std@@QEAA@PEAUwhisper_segment@@AEAV?$allocator@Uwhisper_segment@@@1@@Z
	??0?$_Uninitialized_backout_al@V?$allocator@Uwhisper_token_data@@@std@@@std@@QEAA@PEAUwhisper_token_data@@AEAV?$allocator@Uwhisper_token_data@@@1@@Z
	??0?$_Uninitialized_backout_al@V?$allocator@Uwhisper_vad_segment@@@std@@@std@@QEAA@PEAUwhisper_vad_segment@@AEAV?$allocator@Uwhisper_vad_segment@@@1@@Z
	??0?$_Uninitialized_backout_al@V?$allocator@V?$_Tgt_state_t@PEBD@std@@@std@@@std@@QEAA@PEAV?$_Tgt_state_t@PEBD@1@AEAV?$allocator@V?$_Tgt_state_t@PEBD@std@@@1@@Z
	??0?$_Uninitialized_backout_al@V?$allocator@V?$_Tgt_state_t@V?$_String_const_iterator@V?$_String_val@U?$_Simple_types@D@std@@@std@@@std@@@std@@@std@@@std@@QEAA@PEAV?$_Tgt_state_t@V?$_String_const_iterator@V?$_String_val@U?$_Simple_types@D@std@@@std@@@std@@@1@AEAV?$allocator@V?$_Tgt_state_t@V?$_String_const_iterator@V?$_String_val@U?$_Simple_types@D@std@@@std@@@std@@@std@@@1@@Z
	??0?$_Uninitialized_backout_al@V?$allocator@V?$basic_string@DU?$char_traits@D@std@@V?$allocator@D@2@@std@@@std@@@std@@QEAA@PEAV?$basic_string@DU?$char_traits@D@std@@V?$allocator@D@2@@1@AEAV?$allocator@V?$basic_string@DU?$char_traits@D@std@@V?$allocator@D@2@@std@@@1@@Z
	??0?$_Uninitialized_backout_al@V?$allocator@V?$sub_match@PEBD@std@@@std@@@std@@QEAA@PEAV?$sub_match@PEBD@1@AEAV?$allocator@V?$sub_match@PEBD@std@@@1@@Z
	??0?$_Uninitialized_backout_al@V?$allocator@V?$sub_match@V?$_String_const_iterator@V?$_String_val@U?$_Simple_types@D@std@@@std@@@std@@@std@@@std@@@std@@QEAA@PEAV?$sub_match@V?$_String_const_iterator@V?$_String_val@U?$_Simple_types@D@std@@@std@@@std@@@1@AEAV?$allocator@V?$sub_match@V?$_String_const_iterator@V?$_String_val@U?$_Simple_types@D@std@@@std@@@std@@@std@@@1@@Z
	??0?$_Uninitialized_backout_al@V?$allocator@V?$vector@PEBUwhisper_grammar_element@@V?$allocator@PEBUwhisper_grammar_element@@@std@@@std@@@std@@@std@@QEAA@PEAV?$vector@PEBUwhisper_grammar_element@@V?$allocator@PEBUwhisper_grammar_element@@@std@@@1@AEAV?$allocator@V?$vector@PEBUwhisper_grammar_element@@V?$allocator@PEBUwhisper_grammar_element@@@std@@@std@@@1@@Z
	??0?$_Uninitialized_backout_al@V?$allocator@V?$vector@Uwhisper_grammar_element@@V?$allocator@Uwhisper_grammar_element@@@std@@@std@@@std@@@std@@QEAA@PEAV?$vector@Uwhisper_grammar_element@@V?$allocator@Uwhisper_grammar_element@@@std@@@1@AEAV?$allocator@V?$vector@Uwhisper_grammar_element@@V?$allocator@Uwhisper_grammar_element@@@std@@@std@@@1@@Z
	??0?$_Uninitialized_backout_al@V?$allocator@Vthread@std@@@std@@@std@@QEAA@PEAVthread@1@AEAV?$allocator@Vthread@std@@@1@@Z
	??0?$_Uninitialized_backout_al@V?$allocator@_K@std@@@std@@QEAA@PEA_KAEAV?$allocator@_K@1@@Z
	??0?$_Vb_const_iterator@U?$_Wrap_alloc@V?$allocator@I@std@@@std@@@std@@QEAA@PEBIPEBU_Container_base0@1@@Z
	??0?$_Vb_iter_base@U?$_Wrap_alloc@V?$allocator@I@std@@@std@@@std@@QEAA@PEBI_KPEBU_Container_base0@1@@Z
	??0?$_Vb_iterator@U?$_Wrap_alloc@V?$allocator@I@std@@@std@@@std@@QEAA@PEBIPEBU_Container_base0@1@@Z
	??0?$_Vb_reference@U?$_Wrap_alloc@V?$allocator@I@std@@@std@@@std@@QEAA@AEBV?$_Vb_iter_base@U?$_Wrap_alloc@V?$allocator@I@std@@@std@@@1@@Z
	??0?$_Vb_val@V?$allocator@_N@std@@@std@@QEAA@$$QEAV01@@Z
	??0?$_Vb_val@V?$allocator@_N@std@@@std@@QEAA@AEBV01@@Z
	??0?$_Vb_val@V?$allocator@_N@std@@@std@@QEAA@AEBV?$allocator@_N@1@@Z
	??0?$_Vector_const_iterator@V?$_Vector_val@U?$_Simple_types@H@std@@@std@@@std@@QEAA@PEAHPEBU_Container_base0@1@@Z
	??0?$_Vector_const_iterator@V?$_Vector_val@U?$_Simple_types@I@std@@@std@@@std@@QEAA@PEAIPEBU_Container_base0@1@@Z
	??0?$_Vector_const_iterator@V?$_Vector_val@U?$_Simple_types@M@std@@@std@@@std@@QEAA@PEAMPEBU_Container_base0@1@@Z
	??0?$_Vector_const_iterator@V?$_Vector_val@U?$_Simple_types@N@std@@@std@@@std@@QEAA@PEANPEBU_Container_base0@1@@Z
	??0?$_Vector_const_iterator@V?$_Vector_val@U?$_Simple_types@PEBUwhisper_grammar_element@@@std@@@std@@@std@@QEAA@PEAPEBUwhisper_grammar_element@@PEBU_Container_base0@1@@Z
	??0?$_Vector_const_iterator@V?$_Vector_val@U?$_Simple_types@U?$whisper_pair@NH@@@std@@@std@@@std@@QEAA@PEAU?$whisper_pair@NH@@PEBU_Container_base0@1@@Z
	??0?$_Vector_const_iterator@V?$_Vector_val@U?$_Simple_types@Uvad_time_mapping@@@std@@@std@@@std@@QEAA@PEAUvad_time_mapping@@PEBU_Container_base0@1@@Z
	??0?$_Vector_const_iterator@V?$_Vector_val@U?$_Simple_types@Uwhisper_segment@@@std@@@std@@@std@@QEAA@PEAUwhisper_segment@@PEBU_Container_base0@1@@Z
	??0?$_Vector_const_iterator@V?$_Vector_val@U?$_Simple_types@Uwhisper_token_data@@@std@@@std@@@std@@QEAA@PEAUwhisper_token_data@@PEBU_Container_base0@1@@Z
	??0?$_Vector_iterator@V?$_Vector_val@U?$_Simple_types@H@std@@@std@@@std@@QEAA@PEAHPEBU_Container_base0@1@@Z
	??0?$_Vector_iterator@V?$_Vector_val@U?$_Simple_types@I@std@@@std@@@std@@QEAA@PEAIPEBU_Container_base0@1@@Z
	??0?$_Vector_iterator@V?$_Vector_val@U?$_Simple_types@M@std@@@std@@@std@@QEAA@PEAMPEBU_Container_base0@1@@Z
	??0?$_Vector_iterator@V?$_Vector_val@U?$_Simple_types@U?$whisper_pair@NH@@@std@@@std@@@std@@QEAA@PEAU?$whisper_pair@NH@@PEBU_Container_base0@1@@Z
	??0?$_Vector_iterator@V?$_Vector_val@U?$_Simple_types@Uvad_time_mapping@@@std@@@std@@@std@@QEAA@PEAUvad_time_mapping@@PEBU_Container_base0@1@@Z
	??0?$_Vector_iterator@V?$_Vector_val@U?$_Simple_types@Uwhisper_segment@@@std@@@std@@@std@@QEAA@PEAUwhisper_segment@@PEBU_Container_base0@1@@Z
	??0?$_Vector_iterator@V?$_Vector_val@U?$_Simple_types@Uwhisper_token_data@@@std@@@std@@@std@@QEAA@PEAUwhisper_token_data@@PEBU_Container_base0@1@@Z
	??0?$_Vector_val@U?$_Simple_types@D@std@@@std@@QEAA@XZ
	??0?$_Vector_val@U?$_Simple_types@E@std@@@std@@QEAA@XZ
	??0?$_Vector_val@U?$_Simple_types@H@std@@@std@@QEAA@PEAH00@Z
	??0?$_Vector_val@U?$_Simple_types@H@std@@@std@@QEAA@XZ
	??0?$_Vector_val@U?$_Simple_types@I@std@@@std@@QEAA@PEAI00@Z
	??0?$_Vector_val@U?$_Simple_types@I@std@@@std@@QEAA@XZ
	??0?$_Vector_val@U?$_Simple_types@M@std@@@std@@QEAA@PEAM00@Z
	??0?$_Vector_val@U?$_Simple_types@M@std@@@std@@QEAA@XZ
	??0?$_Vector_val@U?$_Simple_types@N@std@@@std@@QEAA@XZ
	??0?$_Vector_val@U?$_Simple_types@PEAUggml_backend@@@std@@@std@@QEAA@PEAPEAUggml_backend@@00@Z
	??0?$_Vector_val@U?$_Simple_types@PEAUggml_backend@@@std@@@std@@QEAA@XZ
	??0?$_Vector_val@U?$_Simple_types@PEAUggml_backend_buffer@@@std@@@std@@QEAA@XZ
	??0?$_Vector_val@U?$_Simple_types@PEAUggml_context@@@std@@@std@@QEAA@XZ
	??0?$_Vector_val@U?$_Simple_types@PEAUggml_tensor@@@std@@@std@@QEAA@XZ
	??0?$_Vector_val@U?$_Simple_types@PEAUwhisper_state@@@std@@@std@@QEAA@XZ
	??0?$_Vector_val@U?$_Simple_types@PEBUwhisper_grammar_element@@@std@@@std@@QEAA@PEAPEBUwhisper_grammar_element@@00@Z
	??0?$_Vector_val@U?$_Simple_types@PEBUwhisper_grammar_element@@@std@@@std@@QEAA@XZ
	??0?$_Vector_val@U?$_Simple_types@U?$pair@PEAUggml_backend_device@@PEAUggml_backend_buffer_type@@@std@@@std@@@std@@QEAA@PEAU?$pair@PEAUggml_backend_device@@PEAUggml_backend_buffer_type@@@1@00@Z
	??0?$_Vector_val@U?$_Simple_types@U?$pair@PEAUggml_backend_device@@PEAUggml_backend_buffer_type@@@std@@@std@@@std@@QEAA@XZ
	??0?$_Vector_val@U?$_Simple_types@U?$pair@V?$vector@IV?$allocator@I@std@@@std@@Uwhisper_partial_utf8@@@std@@@std@@@std@@QEAA@XZ
	??0?$_Vector_val@U?$_Simple_types@U?$whisper_pair@NH@@@std@@@std@@QEAA@XZ
	??0?$_Vector_val@U?$_Simple_types@U_Grp_t@?$_Tgt_state_t@PEBD@std@@@std@@@std@@QEAA@PEAU_Grp_t@?$_Tgt_state_t@PEBD@1@00@Z
	??0?$_Vector_val@U?$_Simple_types@U_Grp_t@?$_Tgt_state_t@PEBD@std@@@std@@@std@@QEAA@XZ
	??0?$_Vector_val@U?$_Simple_types@U_Grp_t@?$_Tgt_state_t@V?$_String_const_iterator@V?$_String_val@U?$_Simple_types@D@std@@@std@@@std@@@std@@@std@@@std@@QEAA@PEAU_Grp_t@?$_Tgt_state_t@V?$_String_const_iterator@V?$_String_val@U?$_Simple_types@D@std@@@std@@@std@@@1@00@Z
	??0?$_Vector_val@U?$_Simple_types@U_Grp_t@?$_Tgt_state_t@V?$_String_const_iterator@V?$_String_val@U?$_Simple_types@D@std@@@std@@@std@@@std@@@std@@@std@@QEAA@XZ
	??0?$_Vector_val@U?$_Simple_types@U_Loop_vals_v2_t@std@@@std@@@std@@QEAA@XZ
	??0?$_Vector_val@U?$_Simple_types@Uvad_segment_info@whisper_state@@@std@@@std@@QEAA@XZ
	??0?$_Vector_val@U?$_Simple_types@Uvad_time_mapping@@@std@@@std@@QEAA@XZ
	??0?$_Vector_val@U?$_Simple_types@Uwhisper_grammar_candidate@@@std@@@std@@QEAA@PEAUwhisper_grammar_candidate@@00@Z
	??0?$_Vector_val@U?$_Simple_types@Uwhisper_grammar_candidate@@@std@@@std@@QEAA@XZ
	??0?$_Vector_val@U?$_Simple_types@Uwhisper_grammar_element@@@std@@@std@@QEAA@XZ
	??0?$_Vector_val@U?$_Simple_types@Uwhisper_kv_cell@@@std@@@std@@QEAA@XZ
	??0?$_Vector_val@U?$_Simple_types@Uwhisper_layer_decoder@@@std@@@std@@QEAA@XZ
	??0?$_Vector_val@U?$_Simple_types@Uwhisper_layer_encoder@@@std@@@std@@QEAA@XZ
	??0?$_Vector_val@U?$_Simple_types@Uwhisper_segment@@@std@@@std@@QEAA@XZ
	??0?$_Vector_val@U?$_Simple_types@Uwhisper_token_data@@@std@@@std@@QEAA@PEAUwhisper_token_data@@00@Z
	??0?$_Vector_val@U?$_Simple_types@Uwhisper_token_data@@@std@@@std@@QEAA@XZ
	??0?$_Vector_val@U?$_Simple_types@Uwhisper_vad_segment@@@std@@@std@@QEAA@XZ
	??0?$_Vector_val@U?$_Simple_types@V?$_Tgt_state_t@PEBD@std@@@std@@@std@@QEAA@XZ
	??0?$_Vector_val@U?$_Simple_types@V?$_Tgt_state_t@V?$_String_const_iterator@V?$_String_val@U?$_Simple_types@D@std@@@std@@@std@@@std@@@std@@@std@@QEAA@XZ
	??0?$_Vector_val@U?$_Simple_types@V?$basic_string@DU?$char_traits@D@std@@V?$allocator@D@2@@std@@@std@@@std@@QEAA@XZ
	??0?$_Vector_val@U?$_Simple_types@V?$sub_match@V?$_String_const_iterator@V?$_String_val@U?$_Simple_types@D@std@@@std@@@std@@@std@@@std@@@std@@QEAA@XZ
	??0?$_Vector_val@U?$_Simple_types@V?$vector@PEBUwhisper_grammar_element@@V?$allocator@PEBUwhisper_grammar_element@@@std@@@std@@@std@@@std@@QEAA@PEAV?$vector@PEBUwhisper_grammar_element@@V?$allocator@PEBUwhisper_grammar_element@@@std@@@1@00@Z
	??0?$_Vector_val@U?$_Simple_types@V?$vector@PEBUwhisper_grammar_element@@V?$allocator@PEBUwhisper_grammar_element@@@std@@@std@@@std@@@std@@QEAA@XZ
	??0?$_Vector_val@U?$_Simple_types@V?$vector@Uwhisper_grammar_element@@V?$allocator@Uwhisper_grammar_element@@@std@@@std@@@std@@@std@@QEAA@PEAV?$vector@Uwhisper_grammar_element@@V?$allocator@Uwhisper_grammar_element@@@std@@@1@00@Z
	??0?$_Vector_val@U?$_Simple_types@V?$vector@Uwhisper_grammar_element@@V?$allocator@Uwhisper_grammar_element@@@std@@@std@@@std@@@std@@QEAA@XZ
	??0?$_Vector_val@U?$_Simple_types@Vthread@std@@@std@@@std@@QEAA@XZ
	??0?$_Vector_val@U?$_Simple_types@_K@std@@@std@@QEAA@XZ
	??0?$allocator@D@std@@QEAA@XZ
	??0?$allocator@E@std@@QEAA@XZ
	??0?$allocator@H@std@@QEAA@XZ
	??0?$allocator@I@std@@QEAA@XZ
	??0?$allocator@M@std@@QEAA@XZ
	??0?$allocator@N@std@@QEAA@XZ
	??0?$allocator@PEAUggml_backend@@@std@@QEAA@XZ
	??0?$allocator@PEAUggml_backend_buffer@@@std@@QEAA@XZ
	??0?$allocator@PEAUggml_context@@@std@@QEAA@XZ
	??0?$allocator@PEAUggml_tensor@@@std@@QEAA@XZ
	??0?$allocator@PEAUwhisper_state@@@std@@QEAA@XZ
	??0?$allocator@PEBUwhisper_grammar_element@@@std@@QEAA@XZ
	??0?$allocator@U?$_Tree_node@HPEAX@std@@@std@@QEAA@XZ
	??0?$allocator@U?$_Tree_node@U?$pair@$$CBHH@std@@PEAX@std@@@std@@QEAA@XZ
	??0?$allocator@U?$_Tree_node@U?$pair@$$CBHV?$basic_string@DU?$char_traits@D@std@@V?$allocator@D@2@@std@@@std@@PEAX@std@@@std@@QEAA@XZ
	??0?$allocator@U?$_Tree_node@U?$pair@$$CBV?$basic_string@DU?$char_traits@D@std@@V?$allocator@D@2@@std@@H@std@@PEAX@std@@@std@@QEAA@XZ
	??0?$allocator@U?$_Tree_node@U?$pair@$$CBV?$basic_string@DU?$char_traits@D@std@@V?$allocator@D@2@@std@@PEAUggml_tensor@@@std@@PEAX@std@@@std@@QEAA@XZ
	??0?$allocator@U?$_Tree_node@U?$pair@$$CBV?$basic_string@DU?$char_traits@D@std@@V?$allocator@D@2@@std@@U?$pair@HV?$basic_string@DU?$char_traits@D@std@@V?$allocator@D@2@@std@@@2@@std@@PEAX@std@@@std@@QEAA@XZ
	??0?$allocator@U?$_Tree_node@U?$pair@$$CBW4asr_system@@V?$map@W4asr_tensor@@PEBDU?$less@W4asr_tensor@@@std@@V?$allocator@U?$pair@$$CBW4asr_tensor@@PEBD@std@@@3@@std@@@std@@PEAX@std@@@std@@QEAA@XZ
	??0?$allocator@U?$_Tree_node@U?$pair@$$CBW4asr_tensor@@PEBD@std@@PEAX@std@@@std@@QEAA@XZ
	??0?$allocator@U?$_Tree_node@U?$pair@$$CBW4asr_tensor@@W4ggml_op@@@std@@PEAX@std@@@std@@QEAA@XZ
	??0?$allocator@U?$_Tree_node@U?$pair@$$CBW4e_model@@V?$basic_string@DU?$char_traits@D@std@@V?$allocator@D@2@@std@@@std@@PEAX@std@@@std@@QEAA@XZ
	??0?$allocator@U?$_Tree_node@U?$pair@$$CBW4vad_tensor@@PEBD@std@@PEAX@std@@@std@@QEAA@XZ
	??0?$allocator@U?$_Tree_node@U?$pair@$$CBW4vad_tensor@@W4ggml_op@@@std@@PEAX@std@@@std@@QEAA@XZ
	??0?$allocator@U?$_Tree_node@U?$pair@$$CBW4whisper_alignment_heads_preset@@Uwhisper_aheads@@@std@@PEAX@std@@@std@@QEAA@XZ
	??0?$allocator@U?$_Tree_node@U?$pair@QEAUggml_backend_buffer_type@@PEAUggml_context@@@std@@PEAX@std@@@std@@QEAA@XZ
	??0?$allocator@U?$pair@PEAUggml_backend_device@@PEAUggml_backend_buffer_type@@@std@@@std@@QEAA@XZ
	??0?$allocator@U?$pair@V?$vector@IV?$allocator@I@std@@@std@@Uwhisper_partial_utf8@@@std@@@std@@QEAA@XZ
	??0?$allocator@U?$whisper_pair@NH@@@std@@QEAA@XZ
	??0?$allocator@U_Grp_t@?$_Tgt_state_t@PEBD@std@@@std@@QEAA@XZ
	??0?$allocator@U_Grp_t@?$_Tgt_state_t@V?$_String_const_iterator@V?$_String_val@U?$_Simple_types@D@std@@@std@@@std@@@std@@@std@@QEAA@XZ
	??0?$allocator@U_Loop_vals_v2_t@std@@@std@@QEAA@XZ
	??0?$allocator@Uvad_segment_info@whisper_state@@@std@@QEAA@XZ
	??0?$allocator@Uvad_time_mapping@@@std@@QEAA@XZ
	??0?$allocator@Uwhisper_grammar_candidate@@@std@@QEAA@XZ
	??0?$allocator@Uwhisper_grammar_element@@@std@@QEAA@XZ
	??0?$allocator@Uwhisper_kv_cell@@@std@@QEAA@XZ
	??0?$allocator@Uwhisper_layer_decoder@@@std@@QEAA@XZ
	??0?$allocator@Uwhisper_layer_encoder@@@std@@QEAA@XZ
	??0?$allocator@Uwhisper_segment@@@std@@QEAA@XZ
	??0?$allocator@Uwhisper_token_data@@@std@@QEAA@XZ
	??0?$allocator@Uwhisper_vad_segment@@@std@@QEAA@XZ
	??0?$allocator@V?$_Tgt_state_t@PEBD@std@@@std@@QEAA@XZ
	??0?$allocator@V?$_Tgt_state_t@V?$_String_const_iterator@V?$_String_val@U?$_Simple_types@D@std@@@std@@@std@@@std@@@std@@QEAA@XZ
	??0?$allocator@V?$basic_string@DU?$char_traits@D@std@@V?$allocator@D@2@@std@@@std@@QEAA@XZ
	??0?$allocator@V?$sub_match@V?$_String_const_iterator@V?$_String_val@U?$_Simple_types@D@std@@@std@@@std@@@std@@@std@@QEAA@XZ
	??0?$allocator@V?$vector@PEBUwhisper_grammar_element@@V?$allocator@PEBUwhisper_grammar_element@@@std@@@std@@@std@@QEAA@XZ
	??0?$allocator@V?$vector@Uwhisper_grammar_element@@V?$allocator@Uwhisper_grammar_element@@@std@@@std@@@std@@QEAA@XZ
	??0?$allocator@Vthread@std@@@std@@QEAA@XZ
	??0?$allocator@_K@std@@QEAA@XZ
	??0?$allocator@_N@std@@QEAA@XZ
	??0?$allocator@_W@std@@QEAA@XZ
	??0?$atomic@H@std@@QEAA@H@Z
	??0?$basic_filebuf@DU?$char_traits@D@std@@@std@@QEAA@XZ
	??0?$basic_ifstream@DU?$char_traits@D@std@@@std@@QEAA@AEBV?$basic_string@_WU?$char_traits@_W@std@@V?$allocator@_W@2@@1@HH@Z
	??0?$basic_ifstream@DU?$char_traits@D@std@@@std@@QEAA@PEB_WHH@Z
	??0?$basic_ofstream@DU?$char_traits@D@std@@@std@@QEAA@PEBDHH@Z
	??0?$basic_regex@DV?$regex_traits@D@std@@@std@@QEAA@PEBDW4syntax_option_type@regex_constants@1@@Z
	??0?$basic_string@DU?$char_traits@D@std@@V?$allocator@D@2@@std@@QEAA@$$QEAV01@@Z
	??0?$basic_string@DU?$char_traits@D@std@@V?$allocator@D@2@@std@@QEAA@AEBV01@@Z
	??0?$basic_string@DU?$char_traits@D@std@@V?$allocator@D@2@@std@@QEAA@AEBV01@_K1AEBV?$allocator@D@1@@Z
	??0?$basic_string@DU?$char_traits@D@std@@V?$allocator@D@2@@std@@QEAA@QEBD@Z
	??0?$basic_string@DU?$char_traits@D@std@@V?$allocator@D@2@@std@@QEAA@QEBD_K@Z
	??0?$basic_string@DU?$char_traits@D@std@@V?$allocator@D@2@@std@@QEAA@U_String_constructor_concat_tag@1@AEAV01@1@Z
	??0?$basic_string@DU?$char_traits@D@std@@V?$allocator@D@2@@std@@QEAA@U_String_constructor_concat_tag@1@AEBV01@QEBD_K23@Z
	??0?$basic_string@DU?$char_traits@D@std@@V?$allocator@D@2@@std@@QEAA@XZ
	??0?$basic_string@_WU?$char_traits@_W@std@@V?$allocator@_W@2@@std@@QEAA@$$QEAV01@@Z
	??0?$basic_string@_WU?$char_traits@_W@std@@V?$allocator@_W@2@@std@@QEAA@AEBV01@@Z
	??0?$basic_string@_WU?$char_traits@_W@std@@V?$allocator@_W@2@@std@@QEAA@XZ
	??0?$codecvt_utf8@_W$0BAPPPP@$0A@@std@@QEAA@_K@Z
	??0?$collate@D@std@@QEAA@AEBV_Locinfo@1@_K@Z
	??0?$fpos@U_Mbstatet@@@std@@QEAA@U_Mbstatet@@_J@Z
	??0?$fpos@U_Mbstatet@@@std@@QEAA@_J@Z
	??0?$initializer_list@H@std@@QEAA@PEBH0@Z
	??0?$initializer_list@U?$pair@$$CBV?$basic_string@DU?$char_traits@D@std@@V?$allocator@D@2@@std@@U?$pair@HV?$basic_string@DU?$char_traits@D@std@@V?$allocator@D@2@@std@@@2@@std@@@std@@QEAA@PEBU?$pair@$$CBV?$basic_string@DU?$char_traits@D@std@@V?$allocator@D@2@@std@@U?$pair@HV?$basic_string@DU?$char_traits@D@std@@V?$allocator@D@2@@std@@@2@@1@0@Z
	??0?$initializer_list@U?$pair@$$CBW4asr_system@@V?$map@W4asr_tensor@@PEBDU?$less@W4asr_tensor@@@std@@V?$allocator@U?$pair@$$CBW4asr_tensor@@PEBD@std@@@3@@std@@@std@@@std@@QEAA@PEBU?$pair@$$CBW4asr_system@@V?$map@W4asr_tensor@@PEBDU?$less@W4asr_tensor@@@std@@V?$allocator@U?$pair@$$CBW4asr_tensor@@PEBD@std@@@3@@std@@@1@0@Z
	??0?$initializer_list@U?$pair@$$CBW4asr_tensor@@PEBD@std@@@std@@QEAA@PEBU?$pair@$$CBW4asr_tensor@@PEBD@1@0@Z
	??0?$initializer_list@U?$pair@$$CBW4asr_tensor@@W4ggml_op@@@std@@@std@@QEAA@PEBU?$pair@$$CBW4asr_tensor@@W4ggml_op@@@1@0@Z
	??0?$initializer_list@U?$pair@$$CBW4e_model@@V?$basic_string@DU?$char_traits@D@std@@V?$allocator@D@2@@std@@@std@@@std@@QEAA@PEBU?$pair@$$CBW4e_model@@V?$basic_string@DU?$char_traits@D@std@@V?$allocator@D@2@@std@@@1@0@Z
	??0?$initializer_list@U?$pair@$$CBW4vad_tensor@@PEBD@std@@@std@@QEAA@PEBU?$pair@$$CBW4vad_tensor@@PEBD@1@0@Z
	??0?$initializer_list@U?$pair@$$CBW4vad_tensor@@W4ggml_op@@@std@@@std@@QEAA@PEBU?$pair@$$CBW4vad_tensor@@W4ggml_op@@@1@0@Z
	??0?$initializer_list@U?$pair@$$CBW4whisper_alignment_heads_preset@@Uwhisper_aheads@@@std@@@std@@QEAA@PEBU?$pair@$$CBW4whisper_alignment_heads_preset@@Uwhisper_aheads@@@1@0@Z
	??0?$initializer_list@V?$basic_string@DU?$char_traits@D@std@@V?$allocator@D@2@@std@@@std@@QEAA@PEBV?$basic_string@DU?$char_traits@D@std@@V?$allocator@D@2@@1@0@Z
	??0?$initializer_list@_K@std@@QEAA@PEB_K0@Z
	??0?$map@HHU?$less@H@std@@V?$allocator@U?$pair@$$CBHH@std@@@2@@std@@QEAA@XZ
	??0?$map@HV?$basic_string@DU?$char_traits@D@std@@V?$allocator@D@2@@std@@U?$less@H@2@V?$allocator@U?$pair@$$CBHV?$basic_string@DU?$char_traits@D@std@@V?$allocator@D@2@@std@@@std@@@2@@std@@QEAA@XZ
	??0?$map@PEAUggml_backend_buffer_type@@PEAUggml_context@@U?$less@PEAUggml_backend_buffer_type@@@std@@V?$allocator@U?$pair@QEAUggml_backend_buffer_type@@PEAUggml_context@@@std@@@4@@std@@QEAA@XZ
	??0?$map@V?$basic_string@DU?$char_traits@D@std@@V?$allocator@D@2@@std@@HU?$less@V?$basic_string@DU?$char_traits@D@std@@V?$allocator@D@2@@std@@@2@V?$allocator@U?$pair@$$CBV?$basic_string@DU?$char_traits@D@std@@V?$allocator@D@2@@std@@H@std@@@2@@std@@QEAA@XZ
	??0?$map@V?$basic_string@DU?$char_traits@D@std@@V?$allocator@D@2@@std@@PEAUggml_tensor@@U?$less@V?$basic_string@DU?$char_traits@D@std@@V?$allocator@D@2@@std@@@2@V?$allocator@U?$pair@$$CBV?$basic_string@DU?$char_traits@D@std@@V?$allocator@D@2@@std@@PEAUggml_tensor@@@std@@@2@@std@@QEAA@XZ
	??0?$map@V?$basic_string@DU?$char_traits@D@std@@V?$allocator@D@2@@std@@U?$pair@HV?$basic_string@DU?$char_traits@D@std@@V?$allocator@D@2@@std@@@2@U?$less@V?$basic_string@DU?$char_traits@D@std@@V?$allocator@D@2@@std@@@2@V?$allocator@U?$pair@$$CBV?$basic_string@DU?$char_traits@D@std@@V?$allocator@D@2@@std@@U?$pair@HV?$basic_string@DU?$char_traits@D@std@@V?$allocator@D@2@@std@@@2@@std@@@2@@std@@QEAA@V?$initializer_list@U?$pair@$$CBV?$basic_string@DU?$char_traits@D@std@@V?$allocator@D@2@@std@@U?$pair@HV?$basic_string@DU?$char_traits@D@std@@V?$allocator@D@2@@std@@@2@@std@@@1@@Z
	??0?$map@W4asr_system@@V?$map@W4asr_tensor@@PEBDU?$less@W4asr_tensor@@@std@@V?$allocator@U?$pair@$$CBW4asr_tensor@@PEBD@std@@@3@@std@@U?$less@W4asr_system@@@3@V?$allocator@U?$pair@$$CBW4asr_system@@V?$map@W4asr_tensor@@PEBDU?$less@W4asr_tensor@@@std@@V?$allocator@U?$pair@$$CBW4asr_tensor@@PEBD@std@@@3@@std@@@std@@@3@@std@@QEAA@V?$initializer_list@U?$pair@$$CBW4asr_system@@V?$map@W4asr_tensor@@PEBDU?$less@W4asr_tensor@@@std@@V?$allocator@U?$pair@$$CBW4asr_tensor@@PEBD@std@@@3@@std@@@std@@@1@@Z
	??0?$map@W4asr_tensor@@PEBDU?$less@W4asr_tensor@@@std@@V?$allocator@U?$pair@$$CBW4asr_tensor@@PEBD@std@@@3@@std@@QEAA@AEBV01@@Z
	??0?$map@W4asr_tensor@@PEBDU?$less@W4asr_tensor@@@std@@V?$allocator@U?$pair@$$CBW4asr_tensor@@PEBD@std@@@3@@std@@QEAA@V?$initializer_list@U?$pair@$$CBW4asr_tensor@@PEBD@std@@@1@@Z
	??0?$map@W4asr_tensor@@W4ggml_op@@U?$less@W4asr_tensor@@@std@@V?$allocator@U?$pair@$$CBW4asr_tensor@@W4ggml_op@@@std@@@4@@std@@QEAA@V?$initializer_list@U?$pair@$$CBW4asr_tensor@@W4ggml_op@@@std@@@1@@Z
	??0?$map@W4e_model@@V?$basic_string@DU?$char_traits@D@std@@V?$allocator@D@2@@std@@U?$less@W4e_model@@@3@V?$allocator@U?$pair@$$CBW4e_model@@V?$basic_string@DU?$char_traits@D@std@@V?$allocator@D@2@@std@@@std@@@3@@std@@QEAA@V?$initializer_list@U?$pair@$$CBW4e_model@@V?$basic_string@DU?$char_traits@D@std@@V?$allocator@D@2@@std@@@std@@@1@@Z
	??0?$map@W4vad_tensor@@PEBDU?$less@W4vad_tensor@@@std@@V?$allocator@U?$pair@$$CBW4vad_tensor@@PEBD@std@@@3@@std@@QEAA@V?$initializer_list@U?$pair@$$CBW4vad_tensor@@PEBD@std@@@1@@Z
	??0?$map@W4vad_tensor@@W4ggml_op@@U?$less@W4vad_tensor@@@std@@V?$allocator@U?$pair@$$CBW4vad_tensor@@W4ggml_op@@@std@@@4@@std@@QEAA@V?$initializer_list@U?$pair@$$CBW4vad_tensor@@W4ggml_op@@@std@@@1@@Z
	??0?$map@W4whisper_alignment_heads_preset@@Uwhisper_aheads@@U?$less@W4whisper_alignment_heads_preset@@@std@@V?$allocator@U?$pair@$$CBW4whisper_alignment_heads_preset@@Uwhisper_aheads@@@std@@@4@@std@@QEAA@V?$initializer_list@U?$pair@$$CBW4whisper_alignment_heads_preset@@Uwhisper_aheads@@@std@@@1@@Z
	??0?$match_results@V?$_String_const_iterator@V?$_String_val@U?$_Simple_types@D@std@@@std@@@std@@V?$allocator@V?$sub_match@V?$_String_const_iterator@V?$_String_val@U?$_Simple_types@D@std@@@std@@@std@@@std@@@2@@std@@QEAA@XZ
	??0?$mersenne_twister@I$0CA@$0CHA@$0BIN@$0BP@$0JJAILANP@$0L@$06$0JNCMFGIA@$0P@$0OPMGAAAA@$0BC@@std@@QEAA@III@Z
	??0?$mersenne_twister_engine@I$0CA@$0CHA@$0BIN@$0BP@$0JJAILANP@$0L@$0PPPPPPPP@$06$0JNCMFGIA@$0P@$0OPMGAAAA@$0BC@$0GMAHIJGF@@std@@QEAA@I@Z
	??0?$mersenne_twister_engine@I$0CA@$0CHA@$0BIN@$0BP@$0JJAILANP@$0L@$0PPPPPPPP@$06$0JNCMFGIA@$0P@$0OPMGAAAA@$0BC@$0GMAHIJGF@@std@@QEAA@XZ
	??0?$pair@$$CBV?$basic_string@DU?$char_traits@D@std@@V?$allocator@D@2@@std@@U?$pair@HV?$basic_string@DU?$char_traits@D@std@@V?$allocator@D@2@@std@@@2@@std@@QEAA@AEBU01@@Z
	??0?$pair@$$CBW4asr_system@@V?$map@W4asr_tensor@@PEBDU?$less@W4asr_tensor@@@std@@V?$allocator@U?$pair@$$CBW4asr_tensor@@PEBD@std@@@3@@std@@@std@@QEAA@AEBU01@@Z
	??0?$pair@$$CBW4e_model@@V?$basic_string@DU?$char_traits@D@std@@V?$allocator@D@2@@std@@@std@@QEAA@AEBU01@@Z
	??0?$pair@HV?$basic_string@DU?$char_traits@D@std@@V?$allocator@D@2@@std@@@std@@QEAA@AEBU01@@Z
	??0?$pair@V?$vector@IV?$allocator@I@std@@@std@@Uwhisper_partial_utf8@@@std@@QEAA@$$QEAU01@@Z
	??0?$regex_traits@D@std@@QEAA@XZ
	??0?$set@HU?$less@H@std@@V?$allocator@H@2@@std@@QEAA@AEBV01@@Z
	??0?$set@HU?$less@H@std@@V?$allocator@H@2@@std@@QEAA@XZ
	??0?$sub_match@PEBD@std@@QEAA@XZ
	??0?$sub_match@V?$_String_const_iterator@V?$_String_val@U?$_Simple_types@D@std@@@std@@@std@@@std@@QEAA@XZ
	??0?$tuple@$$QEAV?$basic_string@DU?$char_traits@D@std@@V?$allocator@D@2@@std@@@std@@QEAA@$$QEAV01@@Z
	??0?$tuple@$$V@std@@QEAA@AEBV01@@Z
	??0?$tuple@AEBH@std@@QEAA@$$QEAV01@@Z
	??0?$tuple@AEBQEAUggml_backend_buffer_type@@@std@@QEAA@$$QEAV01@@Z
	??0?$tuple@AEBV?$basic_string@DU?$char_traits@D@std@@V?$allocator@D@2@@std@@@std@@QEAA@$$QEAV01@@Z
	??0?$vector@DV?$allocator@D@std@@@std@@QEAA@XZ
	??0?$vector@DV?$allocator@D@std@@@std@@QEAA@_KAEBDAEBV?$allocator@D@1@@Z
	??0?$vector@DV?$allocator@D@std@@@std@@QEAA@_KAEBV?$allocator@D@1@@Z
	??0?$vector@EV?$allocator@E@std@@@std@@QEAA@XZ
	??0?$vector@EV?$allocator@E@std@@@std@@QEAA@_KAEBV?$allocator@E@1@@Z
	??0?$vector@HV?$allocator@H@std@@@std@@QEAA@$$QEAV01@@Z
	??0?$vector@HV?$allocator@H@std@@@std@@QEAA@V?$initializer_list@H@1@AEBV?$allocator@H@1@@Z
	??0?$vector@HV?$allocator@H@std@@@std@@QEAA@XZ
	??0?$vector@IV?$allocator@I@std@@@std@@QEAA@$$QEAV01@@Z
	??0?$vector@IV?$allocator@I@std@@@std@@QEAA@AEBV01@@Z
	??0?$vector@IV?$allocator@I@std@@@std@@QEAA@AEBV?$allocator@I@1@@Z
	??0?$vector@IV?$allocator@I@std@@@std@@QEAA@XZ
	??0?$vector@MV?$allocator@M@std@@@std@@QEAA@$$QEAV01@@Z
	??0?$vector@MV?$allocator@M@std@@@std@@QEAA@XZ
	??0?$vector@MV?$allocator@M@std@@@std@@QEAA@_KAEBMAEBV?$allocator@M@1@@Z
	??0?$vector@MV?$allocator@M@std@@@std@@QEAA@_KAEBV?$allocator@M@1@@Z
	??0?$vector@NV?$allocator@N@std@@@std@@QEAA@XZ
	??0?$vector@PEAUggml_backend@@V?$allocator@PEAUggml_backend@@@std@@@std@@QEAA@$$QEAV01@@Z
	??0?$vector@PEAUggml_backend@@V?$allocator@PEAUggml_backend@@@std@@@std@@QEAA@AEBV01@@Z
	??0?$vector@PEAUggml_backend@@V?$allocator@PEAUggml_backend@@@std@@@std@@QEAA@XZ
	??0?$vector@PEAUggml_backend_buffer@@V?$allocator@PEAUggml_backend_buffer@@@std@@@std@@QEAA@XZ
	??0?$vector@PEAUggml_context@@V?$allocator@PEAUggml_context@@@std@@@std@@QEAA@XZ
	??0?$vector@PEAUggml_tensor@@V?$allocator@PEAUggml_tensor@@@std@@@std@@QEAA@XZ
	??0?$vector@PEAUwhisper_state@@V?$allocator@PEAUwhisper_state@@@std@@@std@@QEAA@XZ
	??0?$vector@PEBUwhisper_grammar_element@@V?$allocator@PEBUwhisper_grammar_element@@@std@@@std@@QEAA@$$QEAV01@@Z
	??0?$vector@PEBUwhisper_grammar_element@@V?$allocator@PEBUwhisper_grammar_element@@@std@@@std@@QEAA@AEBV01@@Z
	??0?$vector@PEBUwhisper_grammar_element@@V?$allocator@PEBUwhisper_grammar_element@@@std@@@std@@QEAA@XZ
	??0?$vector@U?$pair@PEAUggml_backend_device@@PEAUggml_backend_buffer_type@@@std@@V?$allocator@U?$pair@PEAUggml_backend_device@@PEAUggml_backend_buffer_type@@@std@@@2@@std@@QEAA@$$QEAV01@@Z
	??0?$vector@U?$pair@PEAUggml_backend_device@@PEAUggml_backend_buffer_type@@@std@@V?$allocator@U?$pair@PEAUggml_backend_device@@PEAUggml_backend_buffer_type@@@std@@@2@@std@@QEAA@AEBV01@@Z
	??0?$vector@U?$pair@PEAUggml_backend_device@@PEAUggml_backend_buffer_type@@@std@@V?$allocator@U?$pair@PEAUggml_backend_device@@PEAUggml_backend_buffer_type@@@std@@@2@@std@@QEAA@XZ
	??0?$vector@U?$pair@V?$vector@IV?$allocator@I@std@@@std@@Uwhisper_partial_utf8@@@std@@V?$allocator@U?$pair@V?$vector@IV?$allocator@I@std@@@std@@Uwhisper_partial_utf8@@@std@@@2@@std@@QEAA@XZ
	??0?$vector@U?$whisper_pair@NH@@V?$allocator@U?$whisper_pair@NH@@@std@@@std@@QEAA@XZ
	??0?$vector@U_Grp_t@?$_Tgt_state_t@PEBD@std@@V?$allocator@U_Grp_t@?$_Tgt_state_t@PEBD@std@@@3@@std@@QEAA@$$QEAV01@@Z
	??0?$vector@U_Grp_t@?$_Tgt_state_t@PEBD@std@@V?$allocator@U_Grp_t@?$_Tgt_state_t@PEBD@std@@@3@@std@@QEAA@AEBV01@@Z
	??0?$vector@U_Grp_t@?$_Tgt_state_t@PEBD@std@@V?$allocator@U_Grp_t@?$_Tgt_state_t@PEBD@std@@@3@@std@@QEAA@XZ
	??0?$vector@U_Grp_t@?$_Tgt_state_t@V?$_String_const_iterator@V?$_String_val@U?$_Simple_types@D@std@@@std@@@std@@@std@@V?$allocator@U_Grp_t@?$_Tgt_state_t@V?$_String_const_iterator@V?$_String_val@U?$_Simple_types@D@std@@@std@@@std@@@std@@@3@@std@@QEAA@$$QEAV01@@Z
	??0?$vector@U_Grp_t@?$_Tgt_state_t@V?$_String_const_iterator@V?$_String_val@U?$_Simple_types@D@std@@@std@@@std@@@std@@V?$allocator@U_Grp_t@?$_Tgt_state_t@V?$_String_const_iterator@V?$_String_val@U?$_Simple_types@D@std@@@std@@@std@@@std@@@3@@std@@QEAA@AEBV01@@Z
	??0?$vector@U_Grp_t@?$_Tgt_state_t@V?$_String_const_iterator@V?$_String_val@U?$_Simple_types@D@std@@@std@@@std@@@std@@V?$allocator@U_Grp_t@?$_Tgt_state_t@V?$_String_const_iterator@V?$_String_val@U?$_Simple_types@D@std@@@std@@@std@@@std@@@3@@std@@QEAA@XZ
	??0?$vector@U_Loop_vals_v2_t@std@@V?$allocator@U_Loop_vals_v2_t@std@@@2@@std@@QEAA@XZ
	??0?$vector@Uvad_segment_info@whisper_state@@V?$allocator@Uvad_segment_info@whisper_state@@@std@@@std@@QEAA@XZ
	??0?$vector@Uvad_time_mapping@@V?$allocator@Uvad_time_mapping@@@std@@@std@@QEAA@XZ
	??0?$vector@Uwhisper_grammar_candidate@@V?$allocator@Uwhisper_grammar_candidate@@@std@@@std@@QEAA@$$QEAV01@@Z
	??0?$vector@Uwhisper_grammar_candidate@@V?$allocator@Uwhisper_grammar_candidate@@@std@@@std@@QEAA@XZ
	??0?$vector@Uwhisper_grammar_element@@V?$allocator@Uwhisper_grammar_element@@@std@@@std@@QEAA@AEBV01@@Z
	??0?$vector@Uwhisper_grammar_element@@V?$allocator@Uwhisper_grammar_element@@@std@@@std@@QEAA@XZ
	??0?$vector@Uwhisper_kv_cell@@V?$allocator@Uwhisper_kv_cell@@@std@@@std@@QEAA@XZ
	??0?$vector@Uwhisper_layer_decoder@@V?$allocator@Uwhisper_layer_decoder@@@std@@@std@@QEAA@XZ
	??0?$vector@Uwhisper_layer_encoder@@V?$allocator@Uwhisper_layer_encoder@@@std@@@std@@QEAA@XZ
	??0?$vector@Uwhisper_segment@@V?$allocator@Uwhisper_segment@@@std@@@std@@QEAA@XZ
	??0?$vector@Uwhisper_token_data@@V?$allocator@Uwhisper_token_data@@@std@@@std@@QEAA@$$QEAV01@@Z
	??0?$vector@Uwhisper_token_data@@V?$allocator@Uwhisper_token_data@@@std@@@std@@QEAA@AEBV01@@Z
	??0?$vector@Uwhisper_token_data@@V?$allocator@Uwhisper_token_data@@@std@@@std@@QEAA@XZ
	??0?$vector@Uwhisper_vad_segment@@V?$allocator@Uwhisper_vad_segment@@@std@@@std@@QEAA@XZ
	??0?$vector@V?$_Tgt_state_t@PEBD@std@@V?$allocator@V?$_Tgt_state_t@PEBD@std@@@2@@std@@QEAA@XZ
	??0?$vector@V?$_Tgt_state_t@V?$_String_const_iterator@V?$_String_val@U?$_Simple_types@D@std@@@std@@@std@@@std@@V?$allocator@V?$_Tgt_state_t@V?$_String_const_iterator@V?$_String_val@U?$_Simple_types@D@std@@@std@@@std@@@std@@@2@@std@@QEAA@XZ
	??0?$vector@V?$basic_string@DU?$char_traits@D@std@@V?$allocator@D@2@@std@@V?$allocator@V?$basic_string@DU?$char_traits@D@std@@V?$allocator@D@2@@std@@@2@@std@@QEAA@V?$initializer_list@V?$basic_string@DU?$char_traits@D@std@@V?$allocator@D@2@@std@@@1@AEBV?$allocator@V?$basic_string@DU?$char_traits@D@std@@V?$allocator@D@2@@std@@@1@@Z
	??0?$vector@V?$basic_string@DU?$char_traits@D@std@@V?$allocator@D@2@@std@@V?$allocator@V?$basic_string@DU?$char_traits@D@std@@V?$allocator@D@2@@std@@@2@@std@@QEAA@XZ
	??0?$vector@V?$sub_match@V?$_String_const_iterator@V?$_String_val@U?$_Simple_types@D@std@@@std@@@std@@@std@@V?$allocator@V?$sub_match@V?$_String_const_iterator@V?$_String_val@U?$_Simple_types@D@std@@@std@@@std@@@std@@@2@@std@@QEAA@XZ
	??0?$vector@V?$vector@PEBUwhisper_grammar_element@@V?$allocator@PEBUwhisper_grammar_element@@@std@@@std@@V?$allocator@V?$vector@PEBUwhisper_grammar_element@@V?$allocator@PEBUwhisper_grammar_element@@@std@@@std@@@2@@std@@QEAA@$$QEAV01@@Z
	??0?$vector@V?$vector@PEBUwhisper_grammar_element@@V?$allocator@PEBUwhisper_grammar_element@@@std@@@std@@V?$allocator@V?$vector@PEBUwhisper_grammar_element@@V?$allocator@PEBUwhisper_grammar_element@@@std@@@std@@@2@@std@@QEAA@AEBV01@@Z
	??0?$vector@V?$vector@PEBUwhisper_grammar_element@@V?$allocator@PEBUwhisper_grammar_element@@@std@@@std@@V?$allocator@V?$vector@PEBUwhisper_grammar_element@@V?$allocator@PEBUwhisper_grammar_element@@@std@@@std@@@2@@std@@QEAA@XZ
	??0?$vector@V?$vector@Uwhisper_grammar_element@@V?$allocator@Uwhisper_grammar_element@@@std@@@std@@V?$allocator@V?$vector@Uwhisper_grammar_element@@V?$allocator@Uwhisper_grammar_element@@@std@@@std@@@2@@std@@QEAA@$$QEAV01@@Z
	??0?$vector@V?$vector@Uwhisper_grammar_element@@V?$allocator@Uwhisper_grammar_element@@@std@@@std@@V?$allocator@V?$vector@Uwhisper_grammar_element@@V?$allocator@Uwhisper_grammar_element@@@std@@@std@@@2@@std@@QEAA@AEBV01@@Z
	??0?$vector@V?$vector@Uwhisper_grammar_element@@V?$allocator@Uwhisper_grammar_element@@@std@@@std@@V?$allocator@V?$vector@Uwhisper_grammar_element@@V?$allocator@Uwhisper_grammar_element@@@std@@@std@@@2@@std@@QEAA@XZ
	??0?$vector@V?$vector@Uwhisper_grammar_element@@V?$allocator@Uwhisper_grammar_element@@@std@@@std@@V?$allocator@V?$vector@Uwhisper_grammar_element@@V?$allocator@Uwhisper_grammar_element@@@std@@@std@@@2@@std@@QEAA@_KAEBV?$allocator@V?$vector@Uwhisper_grammar_element@@V?$allocator@Uwhisper_grammar_element@@@std@@@std@@@1@@Z
	??0?$vector@Vthread@std@@V?$allocator@Vthread@std@@@2@@std@@QEAA@_KAEBV?$allocator@Vthread@std@@@1@@Z
	??0?$vector@_KV?$allocator@_K@std@@@std@@QEAA@V?$initializer_list@_K@1@AEBV?$allocator@_K@1@@Z
	??0?$vector@_NV?$allocator@_N@std@@@std@@QEAA@$$QEAV01@@Z
	??0?$vector@_NV?$allocator@_N@std@@@std@@QEAA@AEBV01@@Z
	??0?$vector@_NV?$allocator@_N@std@@@std@@QEAA@XZ
	??0?$whisper_pair@NH@@QEAA@AEBNAEBH@Z
	??0?$whisper_pair@NH@@QEAA@XZ
	??0?$wstring_convert@V?$codecvt_utf8@_W$0BAPPPP@$0A@@std@@_WV?$allocator@_W@2@V?$allocator@D@2@@std@@QEAA@XZ
	??0_Bitmap@std@@QEAA@XZ
	??0_Bxty@?$_String_val@U?$_Simple_types@D@std@@@std@@QEAA@XZ
	??0_Bxty@?$_String_val@U?$_Simple_types@_W@std@@@std@@QEAA@XZ
	??0_Fake_proxy_ptr_impl@std@@QEAA@AEBU_Fake_allocator@1@AEBU_Container_base0@1@@Z
	??0_Grp_t@?$_Tgt_state_t@V?$_String_const_iterator@V?$_String_val@U?$_Simple_types@D@std@@@std@@@std@@@std@@QEAA@XZ
	??0_Loop_vals_v2_t@std@@QEAA@XZ
	??0_Node_assert@std@@QEAA@W4_Node_type@1@W4_Node_flags@1@@Z
	??0_Node_back@std@@QEAA@I@Z
	??0_Node_base@std@@QEAA@W4_Node_type@1@W4_Node_flags@1@@Z
	??0_Node_capture@std@@QEAA@I@Z
	??0_Node_end_group@std@@QEAA@W4_Node_type@1@W4_Node_flags@1@PEAV_Node_base@1@@Z
	??0_Node_end_rep@std@@QEAA@XZ
	??0_Node_endif@std@@QEAA@XZ
	??0_Node_if@std@@QEAA@PEAV_Node_base@1@@Z
	??0_Node_rep@std@@QEAA@_NHHPEAV_Node_end_rep@1@I@Z
	??0_Root_node@std@@QEAA@XZ
	??0_Sentry_base@?$basic_ostream@DU?$char_traits@D@std@@@std@@QEAA@AEAV12@@Z
	??0bad_alloc@std@@AEAA@QEBD@Z
	??0bad_alloc@std@@QEAA@AEBV01@@Z
	??0bad_array_new_length@std@@QEAA@AEBV01@@Z
	??0bad_array_new_length@std@@QEAA@XZ
	??0bad_cast@std@@QEAA@AEBV01@@Z
	??0bad_cast@std@@QEAA@XZ
	??0exception@std@@QEAA@AEBV01@@Z
	??0exception@std@@QEAA@QEBD@Z
	??0exception@std@@QEAA@QEBDH@Z
	??0locale@std@@QEAA@XZ
	??0range_error@std@@QEAA@AEBV01@@Z
	??0range_error@std@@QEAA@PEBD@Z
	??0runtime_error@std@@QEAA@AEBV01@@Z
	??0runtime_error@std@@QEAA@AEBV?$basic_string@DU?$char_traits@D@std@@V?$allocator@D@2@@1@@Z
	??0runtime_error@std@@QEAA@PEBD@Z
	??0sentry@?$basic_ostream@DU?$char_traits@D@std@@@std@@QEAA@AEAV12@@Z
	??0thread@std@@QEAA@XZ
	??0whisper_aheads_masks@@QEAA@XZ
	??0whisper_context@@QEAA@XZ
	??0whisper_decoder@@QEAA@XZ
	??0whisper_filters@@QEAA@XZ
	??0whisper_grammar@@QEAA@$$QEAU0@@Z
	??0whisper_grammar@@QEAA@AEBU0@@Z
	??0whisper_grammar@@QEAA@XZ
	??0whisper_hparams@@QEAA@XZ
	??0whisper_kv_cache@@QEAA@XZ
	??0whisper_kv_cell@@QEAA@AEBU0@@Z
	??0whisper_kv_cell@@QEAA@XZ
	??0whisper_mel@@QEAA@XZ
	??0whisper_model@@QEAA@XZ
	??0whisper_sched@@QEAA@XZ
	??0whisper_segment@@QEAA@$$QEAU0@@Z
	??0whisper_segment@@QEAA@AEBU0@@Z
	??0whisper_sequence@@QEAA@$$QEAU0@@Z
	??0whisper_sequence@@QEAA@AEBU0@@Z
	??0whisper_sequence@@QEAA@XZ
	??0whisper_state@@QEAA@XZ
	??0whisper_vad_context@@QEAA@XZ
	??0whisper_vad_model@@QEAA@XZ
	??0whisper_vad_segments@@QEAA@XZ
	??0whisper_vocab@@QEAA@XZ
	??1?$_Alloc_construct_ptr@V?$allocator@U?$_Tree_node@HPEAX@std@@@std@@@std@@QEAA@XZ
	??1?$_Alloc_construct_ptr@V?$allocator@U?$_Tree_node@U?$pair@$$CBHH@std@@PEAX@std@@@std@@@std@@QEAA@XZ
	??1?$_Alloc_construct_ptr@V?$allocator@U?$_Tree_node@U?$pair@$$CBHV?$basic_string@DU?$char_traits@D@std@@V?$allocator@D@2@@std@@@std@@PEAX@std@@@std@@@std@@QEAA@XZ
	??1?$_Alloc_construct_ptr@V?$allocator@U?$_Tree_node@U?$pair@$$CBV?$basic_string@DU?$char_traits@D@std@@V?$allocator@D@2@@std@@H@std@@PEAX@std@@@std@@@std@@QEAA@XZ
	??1?$_Alloc_construct_ptr@V?$allocator@U?$_Tree_node@U?$pair@$$CBV?$basic_string@DU?$char_traits@D@std@@V?$allocator@D@2@@std@@PEAUggml_tensor@@@std@@PEAX@std@@@std@@@std@@QEAA@XZ
	??1?$_Alloc_construct_ptr@V?$allocator@U?$_Tree_node@U?$pair@$$CBV?$basic_string@DU?$char_traits@D@std@@V?$allocator@D@2@@std@@U?$pair@HV?$basic_string@DU?$char_traits@D@std@@V?$allocator@D@2@@std@@@2@@std@@PEAX@std@@@std@@@std@@QEAA@XZ
	??1?$_Alloc_construct_ptr@V?$allocator@U?$_Tree_node@U?$pair@$$CBW4asr_system@@V?$map@W4asr_tensor@@PEBDU?$less@W4asr_tensor@@@std@@V?$allocator@U?$pair@$$CBW4asr_tensor@@PEBD@std@@@3@@std@@@std@@PEAX@std@@@std@@@std@@QEAA@XZ
	??1?$_Alloc_construct_ptr@V?$allocator@U?$_Tree_node@U?$pair@$$CBW4asr_tensor@@PEBD@std@@PEAX@std@@@std@@@std@@QEAA@XZ
	??1?$_Alloc_construct_ptr@V?$allocator@U?$_Tree_node@U?$pair@$$CBW4asr_tensor@@W4ggml_op@@@std@@PEAX@std@@@std@@@std@@QEAA@XZ
	??1?$_Alloc_construct_ptr@V?$allocator@U?$_Tree_node@U?$pair@$$CBW4e_model@@V?$basic_string@DU?$char_traits@D@std@@V?$allocator@D@2@@std@@@std@@PEAX@std@@@std@@@std@@QEAA@XZ
	??1?$_Alloc_construct_ptr@V?$allocator@U?$_Tree_node@U?$pair@$$CBW4vad_tensor@@PEBD@std@@PEAX@std@@@std@@@std@@QEAA@XZ
	??1?$_Alloc_construct_ptr@V?$allocator@U?$_Tree_node@U?$pair@$$CBW4vad_tensor@@W4ggml_op@@@std@@PEAX@std@@@std@@@std@@QEAA@XZ
	??1?$_Alloc_construct_ptr@V?$allocator@U?$_Tree_node@U?$pair@$$CBW4whisper_alignment_heads_preset@@Uwhisper_aheads@@@std@@PEAX@std@@@std@@@std@@QEAA@XZ
	??1?$_Alloc_construct_ptr@V?$allocator@U?$_Tree_node@U?$pair@QEAUggml_backend_buffer_type@@PEAUggml_context@@@std@@PEAX@std@@@std@@@std@@QEAA@XZ
	??1?$_Bt_state_t@PEBD@std@@QEAA@XZ
	??1?$_Bt_state_t@V?$_String_const_iterator@V?$_String_val@U?$_Simple_types@D@std@@@std@@@std@@@std@@QEAA@XZ
	??1?$_Buf@D@std@@QEAA@XZ
	??1?$_Compressed_pair@V?$allocator@D@std@@V?$_String_val@U?$_Simple_types@D@std@@@2@$00@std@@QEAA@XZ
	??1?$_Compressed_pair@V?$allocator@_W@std@@V?$_String_val@U?$_Simple_types@_W@std@@@2@$00@std@@QEAA@XZ
	??1?$_Erase_tree_and_orphan_guard@V?$allocator@U?$_Tree_node@HPEAX@std@@@std@@@?$_Tree_val@U?$_Tree_simple_types@H@std@@@std@@QEAA@XZ
	??1?$_Erase_tree_and_orphan_guard@V?$allocator@U?$_Tree_node@U?$pair@$$CBW4asr_tensor@@PEBD@std@@PEAX@std@@@std@@@?$_Tree_val@U?$_Tree_simple_types@U?$pair@$$CBW4asr_tensor@@PEBD@std@@@std@@@std@@QEAA@XZ
	??1?$_Func_class@PEAUggml_cgraph@@$$V@std@@QEAA@XZ
	??1?$_Matcher2@PEBDDV?$regex_traits@D@std@@PEBDX@std@@QEAA@XZ
	??1?$_Matcher2@V?$_String_const_iterator@V?$_String_val@U?$_Simple_types@D@std@@@std@@@std@@DV?$regex_traits@D@2@V12@X@std@@QEAA@XZ
	??1?$_Node_class@DV?$regex_traits@D@std@@@std@@UEAA@XZ
	??1?$_Node_str@D@std@@UEAA@XZ
	??1?$_Parser2@PEBDDV?$regex_traits@D@std@@@std@@QEAA@XZ
	??1?$_Regex_traits@D@std@@QEAA@XZ
	??1?$_Sequence@D@std@@QEAA@XZ
	??1?$_String_val@U?$_Simple_types@D@std@@@std@@QEAA@XZ
	??1?$_String_val@U?$_Simple_types@_W@std@@@std@@QEAA@XZ
	??1?$_Tgt_state_t@PEBD@std@@QEAA@XZ
	??1?$_Tgt_state_t@V?$_String_const_iterator@V?$_String_val@U?$_Simple_types@D@std@@@std@@@std@@@std@@QEAA@XZ
	??1?$_Tidy_guard@V?$_Builder2@PEBDDV?$regex_traits@D@std@@@std@@@std@@QEAA@XZ
	??1?$_Tidy_guard@V?$vector@DV?$allocator@D@std@@@std@@@std@@QEAA@XZ
	??1?$_Tidy_guard@V?$vector@EV?$allocator@E@std@@@std@@@std@@QEAA@XZ
	??1?$_Tidy_guard@V?$vector@HV?$allocator@H@std@@@std@@@std@@QEAA@XZ
	??1?$_Tidy_guard@V?$vector@IV?$allocator@I@std@@@std@@@std@@QEAA@XZ
	??1?$_Tidy_guard@V?$vector@MV?$allocator@M@std@@@std@@@std@@QEAA@XZ
	??1?$_Tidy_guard@V?$vector@NV?$allocator@N@std@@@std@@@std@@QEAA@XZ
	??1?$_Tidy_guard@V?$vector@PEAUggml_backend@@V?$allocator@PEAUggml_backend@@@std@@@std@@@std@@QEAA@XZ
	??1?$_Tidy_guard@V?$vector@PEBUwhisper_grammar_element@@V?$allocator@PEBUwhisper_grammar_element@@@std@@@std@@@std@@QEAA@XZ
	??1?$_Tidy_guard@V?$vector@U?$pair@PEAUggml_backend_device@@PEAUggml_backend_buffer_type@@@std@@V?$allocator@U?$pair@PEAUggml_backend_device@@PEAUggml_backend_buffer_type@@@std@@@2@@std@@@std@@QEAA@XZ
	??1?$_Tidy_guard@V?$vector@U_Grp_t@?$_Tgt_state_t@PEBD@std@@V?$allocator@U_Grp_t@?$_Tgt_state_t@PEBD@std@@@3@@std@@@std@@QEAA@XZ
	??1?$_Tidy_guard@V?$vector@U_Grp_t@?$_Tgt_state_t@V?$_String_const_iterator@V?$_String_val@U?$_Simple_types@D@std@@@std@@@std@@@std@@V?$allocator@U_Grp_t@?$_Tgt_state_t@V?$_String_const_iterator@V?$_String_val@U?$_Simple_types@D@std@@@std@@@std@@@std@@@3@@std@@@std@@QEAA@XZ
	??1?$_Tidy_guard@V?$vector@Uwhisper_grammar_element@@V?$allocator@Uwhisper_grammar_element@@@std@@@std@@@std@@QEAA@XZ
	??1?$_Tidy_guard@V?$vector@Uwhisper_token_data@@V?$allocator@Uwhisper_token_data@@@std@@@std@@@std@@QEAA@XZ
